
SmartLittleBush.elf:     file format elf32-littlearm

Sections:
Idx Name          Size      VMA       LMA       File off  Algn
  0 .text         00008f44  00400000  00400000  00010000  2**6
                  CONTENTS, ALLOC, LOAD, READONLY, CODE
  1 .ARM.exidx    00000008  00408f44  00408f44  00018f44  2**2
                  CONTENTS, ALLOC, LOAD, READONLY, DATA
  2 .relocate     000009c8  20000000  00408f4c  00020000  2**3
                  CONTENTS, ALLOC, LOAD, DATA
  3 .bss          0000050c  200009c8  00409914  000209c8  2**2
                  ALLOC
  4 .stack        00003004  20000ed4  00409e20  000209c8  2**0
                  ALLOC
  5 .ARM.attributes 0000002a  00000000  00000000  000209c8  2**0
                  CONTENTS, READONLY
  6 .comment      00000059  00000000  00000000  000209f2  2**0
                  CONTENTS, READONLY
  7 .debug_info   00019eee  00000000  00000000  00020a4b  2**0
                  CONTENTS, READONLY, DEBUGGING
  8 .debug_abbrev 000034a3  00000000  00000000  0003a939  2**0
                  CONTENTS, READONLY, DEBUGGING
  9 .debug_loc    000070f7  00000000  00000000  0003dddc  2**0
                  CONTENTS, READONLY, DEBUGGING
 10 .debug_aranges 00000d40  00000000  00000000  00044ed3  2**0
                  CONTENTS, READONLY, DEBUGGING
 11 .debug_ranges 00000d48  00000000  00000000  00045c13  2**0
                  CONTENTS, READONLY, DEBUGGING
 12 .debug_macro  000077b6  00000000  00000000  0004695b  2**0
                  CONTENTS, READONLY, DEBUGGING
 13 .debug_line   0000ee72  00000000  00000000  0004e111  2**0
                  CONTENTS, READONLY, DEBUGGING
 14 .debug_str    0005ab1d  00000000  00000000  0005cf83  2**0
                  CONTENTS, READONLY, DEBUGGING
 15 .debug_frame  0000311c  00000000  00000000  000b7aa0  2**2
                  CONTENTS, READONLY, DEBUGGING

Disassembly of section .text:

00400000 <exception_table>:
  400000:	d8 3e 00 20 d5 13 40 00 d1 13 40 00 d1 13 40 00     .>. ..@...@...@.
  400010:	d1 13 40 00 d1 13 40 00 d1 13 40 00 00 00 00 00     ..@...@...@.....
	...
  40002c:	d1 13 40 00 d1 13 40 00 00 00 00 00 d1 13 40 00     ..@...@.......@.
  40003c:	d1 13 40 00 d1 13 40 00 d1 13 40 00 d1 13 40 00     ..@...@...@...@.
  40004c:	d1 13 40 00 d1 13 40 00 d1 13 40 00 d1 13 40 00     ..@...@...@...@.
  40005c:	d1 13 40 00 d1 13 40 00 d1 13 40 00 00 00 00 00     ..@...@...@.....
  40006c:	d5 11 40 00 e9 11 40 00 fd 11 40 00 d1 13 40 00     ..@...@...@...@.
  40007c:	d1 13 40 00 00 00 00 00 00 00 00 00 d1 13 40 00     ..@...........@.
  40008c:	d1 13 40 00 d1 13 40 00 d1 13 40 00 d1 13 40 00     ..@...@...@...@.
  40009c:	45 1e 40 00 d1 13 40 00 d1 13 40 00 d1 13 40 00     E.@...@...@...@.
  4000ac:	d1 13 40 00 d1 13 40 00 b5 1b 40 00 d1 13 40 00     ..@...@...@...@.
  4000bc:	d1 13 40 00 d1 13 40 00 d1 13 40 00 d1 13 40 00     ..@...@...@...@.

004000cc <__do_global_dtors_aux>:
  4000cc:	b510      	push	{r4, lr}
  4000ce:	4c05      	ldr	r4, [pc, #20]	; (4000e4 <__do_global_dtors_aux+0x18>)
  4000d0:	7823      	ldrb	r3, [r4, #0]
  4000d2:	b933      	cbnz	r3, 4000e2 <__do_global_dtors_aux+0x16>
  4000d4:	4b04      	ldr	r3, [pc, #16]	; (4000e8 <__do_global_dtors_aux+0x1c>)
  4000d6:	b113      	cbz	r3, 4000de <__do_global_dtors_aux+0x12>
  4000d8:	4804      	ldr	r0, [pc, #16]	; (4000ec <__do_global_dtors_aux+0x20>)
  4000da:	f3af 8000 	nop.w
  4000de:	2301      	movs	r3, #1
  4000e0:	7023      	strb	r3, [r4, #0]
  4000e2:	bd10      	pop	{r4, pc}
  4000e4:	200009c8 	.word	0x200009c8
  4000e8:	00000000 	.word	0x00000000
  4000ec:	00408f4c 	.word	0x00408f4c

004000f0 <frame_dummy>:
  4000f0:	4b0c      	ldr	r3, [pc, #48]	; (400124 <frame_dummy+0x34>)
  4000f2:	b143      	cbz	r3, 400106 <frame_dummy+0x16>
  4000f4:	480c      	ldr	r0, [pc, #48]	; (400128 <frame_dummy+0x38>)
  4000f6:	490d      	ldr	r1, [pc, #52]	; (40012c <frame_dummy+0x3c>)
  4000f8:	b510      	push	{r4, lr}
  4000fa:	f3af 8000 	nop.w
  4000fe:	480c      	ldr	r0, [pc, #48]	; (400130 <frame_dummy+0x40>)
  400100:	6803      	ldr	r3, [r0, #0]
  400102:	b923      	cbnz	r3, 40010e <frame_dummy+0x1e>
  400104:	bd10      	pop	{r4, pc}
  400106:	480a      	ldr	r0, [pc, #40]	; (400130 <frame_dummy+0x40>)
  400108:	6803      	ldr	r3, [r0, #0]
  40010a:	b933      	cbnz	r3, 40011a <frame_dummy+0x2a>
  40010c:	4770      	bx	lr
  40010e:	4b09      	ldr	r3, [pc, #36]	; (400134 <frame_dummy+0x44>)
  400110:	2b00      	cmp	r3, #0
  400112:	d0f7      	beq.n	400104 <frame_dummy+0x14>
  400114:	e8bd 4010 	ldmia.w	sp!, {r4, lr}
  400118:	4718      	bx	r3
  40011a:	4b06      	ldr	r3, [pc, #24]	; (400134 <frame_dummy+0x44>)
  40011c:	2b00      	cmp	r3, #0
  40011e:	d0f5      	beq.n	40010c <frame_dummy+0x1c>
  400120:	4718      	bx	r3
  400122:	bf00      	nop
  400124:	00000000 	.word	0x00000000
  400128:	00408f4c 	.word	0x00408f4c
  40012c:	200009cc 	.word	0x200009cc
  400130:	00408f4c 	.word	0x00408f4c
  400134:	00000000 	.word	0x00000000

00400138 <_read>:
int __attribute__((weak))
_read (int file, char * ptr, int len); // Remove GCC compiler warning

int __attribute__((weak))
_read (int file, char * ptr, int len)
{
  400138:	e92d 41f0 	stmdb	sp!, {r4, r5, r6, r7, r8, lr}
	int nChars = 0;

	if (file != 0) {
  40013c:	b980      	cbnz	r0, 400160 <_read+0x28>
  40013e:	460c      	mov	r4, r1
  400140:	4690      	mov	r8, r2
		return -1;
	}

	for (; len > 0; --len) {
  400142:	2a00      	cmp	r2, #0
  400144:	dd0f      	ble.n	400166 <_read+0x2e>
  400146:	188f      	adds	r7, r1, r2
		ptr_get(stdio_base, ptr);
  400148:	4e08      	ldr	r6, [pc, #32]	; (40016c <_read+0x34>)
  40014a:	4d09      	ldr	r5, [pc, #36]	; (400170 <_read+0x38>)
  40014c:	6830      	ldr	r0, [r6, #0]
  40014e:	4621      	mov	r1, r4
  400150:	682b      	ldr	r3, [r5, #0]
  400152:	4798      	blx	r3
		ptr++;
  400154:	3401      	adds	r4, #1
	for (; len > 0; --len) {
  400156:	42bc      	cmp	r4, r7
  400158:	d1f8      	bne.n	40014c <_read+0x14>
		nChars++;
	}
	return nChars;
}
  40015a:	4640      	mov	r0, r8
  40015c:	e8bd 81f0 	ldmia.w	sp!, {r4, r5, r6, r7, r8, pc}
		return -1;
  400160:	f04f 38ff 	mov.w	r8, #4294967295
  400164:	e7f9      	b.n	40015a <_read+0x22>
	for (; len > 0; --len) {
  400166:	4680      	mov	r8, r0
  400168:	e7f7      	b.n	40015a <_read+0x22>
  40016a:	bf00      	nop
  40016c:	20000e60 	.word	0x20000e60
  400170:	20000e58 	.word	0x20000e58

00400174 <_write>:
int __attribute__((weak))
_write (int file, const char *ptr, int len)
{
	int nChars = 0;

	if ((file != 1) && (file != 2) && (file!=3)) {
  400174:	3801      	subs	r0, #1
  400176:	2802      	cmp	r0, #2
  400178:	d815      	bhi.n	4001a6 <_write+0x32>
{
  40017a:	e92d 41f0 	stmdb	sp!, {r4, r5, r6, r7, r8, lr}
  40017e:	460e      	mov	r6, r1
  400180:	4614      	mov	r4, r2
		return -1;
	}

	for (; len != 0; --len) {
  400182:	b19a      	cbz	r2, 4001ac <_write+0x38>
  400184:	460d      	mov	r5, r1
		if (ptr_put(stdio_base, *ptr++) < 0) {
  400186:	f8df 8038 	ldr.w	r8, [pc, #56]	; 4001c0 <_write+0x4c>
  40018a:	4f0c      	ldr	r7, [pc, #48]	; (4001bc <_write+0x48>)
  40018c:	f8d8 0000 	ldr.w	r0, [r8]
  400190:	f815 1b01 	ldrb.w	r1, [r5], #1
  400194:	683b      	ldr	r3, [r7, #0]
  400196:	4798      	blx	r3
  400198:	2800      	cmp	r0, #0
  40019a:	db0a      	blt.n	4001b2 <_write+0x3e>
  40019c:	1ba8      	subs	r0, r5, r6
	for (; len != 0; --len) {
  40019e:	3c01      	subs	r4, #1
  4001a0:	d1f4      	bne.n	40018c <_write+0x18>
  4001a2:	e8bd 81f0 	ldmia.w	sp!, {r4, r5, r6, r7, r8, pc}
		return -1;
  4001a6:	f04f 30ff 	mov.w	r0, #4294967295
  4001aa:	4770      	bx	lr
	for (; len != 0; --len) {
  4001ac:	4610      	mov	r0, r2
  4001ae:	e8bd 81f0 	ldmia.w	sp!, {r4, r5, r6, r7, r8, pc}
			return -1;
  4001b2:	f04f 30ff 	mov.w	r0, #4294967295
		}
		++nChars;
	}
	return nChars;
}
  4001b6:	e8bd 81f0 	ldmia.w	sp!, {r4, r5, r6, r7, r8, pc}
  4001ba:	bf00      	nop
  4001bc:	20000e5c 	.word	0x20000e5c
  4001c0:	20000e60 	.word	0x20000e60

004001c4 <aat31xx_set_backlight>:
 * \param ul_level backlight level.
 *
 * \note pin BOARD_AAT31XX_SET_GPIO must be configured before calling aat31xx_set_backlight.
 */
void aat31xx_set_backlight(uint32_t ul_level)
{
  4001c4:	b4f0      	push	{r4, r5, r6, r7}
  4001c6:	b082      	sub	sp, #8
	volatile uint32_t ul_delay;
	uint32_t i;

#ifdef CONF_BOARD_AAT3155
	ul_level = AAT31XX_MAX_BACKLIGHT_LEVEL - ul_level + 1;
  4001c8:	f1c0 0011 	rsb	r0, r0, #17
#ifdef CONF_BOARD_AAT3193
	ul_level = AAT31XX_MAX_BACKLIGHT_LEVEL - ul_level + 1;
#endif

	/* Ensure valid level */
	ul_level = (ul_level > AAT31XX_MAX_BACKLIGHT_LEVEL) ? AAT31XX_MAX_BACKLIGHT_LEVEL : ul_level;
  4001cc:	2810      	cmp	r0, #16
  4001ce:	bf28      	it	cs
  4001d0:	2010      	movcs	r0, #16
	ul_level = (ul_level < AAT31XX_MIN_BACKLIGHT_LEVEL) ? AAT31XX_MIN_BACKLIGHT_LEVEL : ul_level;
  4001d2:	2800      	cmp	r0, #0
  4001d4:	bf08      	it	eq
  4001d6:	2001      	moveq	r0, #1
{
  4001d8:	2100      	movs	r1, #0
	Pio *base = arch_ioport_pin_to_base(pin);

	if (level) {
		base->PIO_SODR = arch_ioport_pin_to_mask(pin);
	} else {
		base->PIO_CODR = arch_ioport_pin_to_mask(pin);
  4001da:	4d10      	ldr	r5, [pc, #64]	; (40021c <aat31xx_set_backlight+0x58>)
  4001dc:	f44f 5600 	mov.w	r6, #8192	; 0x2000
  4001e0:	4637      	mov	r7, r6

	/* Set new backlight level */
	for (i = 0; i < ul_level; i++) {
		ioport_set_pin_level(BOARD_AAT31XX_SET_GPIO, IOPORT_PIN_LEVEL_LOW);
		ul_delay = DELAY_PULSE;
  4001e2:	2418      	movs	r4, #24
  4001e4:	636f      	str	r7, [r5, #52]	; 0x34
  4001e6:	9401      	str	r4, [sp, #4]
		while (ul_delay--) {
  4001e8:	9b01      	ldr	r3, [sp, #4]
  4001ea:	1e5a      	subs	r2, r3, #1
  4001ec:	9201      	str	r2, [sp, #4]
  4001ee:	2b00      	cmp	r3, #0
  4001f0:	d1fa      	bne.n	4001e8 <aat31xx_set_backlight+0x24>
		base->PIO_SODR = arch_ioport_pin_to_mask(pin);
  4001f2:	632e      	str	r6, [r5, #48]	; 0x30
		}

		ioport_set_pin_level(BOARD_AAT31XX_SET_GPIO, IOPORT_PIN_LEVEL_HIGH);

		ul_delay = DELAY_PULSE;
  4001f4:	9401      	str	r4, [sp, #4]
		while (ul_delay--) {
  4001f6:	9b01      	ldr	r3, [sp, #4]
  4001f8:	1e5a      	subs	r2, r3, #1
  4001fa:	9201      	str	r2, [sp, #4]
  4001fc:	2b00      	cmp	r3, #0
  4001fe:	d1fa      	bne.n	4001f6 <aat31xx_set_backlight+0x32>
	for (i = 0; i < ul_level; i++) {
  400200:	3101      	adds	r1, #1
  400202:	4281      	cmp	r1, r0
  400204:	d3ee      	bcc.n	4001e4 <aat31xx_set_backlight+0x20>
		}
	}

	ul_delay = DELAY_ENABLE;
  400206:	f44f 3300 	mov.w	r3, #131072	; 0x20000
  40020a:	9301      	str	r3, [sp, #4]
	while (ul_delay--) {
  40020c:	9b01      	ldr	r3, [sp, #4]
  40020e:	1e5a      	subs	r2, r3, #1
  400210:	9201      	str	r2, [sp, #4]
  400212:	2b00      	cmp	r3, #0
  400214:	d1fa      	bne.n	40020c <aat31xx_set_backlight+0x48>
	}
}
  400216:	b002      	add	sp, #8
  400218:	bcf0      	pop	{r4, r5, r6, r7}
  40021a:	4770      	bx	lr
  40021c:	400e1200 	.word	0x400e1200

00400220 <aat31xx_disable_backlight>:

/**
 * \brief Switch off backlight.
 */
void aat31xx_disable_backlight(void)
{
  400220:	b082      	sub	sp, #8
		base->PIO_CODR = arch_ioport_pin_to_mask(pin);
  400222:	f44f 5200 	mov.w	r2, #8192	; 0x2000
  400226:	4b06      	ldr	r3, [pc, #24]	; (400240 <aat31xx_disable_backlight+0x20>)
  400228:	635a      	str	r2, [r3, #52]	; 0x34
	volatile uint32_t ul_delay;

	ioport_set_pin_level(BOARD_AAT31XX_SET_GPIO, IOPORT_PIN_LEVEL_LOW);

	ul_delay = DELAY_DISABLE;
  40022a:	f44f 3300 	mov.w	r3, #131072	; 0x20000
  40022e:	9301      	str	r3, [sp, #4]
	while (ul_delay--) {
  400230:	9b01      	ldr	r3, [sp, #4]
  400232:	1e5a      	subs	r2, r3, #1
  400234:	9201      	str	r2, [sp, #4]
  400236:	2b00      	cmp	r3, #0
  400238:	d1fa      	bne.n	400230 <aat31xx_disable_backlight+0x10>
	}
}
  40023a:	b002      	add	sp, #8
  40023c:	4770      	bx	lr
  40023e:	bf00      	nop
  400240:	400e1200 	.word	0x400e1200

00400244 <ili93xx_write_ram_prepare>:
/**
 * \brief Prepare to write GRAM data for ili93xx.
 */
static void ili93xx_write_ram_prepare(void)
{
	if (g_uc_device_type == DEVICE_TYPE_ILI9325) {
  400244:	4b0b      	ldr	r3, [pc, #44]	; (400274 <ili93xx_write_ram_prepare+0x30>)
  400246:	781b      	ldrb	r3, [r3, #0]
  400248:	2b01      	cmp	r3, #1
  40024a:	d002      	beq.n	400252 <ili93xx_write_ram_prepare+0xe>
		/** Write Data to GRAM (R22h) */
		LCD_IR(0);
		LCD_IR(ILI9325_GRAM_DATA_REG);
	} else if (g_uc_device_type == DEVICE_TYPE_ILI9341) {
  40024c:	2b02      	cmp	r3, #2
  40024e:	d007      	beq.n	400260 <ili93xx_write_ram_prepare+0x1c>
  400250:	4770      	bx	lr
/** Define EBI access for ILI93xx 8-bit System Interface.*/
#if defined(BOARD_ILI93XX_ADDR) && defined (BOARD_ILI93XX_RS)
static inline void LCD_IR(uint8_t lcd_index)
{
	/** ILI93XX index register address */
	*((volatile uint8_t *)(BOARD_ILI93XX_ADDR)) = lcd_index;
  400252:	f04f 43c2 	mov.w	r3, #1627389952	; 0x61000000
  400256:	2200      	movs	r2, #0
  400258:	701a      	strb	r2, [r3, #0]
  40025a:	2222      	movs	r2, #34	; 0x22
  40025c:	701a      	strb	r2, [r3, #0]
  40025e:	4770      	bx	lr
  400260:	f04f 43c2 	mov.w	r3, #1627389952	; 0x61000000
  400264:	222c      	movs	r2, #44	; 0x2c
  400266:	701a      	strb	r2, [r3, #0]
  400268:	2200      	movs	r2, #0
  40026a:	701a      	strb	r2, [r3, #0]
  40026c:	223c      	movs	r2, #60	; 0x3c
  40026e:	701a      	strb	r2, [r3, #0]
		/** memory write command (R2Ch)*/
		LCD_IR(ILI9341_CMD_MEMORY_WRITE);
		LCD_IR(0);
		LCD_IR(ILI9341_CMD_WRITE_MEMORY_CONTINUE);
	}
}
  400270:	e7ee      	b.n	400250 <ili93xx_write_ram_prepare+0xc>
  400272:	bf00      	nop
  400274:	200009e4 	.word	0x200009e4

00400278 <ili93xx_write_ram>:
 *
 * \param ul_color 24-bits RGB color.
 */
static void ili93xx_write_ram(ili93xx_color_t ul_color)
{
	LCD_WD((ul_color >> 16) & 0xFF);
  400278:	f3c0 4207 	ubfx	r2, r0, #16, #8
}

static inline void LCD_WD(uint8_t lcd_data)
{
	*((volatile uint8_t *)((BOARD_ILI93XX_ADDR) | (BOARD_ILI93XX_RS))) =
  40027c:	4b03      	ldr	r3, [pc, #12]	; (40028c <ili93xx_write_ram+0x14>)
  40027e:	701a      	strb	r2, [r3, #0]
	LCD_WD((ul_color >> 8) & 0xFF);
  400280:	f3c0 2207 	ubfx	r2, r0, #8, #8
  400284:	701a      	strb	r2, [r3, #0]
	LCD_WD(ul_color & 0xFF);
  400286:	b2c0      	uxtb	r0, r0
  400288:	7018      	strb	r0, [r3, #0]
  40028a:	4770      	bx	lr
  40028c:	61000002 	.word	0x61000002

00400290 <ili93xx_write_ram_buffer>:
 * \param p_ul_buf data buffer.
 * \param ul_size size in pixels.
 */
static void ili93xx_write_ram_buffer(const ili93xx_color_t *p_ul_buf,
		uint32_t ul_size)
{
  400290:	e92d 43f8 	stmdb	sp!, {r3, r4, r5, r6, r7, r8, r9, lr}
  400294:	4607      	mov	r7, r0
  400296:	4688      	mov	r8, r1
	uint32_t ul_addr;
	for (ul_addr = 0; ul_addr < (ul_size - ul_size % 8); ul_addr += 8) {
  400298:	f031 0907 	bics.w	r9, r1, #7
  40029c:	d023      	beq.n	4002e6 <ili93xx_write_ram_buffer+0x56>
  40029e:	4604      	mov	r4, r0
  4002a0:	2600      	movs	r6, #0
		ili93xx_write_ram(p_ul_buf[ul_addr]);
  4002a2:	4d12      	ldr	r5, [pc, #72]	; (4002ec <ili93xx_write_ram_buffer+0x5c>)
  4002a4:	6820      	ldr	r0, [r4, #0]
  4002a6:	47a8      	blx	r5
		ili93xx_write_ram(p_ul_buf[ul_addr + 1]);
  4002a8:	6860      	ldr	r0, [r4, #4]
  4002aa:	47a8      	blx	r5
		ili93xx_write_ram(p_ul_buf[ul_addr + 2]);
  4002ac:	68a0      	ldr	r0, [r4, #8]
  4002ae:	47a8      	blx	r5
		ili93xx_write_ram(p_ul_buf[ul_addr + 3]);
  4002b0:	68e0      	ldr	r0, [r4, #12]
  4002b2:	47a8      	blx	r5
		ili93xx_write_ram(p_ul_buf[ul_addr + 4]);
  4002b4:	6920      	ldr	r0, [r4, #16]
  4002b6:	47a8      	blx	r5
		ili93xx_write_ram(p_ul_buf[ul_addr + 5]);
  4002b8:	6960      	ldr	r0, [r4, #20]
  4002ba:	47a8      	blx	r5
		ili93xx_write_ram(p_ul_buf[ul_addr + 6]);
  4002bc:	69a0      	ldr	r0, [r4, #24]
  4002be:	47a8      	blx	r5
		ili93xx_write_ram(p_ul_buf[ul_addr + 7]);
  4002c0:	69e0      	ldr	r0, [r4, #28]
  4002c2:	47a8      	blx	r5
	for (ul_addr = 0; ul_addr < (ul_size - ul_size % 8); ul_addr += 8) {
  4002c4:	3608      	adds	r6, #8
  4002c6:	3420      	adds	r4, #32
  4002c8:	454e      	cmp	r6, r9
  4002ca:	d3eb      	bcc.n	4002a4 <ili93xx_write_ram_buffer+0x14>
	}
	for (; ul_addr < ul_size; ul_addr++) {
  4002cc:	4546      	cmp	r6, r8
  4002ce:	d208      	bcs.n	4002e2 <ili93xx_write_ram_buffer+0x52>
  4002d0:	eb07 0786 	add.w	r7, r7, r6, lsl #2
		ili93xx_write_ram(p_ul_buf[ul_addr]);
  4002d4:	4d05      	ldr	r5, [pc, #20]	; (4002ec <ili93xx_write_ram_buffer+0x5c>)
  4002d6:	f857 0b04 	ldr.w	r0, [r7], #4
  4002da:	47a8      	blx	r5
	for (; ul_addr < ul_size; ul_addr++) {
  4002dc:	3601      	adds	r6, #1
  4002de:	45b0      	cmp	r8, r6
  4002e0:	d1f9      	bne.n	4002d6 <ili93xx_write_ram_buffer+0x46>
  4002e2:	e8bd 83f8 	ldmia.w	sp!, {r3, r4, r5, r6, r7, r8, r9, pc}
	for (ul_addr = 0; ul_addr < (ul_size - ul_size % 8); ul_addr += 8) {
  4002e6:	464e      	mov	r6, r9
  4002e8:	e7f0      	b.n	4002cc <ili93xx_write_ram_buffer+0x3c>
  4002ea:	bf00      	nop
  4002ec:	00400279 	.word	0x00400279

004002f0 <ili93xx_write_register_word>:
	*((volatile uint8_t *)(BOARD_ILI93XX_ADDR)) = lcd_index;
  4002f0:	f04f 43c2 	mov.w	r3, #1627389952	; 0x61000000
  4002f4:	2200      	movs	r2, #0
  4002f6:	701a      	strb	r2, [r3, #0]
  4002f8:	7018      	strb	r0, [r3, #0]
 */
static void ili93xx_write_register_word(uint8_t uc_reg, uint16_t us_data)
{
	LCD_IR(0);
	LCD_IR(uc_reg);
	LCD_WD((us_data >> 8) & 0xFF);
  4002fa:	0a0a      	lsrs	r2, r1, #8
	*((volatile uint8_t *)((BOARD_ILI93XX_ADDR) | (BOARD_ILI93XX_RS))) =
  4002fc:	3302      	adds	r3, #2
  4002fe:	701a      	strb	r2, [r3, #0]
	LCD_WD(us_data & 0xFF);
  400300:	b2c9      	uxtb	r1, r1
  400302:	7019      	strb	r1, [r3, #0]
  400304:	4770      	bx	lr
	...

00400308 <ili93xx_write_register>:
 * \param uc_reg register address.
 * \param us_data data to be written.
 */
static void ili93xx_write_register(uint8_t uc_reg, uint8_t *p_data,
		uint8_t uc_datacnt)
{
  400308:	b410      	push	{r4}
	*((volatile uint8_t *)(BOARD_ILI93XX_ADDR)) = lcd_index;
  40030a:	f04f 43c2 	mov.w	r3, #1627389952	; 0x61000000
  40030e:	2400      	movs	r4, #0
  400310:	701c      	strb	r4, [r3, #0]
  400312:	7018      	strb	r0, [r3, #0]
	LCD_IR(0);
	LCD_IR(uc_reg);
	for (uint8_t i = 0; i < uc_datacnt; i++) {
  400314:	b14a      	cbz	r2, 40032a <ili93xx_write_register+0x22>
  400316:	1e4b      	subs	r3, r1, #1
  400318:	1e50      	subs	r0, r2, #1
  40031a:	fa51 f180 	uxtab	r1, r1, r0
	*((volatile uint8_t *)((BOARD_ILI93XX_ADDR) | (BOARD_ILI93XX_RS))) =
  40031e:	4804      	ldr	r0, [pc, #16]	; (400330 <ili93xx_write_register+0x28>)
		LCD_WD(p_data[i]);
  400320:	f813 2f01 	ldrb.w	r2, [r3, #1]!
  400324:	7002      	strb	r2, [r0, #0]
	for (uint8_t i = 0; i < uc_datacnt; i++) {
  400326:	428b      	cmp	r3, r1
  400328:	d1fa      	bne.n	400320 <ili93xx_write_register+0x18>
	}
}
  40032a:	bc10      	pop	{r4}
  40032c:	4770      	bx	lr
  40032e:	bf00      	nop
  400330:	61000002 	.word	0x61000002

00400334 <ili93xx_delay>:

/**
 * \brief Delay function.
 */
static void ili93xx_delay(uint32_t ul_ms)
{
  400334:	b082      	sub	sp, #8
	volatile uint32_t i;

	for (i = 0; i < ul_ms; i++) {
  400336:	2300      	movs	r3, #0
  400338:	9301      	str	r3, [sp, #4]
  40033a:	9b01      	ldr	r3, [sp, #4]
  40033c:	4298      	cmp	r0, r3
  40033e:	d911      	bls.n	400364 <ili93xx_delay+0x30>
		for (i = 0; i < 100000; i++) {
  400340:	2100      	movs	r1, #0
  400342:	4a09      	ldr	r2, [pc, #36]	; (400368 <ili93xx_delay+0x34>)
  400344:	9101      	str	r1, [sp, #4]
  400346:	9b01      	ldr	r3, [sp, #4]
  400348:	4293      	cmp	r3, r2
  40034a:	d805      	bhi.n	400358 <ili93xx_delay+0x24>
  40034c:	9b01      	ldr	r3, [sp, #4]
  40034e:	3301      	adds	r3, #1
  400350:	9301      	str	r3, [sp, #4]
  400352:	9b01      	ldr	r3, [sp, #4]
  400354:	4293      	cmp	r3, r2
  400356:	d9f9      	bls.n	40034c <ili93xx_delay+0x18>
	for (i = 0; i < ul_ms; i++) {
  400358:	9b01      	ldr	r3, [sp, #4]
  40035a:	3301      	adds	r3, #1
  40035c:	9301      	str	r3, [sp, #4]
  40035e:	9b01      	ldr	r3, [sp, #4]
  400360:	4283      	cmp	r3, r0
  400362:	d3ef      	bcc.n	400344 <ili93xx_delay+0x10>
		}
	}
}
  400364:	b002      	add	sp, #8
  400366:	4770      	bx	lr
  400368:	0001869f 	.word	0x0001869f

0040036c <ili93xx_check_box_coordinates>:
 * \param p_ul_x2 X coordinate of lower-right corner on LCD.
 * \param p_ul_y2 Y coordinate of lower-right corner on LCD.
 */
static void ili93xx_check_box_coordinates(uint32_t *p_ul_x1, uint32_t *p_ul_y1,
		uint32_t *p_ul_x2, uint32_t *p_ul_y2)
{
  40036c:	b430      	push	{r4, r5}
	uint32_t dw;

	if (*p_ul_x1 >= g_ul_lcd_x_length) {
  40036e:	4c15      	ldr	r4, [pc, #84]	; (4003c4 <ili93xx_check_box_coordinates+0x58>)
  400370:	6824      	ldr	r4, [r4, #0]
  400372:	6805      	ldr	r5, [r0, #0]
  400374:	42a5      	cmp	r5, r4
		*p_ul_x1 = g_ul_lcd_x_length - 1;
  400376:	bf24      	itt	cs
  400378:	f104 35ff 	addcs.w	r5, r4, #4294967295
  40037c:	6005      	strcs	r5, [r0, #0]
	}

	if (*p_ul_x2 >= g_ul_lcd_x_length) {
  40037e:	6815      	ldr	r5, [r2, #0]
  400380:	42ac      	cmp	r4, r5
		*p_ul_x2 = g_ul_lcd_x_length - 1;
  400382:	bf9c      	itt	ls
  400384:	f104 34ff 	addls.w	r4, r4, #4294967295
  400388:	6014      	strls	r4, [r2, #0]
	}

	if (*p_ul_y1 >= g_ul_lcd_y_length) {
  40038a:	4c0f      	ldr	r4, [pc, #60]	; (4003c8 <ili93xx_check_box_coordinates+0x5c>)
  40038c:	6824      	ldr	r4, [r4, #0]
  40038e:	680d      	ldr	r5, [r1, #0]
  400390:	42a5      	cmp	r5, r4
		*p_ul_y1 = g_ul_lcd_y_length - 1;
  400392:	bf24      	itt	cs
  400394:	f104 35ff 	addcs.w	r5, r4, #4294967295
  400398:	600d      	strcs	r5, [r1, #0]
	}

	if (*p_ul_y2 >= g_ul_lcd_y_length) {
  40039a:	681d      	ldr	r5, [r3, #0]
  40039c:	42ac      	cmp	r4, r5
		*p_ul_y2 = g_ul_lcd_y_length - 1;
  40039e:	bf9c      	itt	ls
  4003a0:	f104 34ff 	addls.w	r4, r4, #4294967295
  4003a4:	601c      	strls	r4, [r3, #0]
	}

	if (*p_ul_x1 > *p_ul_x2) {
  4003a6:	6804      	ldr	r4, [r0, #0]
  4003a8:	6815      	ldr	r5, [r2, #0]
  4003aa:	42ac      	cmp	r4, r5
		dw = *p_ul_x1;
		*p_ul_x1 = *p_ul_x2;
  4003ac:	bf84      	itt	hi
  4003ae:	6005      	strhi	r5, [r0, #0]
		*p_ul_x2 = dw;
  4003b0:	6014      	strhi	r4, [r2, #0]
	}

	if (*p_ul_y1 > *p_ul_y2) {
  4003b2:	680a      	ldr	r2, [r1, #0]
  4003b4:	6818      	ldr	r0, [r3, #0]
  4003b6:	4282      	cmp	r2, r0
		dw = *p_ul_y1;
		*p_ul_y1 = *p_ul_y2;
  4003b8:	bf84      	itt	hi
  4003ba:	6008      	strhi	r0, [r1, #0]
		*p_ul_y2 = dw;
  4003bc:	601a      	strhi	r2, [r3, #0]
	}
}
  4003be:	bc30      	pop	{r4, r5}
  4003c0:	4770      	bx	lr
  4003c2:	bf00      	nop
  4003c4:	20000000 	.word	0x20000000
  4003c8:	20000004 	.word	0x20000004

004003cc <ili93xx_device_type_identify>:
 *        ILI9341 device ID locates in Read ID4 (RD3h) register.
 *
 * \return 0 if secceed in identifying device; otherwise fails.
 */
uint8_t ili93xx_device_type_identify(void)
{
  4003cc:	b082      	sub	sp, #8
	*((volatile uint8_t *)(BOARD_ILI93XX_ADDR)) = lcd_index;
  4003ce:	f04f 43c2 	mov.w	r3, #1627389952	; 0x61000000
  4003d2:	2200      	movs	r2, #0
  4003d4:	701a      	strb	r2, [r3, #0]
  4003d6:	22d3      	movs	r2, #211	; 0xd3
  4003d8:	701a      	strb	r2, [r3, #0]
																lcd_data;
}

static inline uint8_t LCD_RD(void)
{
	return *((volatile uint8_t *)((BOARD_ILI93XX_ADDR) |(BOARD_ILI93XX_RS)));
  4003da:	491a      	ldr	r1, [pc, #104]	; (400444 <ili93xx_device_type_identify+0x78>)
  4003dc:	780b      	ldrb	r3, [r1, #0]
		p_data[i] = LCD_RD();
  4003de:	f88d 3000 	strb.w	r3, [sp]
  4003e2:	780b      	ldrb	r3, [r1, #0]
  4003e4:	f88d 3001 	strb.w	r3, [sp, #1]
  4003e8:	780b      	ldrb	r3, [r1, #0]
  4003ea:	b2da      	uxtb	r2, r3
  4003ec:	f88d 2002 	strb.w	r2, [sp, #2]
  4003f0:	780b      	ldrb	r3, [r1, #0]
  4003f2:	b2db      	uxtb	r3, r3
  4003f4:	f88d 3003 	strb.w	r3, [sp, #3]
	uint8_t paratable[6];
	uint16_t chipid;

	/** Read ID4 (RD4h) register to get device code for ILI9341*/
	ili93xx_read_register(ILI9341_CMD_READ_ID4, paratable, 4);
	chipid = ((uint16_t)paratable[2] << 8) + paratable[3];
  4003f8:	eb03 2302 	add.w	r3, r3, r2, lsl #8

	if (chipid == ILI9341_DEVICE_CODE) {
  4003fc:	b29b      	uxth	r3, r3
  4003fe:	f249 3241 	movw	r2, #37697	; 0x9341
  400402:	4293      	cmp	r3, r2
  400404:	d014      	beq.n	400430 <ili93xx_device_type_identify+0x64>
	*((volatile uint8_t *)(BOARD_ILI93XX_ADDR)) = lcd_index;
  400406:	f04f 43c2 	mov.w	r3, #1627389952	; 0x61000000
  40040a:	2200      	movs	r2, #0
  40040c:	701a      	strb	r2, [r3, #0]
  40040e:	701a      	strb	r2, [r3, #0]
	return *((volatile uint8_t *)((BOARD_ILI93XX_ADDR) |(BOARD_ILI93XX_RS)));
  400410:	490c      	ldr	r1, [pc, #48]	; (400444 <ili93xx_device_type_identify+0x78>)
  400412:	780b      	ldrb	r3, [r1, #0]
  400414:	b2da      	uxtb	r2, r3
		p_data[i] = LCD_RD();
  400416:	f88d 2000 	strb.w	r2, [sp]
  40041a:	780b      	ldrb	r3, [r1, #0]
		return 0;
	}

	/** Driver Code Read (R00h) for ILI9325*/
	ili93xx_read_register(ILI9325_DEVICE_CODE_REG, paratable, 2);
	chipid = ((uint16_t)paratable[0] << 8) + paratable[1];
  40041c:	eb03 2302 	add.w	r3, r3, r2, lsl #8
	if (chipid == ILI9325_DEVICE_CODE) {
  400420:	b29b      	uxth	r3, r3
  400422:	f249 3225 	movw	r2, #37669	; 0x9325
  400426:	4293      	cmp	r3, r2
  400428:	d007      	beq.n	40043a <ili93xx_device_type_identify+0x6e>
		g_uc_device_type = DEVICE_TYPE_ILI9325;
		return 0;
	}

	return 1;
  40042a:	2001      	movs	r0, #1
}
  40042c:	b002      	add	sp, #8
  40042e:	4770      	bx	lr
		g_uc_device_type = DEVICE_TYPE_ILI9341;
  400430:	2202      	movs	r2, #2
  400432:	4b05      	ldr	r3, [pc, #20]	; (400448 <ili93xx_device_type_identify+0x7c>)
  400434:	701a      	strb	r2, [r3, #0]
		return 0;
  400436:	2000      	movs	r0, #0
  400438:	e7f8      	b.n	40042c <ili93xx_device_type_identify+0x60>
		g_uc_device_type = DEVICE_TYPE_ILI9325;
  40043a:	2201      	movs	r2, #1
  40043c:	4b02      	ldr	r3, [pc, #8]	; (400448 <ili93xx_device_type_identify+0x7c>)
  40043e:	701a      	strb	r2, [r3, #0]
		return 0;
  400440:	2000      	movs	r0, #0
  400442:	e7f3      	b.n	40042c <ili93xx_device_type_identify+0x60>
  400444:	61000002 	.word	0x61000002
  400448:	200009e4 	.word	0x200009e4

0040044c <ili93xx_display_on>:

/**
 * \brief Turn on the LCD.
 */
void ili93xx_display_on(void)
{
  40044c:	b508      	push	{r3, lr}
	if (g_uc_device_type == DEVICE_TYPE_ILI9325) {
  40044e:	4b09      	ldr	r3, [pc, #36]	; (400474 <ili93xx_display_on+0x28>)
  400450:	781b      	ldrb	r3, [r3, #0]
  400452:	2b01      	cmp	r3, #1
  400454:	d002      	beq.n	40045c <ili93xx_display_on+0x10>
		ili93xx_write_register_word(ILI9325_DISP_CTRL1,
				ILI9325_DISP_CTRL1_BASEE |
				ILI9325_DISP_CTRL1_GON |
				ILI9325_DISP_CTRL1_DTE |
				ILI9325_DISP_CTRL1_D(0x03));
	} else if (g_uc_device_type == DEVICE_TYPE_ILI9341) {
  400456:	2b02      	cmp	r3, #2
  400458:	d006      	beq.n	400468 <ili93xx_display_on+0x1c>
  40045a:	bd08      	pop	{r3, pc}
		ili93xx_write_register_word(ILI9325_DISP_CTRL1,
  40045c:	f240 1133 	movw	r1, #307	; 0x133
  400460:	2007      	movs	r0, #7
  400462:	4b05      	ldr	r3, [pc, #20]	; (400478 <ili93xx_display_on+0x2c>)
  400464:	4798      	blx	r3
  400466:	bd08      	pop	{r3, pc}
		ili93xx_write_register(ILI9341_CMD_DISPLAY_ON, NULL, 0);
  400468:	2200      	movs	r2, #0
  40046a:	4611      	mov	r1, r2
  40046c:	2029      	movs	r0, #41	; 0x29
  40046e:	4b03      	ldr	r3, [pc, #12]	; (40047c <ili93xx_display_on+0x30>)
  400470:	4798      	blx	r3
	}
}
  400472:	e7f2      	b.n	40045a <ili93xx_display_on+0xe>
  400474:	200009e4 	.word	0x200009e4
  400478:	004002f1 	.word	0x004002f1
  40047c:	00400309 	.word	0x00400309

00400480 <ili93xx_set_foreground_color>:
 * \brief Set foreground color.
 *
 * \param ul_color foreground color.
 */
void ili93xx_set_foreground_color(ili93xx_color_t ul_color)
{
  400480:	4a04      	ldr	r2, [pc, #16]	; (400494 <ili93xx_set_foreground_color+0x14>)
  400482:	1f13      	subs	r3, r2, #4
  400484:	f502 726f 	add.w	r2, r2, #956	; 0x3bc
	uint32_t i;

	/** Fill the cache with selected color */
	for (i = 0; i < LCD_DATA_CACHE_SIZE; ++i) {
		g_ul_pixel_cache[i] = ul_color;
  400488:	f843 0f04 	str.w	r0, [r3, #4]!
	for (i = 0; i < LCD_DATA_CACHE_SIZE; ++i) {
  40048c:	4293      	cmp	r3, r2
  40048e:	d1fb      	bne.n	400488 <ili93xx_set_foreground_color+0x8>
	}
}
  400490:	4770      	bx	lr
  400492:	bf00      	nop
  400494:	200009e8 	.word	0x200009e8

00400498 <ili93xx_set_window>:
 * \param ul_width The width of the window.
 * \param ul_height The height of the window.
 */
void ili93xx_set_window(uint32_t ul_x, uint32_t ul_y, uint32_t ul_width,
		uint32_t ul_height)
{
  400498:	e92d 41f0 	stmdb	sp!, {r4, r5, r6, r7, r8, lr}
  40049c:	b082      	sub	sp, #8
  40049e:	460c      	mov	r4, r1
  4004a0:	4617      	mov	r7, r2
  4004a2:	461e      	mov	r6, r3
	Assert(ul_x <= (g_ul_lcd_x_length - 1));
	Assert(ul_y <= (g_ul_lcd_y_length - 1));
	Assert(ul_width <= (g_ul_lcd_x_length - ul_x));
	Assert(ul_height <= (g_ul_lcd_y_length - ul_y));
	if (g_uc_device_type == DEVICE_TYPE_ILI9325) {
  4004a4:	4b23      	ldr	r3, [pc, #140]	; (400534 <ili93xx_set_window+0x9c>)
  4004a6:	781b      	ldrb	r3, [r3, #0]
  4004a8:	2b01      	cmp	r3, #1
  4004aa:	d004      	beq.n	4004b6 <ili93xx_set_window+0x1e>
				(uint16_t)ul_y);

		/** Set Vertical Address End Position */
		ili93xx_write_register_word(ILI9325_VERTICAL_ADDR_END,
				(uint16_t)(ul_y + ul_height - 1));
	} else if (g_uc_device_type == DEVICE_TYPE_ILI9341) {
  4004ac:	2b02      	cmp	r3, #2
  4004ae:	d017      	beq.n	4004e0 <ili93xx_set_window+0x48>
		paratable[2] = ((ul_y + ul_height - 1) >> 8) & 0xFF;
		paratable[3] = (ul_y + ul_height - 1) & 0xFF;
		ili93xx_write_register(ILI9341_CMD_PAGE_ADDRESS_SET,
				       paratable, 4);
	}
}
  4004b0:	b002      	add	sp, #8
  4004b2:	e8bd 81f0 	ldmia.w	sp!, {r4, r5, r6, r7, r8, pc}
		ili93xx_write_register_word(ILI9325_HORIZONTAL_ADDR_START,
  4004b6:	b285      	uxth	r5, r0
  4004b8:	4629      	mov	r1, r5
  4004ba:	2050      	movs	r0, #80	; 0x50
  4004bc:	f8df 807c 	ldr.w	r8, [pc, #124]	; 40053c <ili93xx_set_window+0xa4>
  4004c0:	47c0      	blx	r8
		ili93xx_write_register_word(ILI9325_HORIZONTAL_ADDR_END,
  4004c2:	1e78      	subs	r0, r7, #1
  4004c4:	4428      	add	r0, r5
  4004c6:	b281      	uxth	r1, r0
  4004c8:	2051      	movs	r0, #81	; 0x51
  4004ca:	47c0      	blx	r8
		ili93xx_write_register_word(ILI9325_VERTICAL_ADDR_START,
  4004cc:	b2a4      	uxth	r4, r4
  4004ce:	4621      	mov	r1, r4
  4004d0:	2052      	movs	r0, #82	; 0x52
  4004d2:	47c0      	blx	r8
		ili93xx_write_register_word(ILI9325_VERTICAL_ADDR_END,
  4004d4:	3e01      	subs	r6, #1
  4004d6:	4434      	add	r4, r6
  4004d8:	b2a1      	uxth	r1, r4
  4004da:	2053      	movs	r0, #83	; 0x53
  4004dc:	47c0      	blx	r8
  4004de:	e7e7      	b.n	4004b0 <ili93xx_set_window+0x18>
		paratable[0] = (ul_x >> 8) & 0xFF;
  4004e0:	0a03      	lsrs	r3, r0, #8
  4004e2:	f88d 3004 	strb.w	r3, [sp, #4]
		paratable[1] = ul_x & 0xFF;
  4004e6:	b2c2      	uxtb	r2, r0
  4004e8:	f88d 2005 	strb.w	r2, [sp, #5]
		paratable[2] = ((ul_x + ul_width - 1) >> 8) & 0xFF;
  4004ec:	1e7b      	subs	r3, r7, #1
  4004ee:	4418      	add	r0, r3
  4004f0:	0a00      	lsrs	r0, r0, #8
  4004f2:	f88d 0006 	strb.w	r0, [sp, #6]
		paratable[3] = (ul_x + ul_width - 1) & 0xFF;
  4004f6:	461f      	mov	r7, r3
  4004f8:	4417      	add	r7, r2
  4004fa:	f88d 7007 	strb.w	r7, [sp, #7]
		ili93xx_write_register(ILI9341_CMD_COLUMN_ADDRESS_SET,
  4004fe:	2204      	movs	r2, #4
  400500:	eb0d 0102 	add.w	r1, sp, r2
  400504:	202a      	movs	r0, #42	; 0x2a
  400506:	4d0c      	ldr	r5, [pc, #48]	; (400538 <ili93xx_set_window+0xa0>)
  400508:	47a8      	blx	r5
		paratable[0] = (ul_y >> 8) & 0xFF;
  40050a:	0a23      	lsrs	r3, r4, #8
  40050c:	f88d 3004 	strb.w	r3, [sp, #4]
		paratable[1] = ul_y & 0xFF;
  400510:	b2e2      	uxtb	r2, r4
  400512:	f88d 2005 	strb.w	r2, [sp, #5]
		paratable[2] = ((ul_y + ul_height - 1) >> 8) & 0xFF;
  400516:	1e73      	subs	r3, r6, #1
  400518:	441c      	add	r4, r3
  40051a:	0a24      	lsrs	r4, r4, #8
  40051c:	f88d 4006 	strb.w	r4, [sp, #6]
		paratable[3] = (ul_y + ul_height - 1) & 0xFF;
  400520:	461e      	mov	r6, r3
  400522:	4416      	add	r6, r2
  400524:	f88d 6007 	strb.w	r6, [sp, #7]
		ili93xx_write_register(ILI9341_CMD_PAGE_ADDRESS_SET,
  400528:	2204      	movs	r2, #4
  40052a:	eb0d 0102 	add.w	r1, sp, r2
  40052e:	202b      	movs	r0, #43	; 0x2b
  400530:	47a8      	blx	r5
}
  400532:	e7bd      	b.n	4004b0 <ili93xx_set_window+0x18>
  400534:	200009e4 	.word	0x200009e4
  400538:	00400309 	.word	0x00400309
  40053c:	004002f1 	.word	0x004002f1

00400540 <ili93xx_set_cursor_position>:
 *
 * \param us_x X coordinate of upper-left corner on LCD.
 * \param us_y Y coordinate of upper-left corner on LCD.
 */
void ili93xx_set_cursor_position(uint16_t us_x, uint16_t us_y)
{
  400540:	b538      	push	{r3, r4, r5, lr}
	if (g_uc_device_type == DEVICE_TYPE_ILI9325) {
  400542:	4b07      	ldr	r3, [pc, #28]	; (400560 <ili93xx_set_cursor_position+0x20>)
  400544:	781b      	ldrb	r3, [r3, #0]
  400546:	2b01      	cmp	r3, #1
  400548:	d000      	beq.n	40054c <ili93xx_set_cursor_position+0xc>
  40054a:	bd38      	pop	{r3, r4, r5, pc}
  40054c:	460c      	mov	r4, r1
  40054e:	4601      	mov	r1, r0
		/** GRAM Horizontal/Vertical Address Set (R20h, R21h) */
		ili93xx_write_register_word(ILI9325_HORIZONTAL_GRAM_ADDR_SET, us_x);
  400550:	2020      	movs	r0, #32
  400552:	4d04      	ldr	r5, [pc, #16]	; (400564 <ili93xx_set_cursor_position+0x24>)
  400554:	47a8      	blx	r5
		ili93xx_write_register_word(ILI9325_VERTICAL_GRAM_ADDR_SET, us_y);
  400556:	4621      	mov	r1, r4
  400558:	2021      	movs	r0, #33	; 0x21
  40055a:	47a8      	blx	r5
	} else if (g_uc_device_type == DEVICE_TYPE_ILI9341) {
		/** There is no corresponding operation for ILI9341. */
	}
}
  40055c:	e7f5      	b.n	40054a <ili93xx_set_cursor_position+0xa>
  40055e:	bf00      	nop
  400560:	200009e4 	.word	0x200009e4
  400564:	004002f1 	.word	0x004002f1

00400568 <ili93xx_init>:
{
  400568:	e92d 43f0 	stmdb	sp!, {r4, r5, r6, r7, r8, r9, lr}
  40056c:	b083      	sub	sp, #12
  40056e:	4606      	mov	r6, r0
	if (ili93xx_device_type_identify() != 0) {
  400570:	4bac      	ldr	r3, [pc, #688]	; (400824 <ili93xx_init+0x2bc>)
  400572:	4798      	blx	r3
  400574:	2800      	cmp	r0, #0
  400576:	f040 8152 	bne.w	40081e <ili93xx_init+0x2b6>
	g_ul_lcd_x_length = ILI93XX_LCD_WIDTH;
  40057a:	22f0      	movs	r2, #240	; 0xf0
  40057c:	4baa      	ldr	r3, [pc, #680]	; (400828 <ili93xx_init+0x2c0>)
  40057e:	601a      	str	r2, [r3, #0]
	g_ul_lcd_y_length = ILI93XX_LCD_HEIGHT;
  400580:	f44f 72a0 	mov.w	r2, #320	; 0x140
  400584:	4ba9      	ldr	r3, [pc, #676]	; (40082c <ili93xx_init+0x2c4>)
  400586:	601a      	str	r2, [r3, #0]
	if (g_uc_device_type == DEVICE_TYPE_ILI9325) {
  400588:	4ba9      	ldr	r3, [pc, #676]	; (400830 <ili93xx_init+0x2c8>)
  40058a:	781b      	ldrb	r3, [r3, #0]
  40058c:	2b01      	cmp	r3, #1
  40058e:	d006      	beq.n	40059e <ili93xx_init+0x36>
	} else if (g_uc_device_type == DEVICE_TYPE_ILI9341) {
  400590:	2b02      	cmp	r3, #2
  400592:	f000 80b5 	beq.w	400700 <ili93xx_init+0x198>
		return 1;
  400596:	2001      	movs	r0, #1
}
  400598:	b003      	add	sp, #12
  40059a:	e8bd 83f0 	ldmia.w	sp!, {r4, r5, r6, r7, r8, r9, pc}
		ili93xx_write_register_word(ILI9325_DISP_CTRL1, ILI9325_DISP_CTRL1_GON |
  40059e:	2133      	movs	r1, #51	; 0x33
  4005a0:	2007      	movs	r0, #7
  4005a2:	4ca4      	ldr	r4, [pc, #656]	; (400834 <ili93xx_init+0x2cc>)
  4005a4:	47a0      	blx	r4
		ili93xx_write_register_word(ILI9325_POWER_CTRL1, 0x0000);
  4005a6:	2100      	movs	r1, #0
  4005a8:	2010      	movs	r0, #16
  4005aa:	47a0      	blx	r4
		ili93xx_write_register_word(ILI9325_START_OSC_CTRL,
  4005ac:	2101      	movs	r1, #1
  4005ae:	2000      	movs	r0, #0
  4005b0:	47a0      	blx	r4
		ili93xx_write_register_word(ILI9325_DRIVER_OUTPUT_CTRL1,
  4005b2:	f44f 7180 	mov.w	r1, #256	; 0x100
  4005b6:	2001      	movs	r0, #1
  4005b8:	47a0      	blx	r4
		ili93xx_write_register_word(ILI9325_LCD_DRIVING_CTRL,
  4005ba:	f44f 61e0 	mov.w	r1, #1792	; 0x700
  4005be:	2002      	movs	r0, #2
  4005c0:	47a0      	blx	r4
		ili93xx_write_register_word(ILI9325_RESIZE_CTRL, 0x0000);
  4005c2:	2100      	movs	r1, #0
  4005c4:	2004      	movs	r0, #4
  4005c6:	47a0      	blx	r4
		ili93xx_write_register_word(ILI9325_DISP_CTRL2,
  4005c8:	f240 2107 	movw	r1, #519	; 0x207
  4005cc:	2008      	movs	r0, #8
  4005ce:	47a0      	blx	r4
		ili93xx_write_register_word(ILI9325_DISP_CTRL3, 0x0000);
  4005d0:	2100      	movs	r1, #0
  4005d2:	2009      	movs	r0, #9
  4005d4:	47a0      	blx	r4
		ili93xx_write_register_word(ILI9325_DISP_CTRL4, 0x0000);
  4005d6:	2100      	movs	r1, #0
  4005d8:	200a      	movs	r0, #10
  4005da:	47a0      	blx	r4
		ili93xx_write_register_word(ILI9325_RGB_DISP_INTERFACE_CTRL1,
  4005dc:	2100      	movs	r1, #0
  4005de:	200c      	movs	r0, #12
  4005e0:	47a0      	blx	r4
		ili93xx_write_register_word(ILI9325_FRAME_MAKER_POS, 0x0000);
  4005e2:	2100      	movs	r1, #0
  4005e4:	200d      	movs	r0, #13
  4005e6:	47a0      	blx	r4
		ili93xx_write_register_word(ILI9325_RGB_DISP_INTERFACE_CTRL2,
  4005e8:	2100      	movs	r1, #0
  4005ea:	200f      	movs	r0, #15
  4005ec:	47a0      	blx	r4
		ili93xx_write_register_word(ILI9325_POWER_CTRL1, 0x0000);
  4005ee:	2100      	movs	r1, #0
  4005f0:	2010      	movs	r0, #16
  4005f2:	47a0      	blx	r4
		ili93xx_write_register_word(ILI9325_POWER_CTRL2, 0x0000);
  4005f4:	2100      	movs	r1, #0
  4005f6:	2011      	movs	r0, #17
  4005f8:	47a0      	blx	r4
		ili93xx_write_register_word(ILI9325_POWER_CTRL3, 0x0000);
  4005fa:	2100      	movs	r1, #0
  4005fc:	2012      	movs	r0, #18
  4005fe:	47a0      	blx	r4
		ili93xx_write_register_word(ILI9325_POWER_CTRL4, 0x0000);
  400600:	2100      	movs	r1, #0
  400602:	2013      	movs	r0, #19
  400604:	47a0      	blx	r4
		ili93xx_delay(200);
  400606:	20c8      	movs	r0, #200	; 0xc8
  400608:	4d8b      	ldr	r5, [pc, #556]	; (400838 <ili93xx_init+0x2d0>)
  40060a:	47a8      	blx	r5
		ili93xx_write_register_word(ILI9325_POWER_CTRL1,
  40060c:	f241 2190 	movw	r1, #4752	; 0x1290
  400610:	2010      	movs	r0, #16
  400612:	47a0      	blx	r4
		ili93xx_write_register_word(ILI9325_POWER_CTRL2,
  400614:	f240 2127 	movw	r1, #551	; 0x227
  400618:	2011      	movs	r0, #17
  40061a:	47a0      	blx	r4
		ili93xx_delay(50);
  40061c:	2032      	movs	r0, #50	; 0x32
  40061e:	47a8      	blx	r5
		ili93xx_write_register_word(ILI9325_POWER_CTRL3,
  400620:	211b      	movs	r1, #27
  400622:	2012      	movs	r0, #18
  400624:	47a0      	blx	r4
		ili93xx_delay(50);
  400626:	2032      	movs	r0, #50	; 0x32
  400628:	47a8      	blx	r5
		ili93xx_write_register_word(ILI9325_POWER_CTRL4,
  40062a:	f44f 5188 	mov.w	r1, #4352	; 0x1100
  40062e:	2013      	movs	r0, #19
  400630:	47a0      	blx	r4
		ili93xx_write_register_word(ILI9325_POWER_CTRL7,
  400632:	2119      	movs	r1, #25
  400634:	2029      	movs	r0, #41	; 0x29
  400636:	47a0      	blx	r4
		ili93xx_write_register_word(ILI9325_FRAME_RATE_AND_COLOR_CTRL,
  400638:	210d      	movs	r1, #13
  40063a:	202b      	movs	r0, #43	; 0x2b
  40063c:	47a0      	blx	r4
		ili93xx_delay(50);
  40063e:	2032      	movs	r0, #50	; 0x32
  400640:	47a8      	blx	r5
		ili93xx_write_register_word(ILI9325_GAMMA_CTL1, 0x0000);
  400642:	2100      	movs	r1, #0
  400644:	2030      	movs	r0, #48	; 0x30
  400646:	47a0      	blx	r4
		ili93xx_write_register_word(ILI9325_GAMMA_CTL2,
  400648:	f44f 7101 	mov.w	r1, #516	; 0x204
  40064c:	2031      	movs	r0, #49	; 0x31
  40064e:	47a0      	blx	r4
		ili93xx_write_register_word(ILI9325_GAMMA_CTL3,
  400650:	f44f 7100 	mov.w	r1, #512	; 0x200
  400654:	2032      	movs	r0, #50	; 0x32
  400656:	47a0      	blx	r4
		ili93xx_write_register_word(ILI9325_GAMMA_CTL4,
  400658:	2107      	movs	r1, #7
  40065a:	2035      	movs	r0, #53	; 0x35
  40065c:	47a0      	blx	r4
		ili93xx_write_register_word(ILI9325_GAMMA_CTL5,
  40065e:	f241 4104 	movw	r1, #5124	; 0x1404
  400662:	2036      	movs	r0, #54	; 0x36
  400664:	47a0      	blx	r4
		ili93xx_write_register_word(ILI9325_GAMMA_CTL6,
  400666:	f240 7105 	movw	r1, #1797	; 0x705
  40066a:	2037      	movs	r0, #55	; 0x37
  40066c:	47a0      	blx	r4
		ili93xx_write_register_word(ILI9325_GAMMA_CTL7,
  40066e:	f240 3105 	movw	r1, #773	; 0x305
  400672:	2038      	movs	r0, #56	; 0x38
  400674:	47a0      	blx	r4
		ili93xx_write_register_word(ILI9325_GAMMA_CTL8,
  400676:	f240 7107 	movw	r1, #1799	; 0x707
  40067a:	2039      	movs	r0, #57	; 0x39
  40067c:	47a0      	blx	r4
		ili93xx_write_register_word(ILI9325_GAMMA_CTL9,
  40067e:	f240 7101 	movw	r1, #1793	; 0x701
  400682:	203c      	movs	r0, #60	; 0x3c
  400684:	47a0      	blx	r4
		ili93xx_write_register_word(ILI9325_GAMMA_CTL10,
  400686:	210e      	movs	r1, #14
  400688:	203d      	movs	r0, #61	; 0x3d
  40068a:	47a0      	blx	r4
		ili93xx_write_register_word(ILI9325_ENTRY_MODE,
  40068c:	f24d 0110 	movw	r1, #53264	; 0xd010
  400690:	2003      	movs	r0, #3
  400692:	47a0      	blx	r4
		ili93xx_write_register_word(ILI9325_DRIVER_OUTPUT_CTRL2,
  400694:	f44f 4127 	mov.w	r1, #42752	; 0xa700
  400698:	2060      	movs	r0, #96	; 0x60
  40069a:	47a0      	blx	r4
		ili93xx_write_register_word(ILI9325_BASE_IMG_DISP_CTRL,
  40069c:	2101      	movs	r1, #1
  40069e:	2061      	movs	r0, #97	; 0x61
  4006a0:	47a0      	blx	r4
		ili93xx_write_register_word(ILI9325_VERTICAL_SCROLL_CTRL,
  4006a2:	2100      	movs	r1, #0
  4006a4:	206a      	movs	r0, #106	; 0x6a
  4006a6:	47a0      	blx	r4
		ili93xx_write_register_word(ILI9325_PARTIAL_IMG1_DISP_POS,
  4006a8:	2100      	movs	r1, #0
  4006aa:	2080      	movs	r0, #128	; 0x80
  4006ac:	47a0      	blx	r4
		ili93xx_write_register_word(
  4006ae:	2100      	movs	r1, #0
  4006b0:	2081      	movs	r0, #129	; 0x81
  4006b2:	47a0      	blx	r4
		ili93xx_write_register_word(ILI9325_PARTIAL_IMG1_AREA_END_LINE,
  4006b4:	2100      	movs	r1, #0
  4006b6:	2082      	movs	r0, #130	; 0x82
  4006b8:	47a0      	blx	r4
		ili93xx_write_register_word(ILI9325_PARTIAL_IMG2_DISP_POS,
  4006ba:	2100      	movs	r1, #0
  4006bc:	2083      	movs	r0, #131	; 0x83
  4006be:	47a0      	blx	r4
		ili93xx_write_register_word(
  4006c0:	2100      	movs	r1, #0
  4006c2:	2084      	movs	r0, #132	; 0x84
  4006c4:	47a0      	blx	r4
		ili93xx_write_register_word(ILI9325_PARTIAL_IMG2_AREA_END_LINE,
  4006c6:	2100      	movs	r1, #0
  4006c8:	2085      	movs	r0, #133	; 0x85
  4006ca:	47a0      	blx	r4
		ili93xx_write_register_word(ILI9325_PANEL_INTERFACE_CTRL1,
  4006cc:	2110      	movs	r1, #16
  4006ce:	2090      	movs	r0, #144	; 0x90
  4006d0:	47a0      	blx	r4
		ili93xx_write_register_word(ILI9325_PANEL_INTERFACE_CTRL2,
  4006d2:	f44f 61c0 	mov.w	r1, #1536	; 0x600
  4006d6:	2092      	movs	r0, #146	; 0x92
  4006d8:	47a0      	blx	r4
		ili93xx_write_register_word(ILI9325_PANEL_INTERFACE_CTRL4,
  4006da:	f44f 7188 	mov.w	r1, #272	; 0x110
  4006de:	2095      	movs	r0, #149	; 0x95
  4006e0:	47a0      	blx	r4
		ili93xx_set_window(0, 0, p_opt->ul_width, p_opt->ul_height);
  4006e2:	6873      	ldr	r3, [r6, #4]
  4006e4:	6832      	ldr	r2, [r6, #0]
  4006e6:	2100      	movs	r1, #0
  4006e8:	4608      	mov	r0, r1
  4006ea:	4c54      	ldr	r4, [pc, #336]	; (40083c <ili93xx_init+0x2d4>)
  4006ec:	47a0      	blx	r4
		ili93xx_set_foreground_color(p_opt->foreground_color);
  4006ee:	68b0      	ldr	r0, [r6, #8]
  4006f0:	4b53      	ldr	r3, [pc, #332]	; (400840 <ili93xx_init+0x2d8>)
  4006f2:	4798      	blx	r3
		ili93xx_set_cursor_position(0, 0);
  4006f4:	2100      	movs	r1, #0
  4006f6:	4608      	mov	r0, r1
  4006f8:	4b52      	ldr	r3, [pc, #328]	; (400844 <ili93xx_init+0x2dc>)
  4006fa:	4798      	blx	r3
	return 0;
  4006fc:	2000      	movs	r0, #0
  4006fe:	e74b      	b.n	400598 <ili93xx_init+0x30>
		paratable[0] = 0x39;
  400700:	2339      	movs	r3, #57	; 0x39
  400702:	f88d 3000 	strb.w	r3, [sp]
		paratable[1] = 0x2C;
  400706:	232c      	movs	r3, #44	; 0x2c
  400708:	f88d 3001 	strb.w	r3, [sp, #1]
		paratable[2] = 0x00;
  40070c:	2400      	movs	r4, #0
  40070e:	f88d 4002 	strb.w	r4, [sp, #2]
		paratable[3] = 0x34;
  400712:	2334      	movs	r3, #52	; 0x34
  400714:	f88d 3003 	strb.w	r3, [sp, #3]
		paratable[4] = 0x02;
  400718:	2702      	movs	r7, #2
  40071a:	f88d 7004 	strb.w	r7, [sp, #4]
		ili93xx_write_register(ILI9341_CMD_POWER_CONTROL_A, paratable, 5);
  40071e:	2205      	movs	r2, #5
  400720:	4669      	mov	r1, sp
  400722:	20cb      	movs	r0, #203	; 0xcb
  400724:	4d48      	ldr	r5, [pc, #288]	; (400848 <ili93xx_init+0x2e0>)
  400726:	47a8      	blx	r5
		paratable[0] = 0;
  400728:	f88d 4000 	strb.w	r4, [sp]
		paratable[1] = 0xAA;
  40072c:	23aa      	movs	r3, #170	; 0xaa
  40072e:	f88d 3001 	strb.w	r3, [sp, #1]
		paratable[2] = 0xB0;
  400732:	23b0      	movs	r3, #176	; 0xb0
  400734:	f88d 3002 	strb.w	r3, [sp, #2]
		ili93xx_write_register(ILI9341_CMD_POWER_CONTROL_B, paratable, 3);
  400738:	2203      	movs	r2, #3
  40073a:	4669      	mov	r1, sp
  40073c:	20cf      	movs	r0, #207	; 0xcf
  40073e:	47a8      	blx	r5
		paratable[0] = 0x30;
  400740:	2330      	movs	r3, #48	; 0x30
  400742:	f88d 3000 	strb.w	r3, [sp]
		ili93xx_write_register(ILI9341_CMD_PUMP_RATIO_CONTROL,
  400746:	2201      	movs	r2, #1
  400748:	4669      	mov	r1, sp
  40074a:	20f7      	movs	r0, #247	; 0xf7
  40074c:	47a8      	blx	r5
		paratable[0] = 0x25;
  40074e:	2325      	movs	r3, #37	; 0x25
  400750:	f88d 3000 	strb.w	r3, [sp]
		ili93xx_write_register(ILI9341_CMD_POWER_CONTROL_1, paratable, 1);
  400754:	2201      	movs	r2, #1
  400756:	4669      	mov	r1, sp
  400758:	20c0      	movs	r0, #192	; 0xc0
  40075a:	47a8      	blx	r5
		paratable[0] = 0x11;
  40075c:	f04f 0911 	mov.w	r9, #17
  400760:	f88d 9000 	strb.w	r9, [sp]
		ili93xx_write_register(ILI9341_CMD_POWER_CONTROL_2, paratable, 1);
  400764:	2201      	movs	r2, #1
  400766:	4669      	mov	r1, sp
  400768:	20c1      	movs	r0, #193	; 0xc1
  40076a:	47a8      	blx	r5
		paratable[0] = 0x5C;
  40076c:	235c      	movs	r3, #92	; 0x5c
  40076e:	f88d 3000 	strb.w	r3, [sp]
		paratable[1] = 0x4C;
  400772:	234c      	movs	r3, #76	; 0x4c
  400774:	f88d 3001 	strb.w	r3, [sp, #1]
		ili93xx_write_register(ILI9341_CMD_VCOM_CONTROL_1, paratable, 2);
  400778:	463a      	mov	r2, r7
  40077a:	4669      	mov	r1, sp
  40077c:	20c5      	movs	r0, #197	; 0xc5
  40077e:	47a8      	blx	r5
		paratable[0] = 0x94;
  400780:	2394      	movs	r3, #148	; 0x94
  400782:	f88d 3000 	strb.w	r3, [sp]
		ili93xx_write_register(ILI9341_CMD_VCOM_CONTROL_2, paratable, 1);
  400786:	2201      	movs	r2, #1
  400788:	4669      	mov	r1, sp
  40078a:	20c7      	movs	r0, #199	; 0xc7
  40078c:	47a8      	blx	r5
		paratable[0] = 0x85;
  40078e:	2385      	movs	r3, #133	; 0x85
  400790:	f88d 3000 	strb.w	r3, [sp]
		paratable[1] = 0x01;
  400794:	f04f 0801 	mov.w	r8, #1
  400798:	f88d 8001 	strb.w	r8, [sp, #1]
		paratable[2] = 0x78;
  40079c:	2378      	movs	r3, #120	; 0x78
  40079e:	f88d 3002 	strb.w	r3, [sp, #2]
		ili93xx_write_register(ILI9341_CMD_DRIVER_TIMING_CTL_A, paratable, 3);
  4007a2:	2203      	movs	r2, #3
  4007a4:	4669      	mov	r1, sp
  4007a6:	20e8      	movs	r0, #232	; 0xe8
  4007a8:	47a8      	blx	r5
		paratable[0] = 0x00;
  4007aa:	f88d 4000 	strb.w	r4, [sp]
		paratable[1] = 0x00;
  4007ae:	f88d 4001 	strb.w	r4, [sp, #1]
		ili93xx_write_register(ILI9341_CMD_DRIVER_TIMING_CTL_B, paratable, 2);
  4007b2:	463a      	mov	r2, r7
  4007b4:	4669      	mov	r1, sp
  4007b6:	20ea      	movs	r0, #234	; 0xea
  4007b8:	47a8      	blx	r5
		paratable[0] = ILI9341_CMD_MEMORY_ACCESS_CONTROL_MX |
  4007ba:	2348      	movs	r3, #72	; 0x48
  4007bc:	f88d 3000 	strb.w	r3, [sp]
		ili93xx_write_register(ILI9341_CMD_MEMORY_ACCESS_CONTROL,
  4007c0:	4642      	mov	r2, r8
  4007c2:	4669      	mov	r1, sp
  4007c4:	2036      	movs	r0, #54	; 0x36
  4007c6:	47a8      	blx	r5
		paratable[0] = 0x06;
  4007c8:	2306      	movs	r3, #6
  4007ca:	f88d 3000 	strb.w	r3, [sp]
		ili93xx_write_register(ILI9341_CMD_PIXEL_FORMAT_SET, paratable, 1);
  4007ce:	4642      	mov	r2, r8
  4007d0:	4669      	mov	r1, sp
  4007d2:	203a      	movs	r0, #58	; 0x3a
  4007d4:	47a8      	blx	r5
		paratable[0] = 0x02;
  4007d6:	f88d 7000 	strb.w	r7, [sp]
		paratable[1] = 0x82;
  4007da:	2382      	movs	r3, #130	; 0x82
  4007dc:	f88d 3001 	strb.w	r3, [sp, #1]
		paratable[2] = 0x27;
  4007e0:	2327      	movs	r3, #39	; 0x27
  4007e2:	f88d 3002 	strb.w	r3, [sp, #2]
		paratable[3] = 0x00;
  4007e6:	f88d 4003 	strb.w	r4, [sp, #3]
		ili93xx_write_register(ILI9341_CMD_DISPLAY_FUNCTION_CTL, paratable, 4);
  4007ea:	2204      	movs	r2, #4
  4007ec:	4669      	mov	r1, sp
  4007ee:	20b6      	movs	r0, #182	; 0xb6
  4007f0:	47a8      	blx	r5
		ili93xx_set_window(0, 0, p_opt->ul_width, p_opt->ul_height);
  4007f2:	6873      	ldr	r3, [r6, #4]
  4007f4:	6832      	ldr	r2, [r6, #0]
  4007f6:	4621      	mov	r1, r4
  4007f8:	4620      	mov	r0, r4
  4007fa:	4f10      	ldr	r7, [pc, #64]	; (40083c <ili93xx_init+0x2d4>)
  4007fc:	47b8      	blx	r7
		ili93xx_set_foreground_color(p_opt->foreground_color);
  4007fe:	68b0      	ldr	r0, [r6, #8]
  400800:	4b0f      	ldr	r3, [pc, #60]	; (400840 <ili93xx_init+0x2d8>)
  400802:	4798      	blx	r3
		ili93xx_write_register(ILI9341_CMD_SLEEP_OUT, paratable, 0);
  400804:	4622      	mov	r2, r4
  400806:	4669      	mov	r1, sp
  400808:	4648      	mov	r0, r9
  40080a:	47a8      	blx	r5
		ili93xx_delay(10);
  40080c:	200a      	movs	r0, #10
  40080e:	4b0a      	ldr	r3, [pc, #40]	; (400838 <ili93xx_init+0x2d0>)
  400810:	4798      	blx	r3
		ili93xx_write_register(ILI9341_CMD_DISPLAY_ON, paratable, 0);
  400812:	4622      	mov	r2, r4
  400814:	4669      	mov	r1, sp
  400816:	2029      	movs	r0, #41	; 0x29
  400818:	47a8      	blx	r5
	return 0;
  40081a:	4620      	mov	r0, r4
  40081c:	e6bc      	b.n	400598 <ili93xx_init+0x30>
		return 1;
  40081e:	2001      	movs	r0, #1
  400820:	e6ba      	b.n	400598 <ili93xx_init+0x30>
  400822:	bf00      	nop
  400824:	004003cd 	.word	0x004003cd
  400828:	20000000 	.word	0x20000000
  40082c:	20000004 	.word	0x20000004
  400830:	200009e4 	.word	0x200009e4
  400834:	004002f1 	.word	0x004002f1
  400838:	00400335 	.word	0x00400335
  40083c:	00400499 	.word	0x00400499
  400840:	00400481 	.word	0x00400481
  400844:	00400541 	.word	0x00400541
  400848:	00400309 	.word	0x00400309

0040084c <ili93xx_draw_pixel>:
 *
 * \return 0 if succeeds, otherwise fails.
 */
uint32_t ili93xx_draw_pixel(uint32_t ul_x, uint32_t ul_y)
{
	if ((ul_x >= g_ul_lcd_x_length) || (ul_y >= g_ul_lcd_y_length)) {
  40084c:	4b16      	ldr	r3, [pc, #88]	; (4008a8 <ili93xx_draw_pixel+0x5c>)
  40084e:	681b      	ldr	r3, [r3, #0]
  400850:	4283      	cmp	r3, r0
  400852:	d924      	bls.n	40089e <ili93xx_draw_pixel+0x52>
  400854:	4b15      	ldr	r3, [pc, #84]	; (4008ac <ili93xx_draw_pixel+0x60>)
  400856:	681b      	ldr	r3, [r3, #0]
  400858:	428b      	cmp	r3, r1
  40085a:	d922      	bls.n	4008a2 <ili93xx_draw_pixel+0x56>
{
  40085c:	b510      	push	{r4, lr}
		return 1;
	}

	if (g_uc_device_type == DEVICE_TYPE_ILI9325) {
  40085e:	4b14      	ldr	r3, [pc, #80]	; (4008b0 <ili93xx_draw_pixel+0x64>)
  400860:	781b      	ldrb	r3, [r3, #0]
  400862:	2b01      	cmp	r3, #1
  400864:	d003      	beq.n	40086e <ili93xx_draw_pixel+0x22>
		/** Set cursor */
		ili93xx_set_cursor_position(ul_x, ul_y);
		/** Prepare to write in GRAM */
		ili93xx_write_ram_prepare();
		ili93xx_write_ram(*g_ul_pixel_cache);
	} else if (g_uc_device_type == DEVICE_TYPE_ILI9341) {
  400866:	2b02      	cmp	r3, #2
  400868:	d00d      	beq.n	400886 <ili93xx_draw_pixel+0x3a>
		/** Prepare to write in GRAM */
		ili93xx_write_ram_prepare();
		ili93xx_write_ram(*g_ul_pixel_cache);
	}

	return 0;
  40086a:	2000      	movs	r0, #0
}
  40086c:	bd10      	pop	{r4, pc}
		ili93xx_set_cursor_position(ul_x, ul_y);
  40086e:	b289      	uxth	r1, r1
  400870:	b280      	uxth	r0, r0
  400872:	4b10      	ldr	r3, [pc, #64]	; (4008b4 <ili93xx_draw_pixel+0x68>)
  400874:	4798      	blx	r3
		ili93xx_write_ram_prepare();
  400876:	4b10      	ldr	r3, [pc, #64]	; (4008b8 <ili93xx_draw_pixel+0x6c>)
  400878:	4798      	blx	r3
		ili93xx_write_ram(*g_ul_pixel_cache);
  40087a:	4b10      	ldr	r3, [pc, #64]	; (4008bc <ili93xx_draw_pixel+0x70>)
  40087c:	6818      	ldr	r0, [r3, #0]
  40087e:	4b10      	ldr	r3, [pc, #64]	; (4008c0 <ili93xx_draw_pixel+0x74>)
  400880:	4798      	blx	r3
	return 0;
  400882:	2000      	movs	r0, #0
  400884:	bd10      	pop	{r4, pc}
		ili93xx_set_window(ul_x, ul_y, 0, 0);
  400886:	2300      	movs	r3, #0
  400888:	461a      	mov	r2, r3
  40088a:	4c0e      	ldr	r4, [pc, #56]	; (4008c4 <ili93xx_draw_pixel+0x78>)
  40088c:	47a0      	blx	r4
		ili93xx_write_ram_prepare();
  40088e:	4b0a      	ldr	r3, [pc, #40]	; (4008b8 <ili93xx_draw_pixel+0x6c>)
  400890:	4798      	blx	r3
		ili93xx_write_ram(*g_ul_pixel_cache);
  400892:	4b0a      	ldr	r3, [pc, #40]	; (4008bc <ili93xx_draw_pixel+0x70>)
  400894:	6818      	ldr	r0, [r3, #0]
  400896:	4b0a      	ldr	r3, [pc, #40]	; (4008c0 <ili93xx_draw_pixel+0x74>)
  400898:	4798      	blx	r3
	return 0;
  40089a:	2000      	movs	r0, #0
  40089c:	bd10      	pop	{r4, pc}
		return 1;
  40089e:	2001      	movs	r0, #1
  4008a0:	4770      	bx	lr
  4008a2:	2001      	movs	r0, #1
  4008a4:	4770      	bx	lr
  4008a6:	bf00      	nop
  4008a8:	20000000 	.word	0x20000000
  4008ac:	20000004 	.word	0x20000004
  4008b0:	200009e4 	.word	0x200009e4
  4008b4:	00400541 	.word	0x00400541
  4008b8:	00400245 	.word	0x00400245
  4008bc:	200009e8 	.word	0x200009e8
  4008c0:	00400279 	.word	0x00400279
  4008c4:	00400499 	.word	0x00400499

004008c8 <ili93xx_draw_filled_rectangle>:
 * \param ul_x2 X coordinate of lower-right corner on LCD.
 * \param ul_y2 Y coordinate of lower-right corner on LCD.
 */
void ili93xx_draw_filled_rectangle(uint32_t ul_x1, uint32_t ul_y1,
		uint32_t ul_x2, uint32_t ul_y2)
{
  4008c8:	e92d 41f0 	stmdb	sp!, {r4, r5, r6, r7, r8, lr}
  4008cc:	b084      	sub	sp, #16
  4008ce:	9003      	str	r0, [sp, #12]
  4008d0:	9102      	str	r1, [sp, #8]
  4008d2:	9201      	str	r2, [sp, #4]
  4008d4:	aa04      	add	r2, sp, #16
  4008d6:	f842 3d10 	str.w	r3, [r2, #-16]!
	uint32_t size, blocks;

	/** Swap coordinates if necessary */
	ili93xx_check_box_coordinates(&ul_x1, &ul_y1, &ul_x2, &ul_y2);
  4008da:	4613      	mov	r3, r2
  4008dc:	aa01      	add	r2, sp, #4
  4008de:	a902      	add	r1, sp, #8
  4008e0:	a803      	add	r0, sp, #12
  4008e2:	4c22      	ldr	r4, [pc, #136]	; (40096c <ili93xx_draw_filled_rectangle+0xa4>)
  4008e4:	47a0      	blx	r4

	/** Determine the refresh window area */
	ili93xx_set_window(ul_x1, ul_y1, (ul_x2 - ul_x1) + 1,
  4008e6:	9803      	ldr	r0, [sp, #12]
  4008e8:	9902      	ldr	r1, [sp, #8]
  4008ea:	9b00      	ldr	r3, [sp, #0]
  4008ec:	3301      	adds	r3, #1
  4008ee:	9a01      	ldr	r2, [sp, #4]
  4008f0:	3201      	adds	r2, #1
  4008f2:	1a5b      	subs	r3, r3, r1
  4008f4:	1a12      	subs	r2, r2, r0
  4008f6:	4c1e      	ldr	r4, [pc, #120]	; (400970 <ili93xx_draw_filled_rectangle+0xa8>)
  4008f8:	47a0      	blx	r4
			(ul_y2 - ul_y1) + 1);

	/** Set cursor */
	ili93xx_set_cursor_position(ul_x1, ul_y1);
  4008fa:	f8bd 1008 	ldrh.w	r1, [sp, #8]
  4008fe:	f8bd 000c 	ldrh.w	r0, [sp, #12]
  400902:	4b1c      	ldr	r3, [pc, #112]	; (400974 <ili93xx_draw_filled_rectangle+0xac>)
  400904:	4798      	blx	r3

	/** Prepare to write in Graphic RAM */
	ili93xx_write_ram_prepare();
  400906:	4b1c      	ldr	r3, [pc, #112]	; (400978 <ili93xx_draw_filled_rectangle+0xb0>)
  400908:	4798      	blx	r3

	size = (ul_x2 - ul_x1 + 1) * (ul_y2 - ul_y1 + 1);
  40090a:	9a03      	ldr	r2, [sp, #12]
  40090c:	9b01      	ldr	r3, [sp, #4]
  40090e:	1a9a      	subs	r2, r3, r2
  400910:	9b00      	ldr	r3, [sp, #0]
  400912:	f103 0801 	add.w	r8, r3, #1
  400916:	9b02      	ldr	r3, [sp, #8]
  400918:	eba8 0803 	sub.w	r8, r8, r3
  40091c:	fb02 8808 	mla	r8, r2, r8, r8

	/** Send pixels blocks => one SPI IT / block */
	blocks = size / LCD_DATA_CACHE_SIZE;
  400920:	4b16      	ldr	r3, [pc, #88]	; (40097c <ili93xx_draw_filled_rectangle+0xb4>)
  400922:	fba3 2308 	umull	r2, r3, r3, r8
  400926:	09db      	lsrs	r3, r3, #7
	while (blocks--) {
  400928:	b153      	cbz	r3, 400940 <ili93xx_draw_filled_rectangle+0x78>
  40092a:	1e5c      	subs	r4, r3, #1
		ili93xx_write_ram_buffer(g_ul_pixel_cache,
  40092c:	4f14      	ldr	r7, [pc, #80]	; (400980 <ili93xx_draw_filled_rectangle+0xb8>)
  40092e:	26f0      	movs	r6, #240	; 0xf0
  400930:	4d14      	ldr	r5, [pc, #80]	; (400984 <ili93xx_draw_filled_rectangle+0xbc>)
  400932:	4631      	mov	r1, r6
  400934:	4638      	mov	r0, r7
  400936:	47a8      	blx	r5
	while (blocks--) {
  400938:	3c01      	subs	r4, #1
  40093a:	f1b4 3fff 	cmp.w	r4, #4294967295
  40093e:	d1f8      	bne.n	400932 <ili93xx_draw_filled_rectangle+0x6a>
								LCD_DATA_CACHE_SIZE);
	}

	/** Send remaining pixels */
	ili93xx_write_ram_buffer(g_ul_pixel_cache,
  400940:	490e      	ldr	r1, [pc, #56]	; (40097c <ili93xx_draw_filled_rectangle+0xb4>)
  400942:	fba1 3108 	umull	r3, r1, r1, r8
  400946:	09c9      	lsrs	r1, r1, #7
  400948:	ebc1 1101 	rsb	r1, r1, r1, lsl #4
  40094c:	eba8 1101 	sub.w	r1, r8, r1, lsl #4
  400950:	480b      	ldr	r0, [pc, #44]	; (400980 <ili93xx_draw_filled_rectangle+0xb8>)
  400952:	4b0c      	ldr	r3, [pc, #48]	; (400984 <ili93xx_draw_filled_rectangle+0xbc>)
  400954:	4798      	blx	r3
					size % LCD_DATA_CACHE_SIZE);

	/** Reset the refresh window area */
	ili93xx_set_window(0, 0, g_ul_lcd_x_length, g_ul_lcd_y_length);
  400956:	4b0c      	ldr	r3, [pc, #48]	; (400988 <ili93xx_draw_filled_rectangle+0xc0>)
  400958:	681b      	ldr	r3, [r3, #0]
  40095a:	4a0c      	ldr	r2, [pc, #48]	; (40098c <ili93xx_draw_filled_rectangle+0xc4>)
  40095c:	6812      	ldr	r2, [r2, #0]
  40095e:	2100      	movs	r1, #0
  400960:	4608      	mov	r0, r1
  400962:	4c03      	ldr	r4, [pc, #12]	; (400970 <ili93xx_draw_filled_rectangle+0xa8>)
  400964:	47a0      	blx	r4
}
  400966:	b004      	add	sp, #16
  400968:	e8bd 81f0 	ldmia.w	sp!, {r4, r5, r6, r7, r8, pc}
  40096c:	0040036d 	.word	0x0040036d
  400970:	00400499 	.word	0x00400499
  400974:	00400541 	.word	0x00400541
  400978:	00400245 	.word	0x00400245
  40097c:	88888889 	.word	0x88888889
  400980:	200009e8 	.word	0x200009e8
  400984:	00400291 	.word	0x00400291
  400988:	20000004 	.word	0x20000004
  40098c:	20000000 	.word	0x20000000

00400990 <ili93xx_draw_string>:
 * \param ul_x X coordinate of string top-left corner.
 * \param ul_y Y coordinate of string top-left corner.
 * \param p_str String to display.
 */
void ili93xx_draw_string(uint32_t ul_x, uint32_t ul_y, const uint8_t *p_str)
{
  400990:	e92d 4ff0 	stmdb	sp!, {r4, r5, r6, r7, r8, r9, sl, fp, lr}
  400994:	b085      	sub	sp, #20
  400996:	9003      	str	r0, [sp, #12]
  400998:	9202      	str	r2, [sp, #8]
	uint32_t xorg = ul_x;

	while (*p_str != 0) {
  40099a:	7813      	ldrb	r3, [r2, #0]
  40099c:	2b00      	cmp	r3, #0
  40099e:	d048      	beq.n	400a32 <ili93xx_draw_string+0xa2>
  4009a0:	468b      	mov	fp, r1
  4009a2:	9001      	str	r0, [sp, #4]
				ili93xx_draw_pixel(ul_x + col, ul_y + row);
  4009a4:	f8df 8094 	ldr.w	r8, [pc, #148]	; 400a3c <ili93xx_draw_string+0xac>
  4009a8:	e033      	b.n	400a12 <ili93xx_draw_string+0x82>
		/** If newline, jump to the next line (font height + 2) */
		if (*p_str == '\n') {
			ul_y += gfont.height + 2;
  4009aa:	f10b 0b10 	add.w	fp, fp, #16
			ul_x = xorg;
  4009ae:	9b03      	ldr	r3, [sp, #12]
  4009b0:	9301      	str	r3, [sp, #4]
  4009b2:	e029      	b.n	400a08 <ili93xx_draw_string+0x78>
  4009b4:	3c01      	subs	r4, #1
		for (row = 0; row < 8; row++) {
  4009b6:	f1b4 3fff 	cmp.w	r4, #4294967295
  4009ba:	d009      	beq.n	4009d0 <ili93xx_draw_string+0x40>
			if ((p_uc_charset10x14[offset0] >> (7 - row)) & 0x1) {
  4009bc:	782b      	ldrb	r3, [r5, #0]
  4009be:	4123      	asrs	r3, r4
  4009c0:	f013 0f01 	tst.w	r3, #1
  4009c4:	d0f6      	beq.n	4009b4 <ili93xx_draw_string+0x24>
				ili93xx_draw_pixel(ul_x + col, ul_y + row);
  4009c6:	ebaa 0104 	sub.w	r1, sl, r4
  4009ca:	4630      	mov	r0, r6
  4009cc:	47c0      	blx	r8
  4009ce:	e7f1      	b.n	4009b4 <ili93xx_draw_string+0x24>
		for (row = 0; row < 8; row++) {
  4009d0:	2407      	movs	r4, #7
				ili93xx_draw_pixel(ul_x + col, ul_y + row + 8);
  4009d2:	f10b 090f 	add.w	r9, fp, #15
  4009d6:	e002      	b.n	4009de <ili93xx_draw_string+0x4e>
  4009d8:	3c01      	subs	r4, #1
		for (row = 0; row < 6; row++) {
  4009da:	2c01      	cmp	r4, #1
  4009dc:	d009      	beq.n	4009f2 <ili93xx_draw_string+0x62>
			if ((p_uc_charset10x14[offset1] >> (7 - row)) & 0x1) {
  4009de:	787b      	ldrb	r3, [r7, #1]
  4009e0:	4123      	asrs	r3, r4
  4009e2:	f013 0f01 	tst.w	r3, #1
  4009e6:	d0f7      	beq.n	4009d8 <ili93xx_draw_string+0x48>
				ili93xx_draw_pixel(ul_x + col, ul_y + row + 8);
  4009e8:	eba9 0104 	sub.w	r1, r9, r4
  4009ec:	4630      	mov	r0, r6
  4009ee:	47c0      	blx	r8
  4009f0:	e7f2      	b.n	4009d8 <ili93xx_draw_string+0x48>
  4009f2:	3502      	adds	r5, #2
  4009f4:	3601      	adds	r6, #1
	for (col = 0; col < 10; col++) {
  4009f6:	9b00      	ldr	r3, [sp, #0]
  4009f8:	42b3      	cmp	r3, r6
  4009fa:	d002      	beq.n	400a02 <ili93xx_draw_string+0x72>
	offset = ((uint32_t)uc_c - 0x20) * 20;
  4009fc:	2407      	movs	r4, #7
  4009fe:	462f      	mov	r7, r5
  400a00:	e7dc      	b.n	4009bc <ili93xx_draw_string+0x2c>
			/**
			 * Draw the character and place cursor right after (font
			 * width + 2)
			 */
			ili93xx_draw_char(ul_x, ul_y, *p_str);
			ul_x += gfont.width + 2;
  400a02:	9b01      	ldr	r3, [sp, #4]
  400a04:	330c      	adds	r3, #12
  400a06:	9301      	str	r3, [sp, #4]
	while (*p_str != 0) {
  400a08:	9a02      	ldr	r2, [sp, #8]
  400a0a:	f812 3f01 	ldrb.w	r3, [r2, #1]!
  400a0e:	9202      	str	r2, [sp, #8]
  400a10:	b17b      	cbz	r3, 400a32 <ili93xx_draw_string+0xa2>
		if (*p_str == '\n') {
  400a12:	2b0a      	cmp	r3, #10
  400a14:	d0c9      	beq.n	4009aa <ili93xx_draw_string+0x1a>
	offset = ((uint32_t)uc_c - 0x20) * 20;
  400a16:	eb03 0383 	add.w	r3, r3, r3, lsl #2
  400a1a:	4d07      	ldr	r5, [pc, #28]	; (400a38 <ili93xx_draw_string+0xa8>)
  400a1c:	eb05 0383 	add.w	r3, r5, r3, lsl #2
  400a20:	f5a3 7520 	sub.w	r5, r3, #640	; 0x280
  400a24:	9e01      	ldr	r6, [sp, #4]
  400a26:	4633      	mov	r3, r6
  400a28:	330a      	adds	r3, #10
  400a2a:	9300      	str	r3, [sp, #0]
				ili93xx_draw_pixel(ul_x + col, ul_y + row);
  400a2c:	f10b 0a07 	add.w	sl, fp, #7
  400a30:	e7e4      	b.n	4009fc <ili93xx_draw_string+0x6c>
		}

		p_str++;
	}
}
  400a32:	b005      	add	sp, #20
  400a34:	e8bd 8ff0 	ldmia.w	sp!, {r4, r5, r6, r7, r8, r9, sl, fp, pc}
  400a38:	004083a8 	.word	0x004083a8
  400a3c:	0040084d 	.word	0x0040084d

00400a40 <adc_init>:
 *
 * \return 0 on success.
 */
uint32_t adc_init(Adc *p_adc, const uint32_t ul_mck,
		const uint32_t ul_adc_clock, const enum adc_startup_time startup)
{
  400a40:	b430      	push	{r4, r5}
	uint32_t ul_prescal;

	/*  Reset the controller. */
	p_adc->ADC_CR = ADC_CR_SWRST;
  400a42:	2401      	movs	r4, #1
  400a44:	6004      	str	r4, [r0, #0]

	/* Reset Mode Register. */
	p_adc->ADC_MR = 0;
  400a46:	2400      	movs	r4, #0
  400a48:	6044      	str	r4, [r0, #4]

	/* Reset PDC transfer. */
	p_adc->ADC_PTCR = (ADC_PTCR_RXTDIS | ADC_PTCR_TXTDIS);
  400a4a:	f240 2502 	movw	r5, #514	; 0x202
  400a4e:	f8c0 5120 	str.w	r5, [r0, #288]	; 0x120
	p_adc->ADC_RCR = 0;
  400a52:	f8c0 4104 	str.w	r4, [r0, #260]	; 0x104
	p_adc->ADC_RNCR = 0;
  400a56:	f8c0 4114 	str.w	r4, [r0, #276]	; 0x114

	ul_prescal = ul_mck / (2 * ul_adc_clock) - 1;
	p_adc->ADC_MR |= ADC_MR_PRESCAL(ul_prescal) | startup;
  400a5a:	6845      	ldr	r5, [r0, #4]
	ul_prescal = ul_mck / (2 * ul_adc_clock) - 1;
  400a5c:	0052      	lsls	r2, r2, #1
  400a5e:	fbb1 f2f2 	udiv	r2, r1, r2
  400a62:	3a01      	subs	r2, #1
	p_adc->ADC_MR |= ADC_MR_PRESCAL(ul_prescal) | startup;
  400a64:	0212      	lsls	r2, r2, #8
  400a66:	b292      	uxth	r2, r2
  400a68:	432b      	orrs	r3, r5
  400a6a:	431a      	orrs	r2, r3
  400a6c:	6042      	str	r2, [r0, #4]
	return 0;
}
  400a6e:	4620      	mov	r0, r4
  400a70:	bc30      	pop	{r4, r5}
  400a72:	4770      	bx	lr

00400a74 <adc_configure_trigger>:
 *
 */
void adc_configure_trigger(Adc *p_adc, const enum adc_trigger_t trigger,
		uint8_t uc_freerun)
{
	p_adc->ADC_MR |= trigger | ((uc_freerun << 7) & ADC_MR_FREERUN);
  400a74:	6843      	ldr	r3, [r0, #4]
  400a76:	01d2      	lsls	r2, r2, #7
  400a78:	b2d2      	uxtb	r2, r2
  400a7a:	4319      	orrs	r1, r3
  400a7c:	430a      	orrs	r2, r1
  400a7e:	6042      	str	r2, [r0, #4]
  400a80:	4770      	bx	lr

00400a82 <adc_configure_timing>:
 * \param uc_settling Analog settling time = (uc_settling + 1) / ADC clock.
 * \param uc_transfer Data transfer time = (uc_transfer * 2 + 3) / ADC clock.
 */
void adc_configure_timing(Adc *p_adc, const uint8_t uc_tracking,
		const enum adc_settling_time_t settling,const uint8_t uc_transfer)
{
  400a82:	b410      	push	{r4}
	p_adc->ADC_MR |= ADC_MR_TRANSFER(uc_transfer)
  400a84:	6844      	ldr	r4, [r0, #4]
			| settling | ADC_MR_TRACKTIM(uc_tracking);
  400a86:	0609      	lsls	r1, r1, #24
  400a88:	f001 6170 	and.w	r1, r1, #251658240	; 0xf000000
	p_adc->ADC_MR |= ADC_MR_TRANSFER(uc_transfer)
  400a8c:	4321      	orrs	r1, r4
  400a8e:	430a      	orrs	r2, r1
  400a90:	0719      	lsls	r1, r3, #28
  400a92:	f001 5140 	and.w	r1, r1, #805306368	; 0x30000000
  400a96:	4311      	orrs	r1, r2
  400a98:	6041      	str	r1, [r0, #4]
}
  400a9a:	bc10      	pop	{r4}
  400a9c:	4770      	bx	lr

00400a9e <adc_start>:
 * \param p_adc Pointer to an ADC instance.
 */

void adc_start(Adc *p_adc)
{
	p_adc->ADC_CR = ADC_CR_START;
  400a9e:	2302      	movs	r3, #2
  400aa0:	6003      	str	r3, [r0, #0]
  400aa2:	4770      	bx	lr

00400aa4 <adc_enable_channel>:
 * \param p_adc Pointer to an ADC instance.
 * \param adc_ch ADC channel number.
 */
void adc_enable_channel(Adc *p_adc, const enum adc_channel_num_t adc_ch)
{
	p_adc->ADC_CHER = 1 << adc_ch;
  400aa4:	2301      	movs	r3, #1
  400aa6:	fa03 f101 	lsl.w	r1, r3, r1
  400aaa:	6101      	str	r1, [r0, #16]
  400aac:	4770      	bx	lr

00400aae <adc_get_channel_value>:
 */
uint32_t adc_get_channel_value(const Adc *p_adc, const enum adc_channel_num_t adc_ch)
{
	uint32_t ul_data = 0;

	if (15 >= adc_ch) {
  400aae:	290f      	cmp	r1, #15
		ul_data = *(p_adc->ADC_CDR + adc_ch);
  400ab0:	bf9a      	itte	ls
  400ab2:	3050      	addls	r0, #80	; 0x50
  400ab4:	f850 0021 	ldrls.w	r0, [r0, r1, lsl #2]
	uint32_t ul_data = 0;
  400ab8:	2000      	movhi	r0, #0
	}

	return ul_data;
}
  400aba:	4770      	bx	lr

00400abc <adc_enable_interrupt>:
 * \param p_adc Pointer to an ADC instance.
 * \param ul_source Interrupts to be enabled.
 */
void adc_enable_interrupt(Adc *p_adc, const uint32_t ul_source)
{
	p_adc->ADC_IER = ul_source;
  400abc:	6241      	str	r1, [r0, #36]	; 0x24
  400abe:	4770      	bx	lr

00400ac0 <adc_get_status>:
 *
 * \return ADC status structure.
 */
uint32_t adc_get_status(const Adc *p_adc)
{
	return p_adc->ADC_ISR;
  400ac0:	6b00      	ldr	r0, [r0, #48]	; 0x30
}
  400ac2:	4770      	bx	lr

00400ac4 <smc_set_setup_timing>:
 * \param ul_setup_timing Setup timing for NWE, NCS, NRD.
 */
void smc_set_setup_timing(Smc *p_smc, uint32_t ul_cs,
		uint32_t ul_setup_timing)
{
	p_smc->SMC_CS_NUMBER[ul_cs].SMC_SETUP = ul_setup_timing;
  400ac4:	0109      	lsls	r1, r1, #4
  400ac6:	5042      	str	r2, [r0, r1]
  400ac8:	4770      	bx	lr

00400aca <smc_set_pulse_timing>:
 * \param ul_pulse_timing Pulse timing for NWE,NCS,NRD.
 */
void smc_set_pulse_timing(Smc *p_smc, uint32_t ul_cs,
		uint32_t ul_pulse_timing)
{
	p_smc->SMC_CS_NUMBER[ul_cs].SMC_PULSE = ul_pulse_timing;
  400aca:	eb00 1101 	add.w	r1, r0, r1, lsl #4
  400ace:	604a      	str	r2, [r1, #4]
  400ad0:	4770      	bx	lr

00400ad2 <smc_set_cycle_timing>:
 * \param ul_cycle_timing Cycle timing for NWE and NRD.
 */
void smc_set_cycle_timing(Smc *p_smc, uint32_t ul_cs,
		uint32_t ul_cycle_timing)
{
	p_smc->SMC_CS_NUMBER[ul_cs].SMC_CYCLE = ul_cycle_timing;
  400ad2:	eb00 1101 	add.w	r1, r0, r1, lsl #4
  400ad6:	608a      	str	r2, [r1, #8]
  400ad8:	4770      	bx	lr

00400ada <smc_set_mode>:
 * \param ul_cs Chip select number to be set.
 * \param ul_mode SMC mode.
 */
void smc_set_mode(Smc *p_smc, uint32_t ul_cs, uint32_t ul_mode)
{
	p_smc->SMC_CS_NUMBER[ul_cs].SMC_MODE = ul_mode;
  400ada:	eb00 1101 	add.w	r1, r0, r1, lsl #4
  400ade:	60ca      	str	r2, [r1, #12]
  400ae0:	4770      	bx	lr

00400ae2 <tc_init>:
 */
void tc_init(
		Tc *p_tc,
		uint32_t ul_channel,
		uint32_t ul_mode)
{
  400ae2:	b410      	push	{r4}

	/* Validate inputs. */
	Assert(p_tc);
	Assert(ul_channel <
			(sizeof(p_tc->TC_CHANNEL) / sizeof(p_tc->TC_CHANNEL[0])));
	tc_channel = p_tc->TC_CHANNEL + ul_channel;
  400ae4:	0189      	lsls	r1, r1, #6
  400ae6:	1843      	adds	r3, r0, r1

	/*  Disable TC clock. */
	tc_channel->TC_CCR = TC_CCR_CLKDIS;
  400ae8:	2402      	movs	r4, #2
  400aea:	5044      	str	r4, [r0, r1]

	/*  Disable interrupts. */
	tc_channel->TC_IDR = 0xFFFFFFFF;
  400aec:	f04f 31ff 	mov.w	r1, #4294967295
  400af0:	6299      	str	r1, [r3, #40]	; 0x28

	/*  Clear status register. */
	tc_channel->TC_SR;
  400af2:	6a19      	ldr	r1, [r3, #32]

	/*  Set mode. */
	tc_channel->TC_CMR = ul_mode;
  400af4:	605a      	str	r2, [r3, #4]
}
  400af6:	bc10      	pop	{r4}
  400af8:	4770      	bx	lr

00400afa <tc_start>:
	/* Validate inputs. */
	Assert(p_tc);
	Assert(ul_channel <
			(sizeof(p_tc->TC_CHANNEL) / sizeof(p_tc->TC_CHANNEL[0])));

	p_tc->TC_CHANNEL[ul_channel].TC_CCR = TC_CCR_CLKEN | TC_CCR_SWTRG;
  400afa:	0189      	lsls	r1, r1, #6
  400afc:	2305      	movs	r3, #5
  400afe:	5043      	str	r3, [r0, r1]
  400b00:	4770      	bx	lr

00400b02 <tc_write_rc>:
	/* Validate inputs. */
	Assert(p_tc);
	Assert(ul_channel <
			(sizeof(p_tc->TC_CHANNEL) / sizeof(p_tc->TC_CHANNEL[0])));

	p_tc->TC_CHANNEL[ul_channel].TC_RC = ul_value;
  400b02:	eb00 1181 	add.w	r1, r0, r1, lsl #6
  400b06:	61ca      	str	r2, [r1, #28]
  400b08:	4770      	bx	lr

00400b0a <tc_enable_interrupt>:

	/* Validate inputs. */
	Assert(p_tc);
	Assert(ul_channel <
			(sizeof(p_tc->TC_CHANNEL) / sizeof(p_tc->TC_CHANNEL[0])));
	tc_channel = p_tc->TC_CHANNEL + ul_channel;
  400b0a:	eb00 1181 	add.w	r1, r0, r1, lsl #6
	tc_channel->TC_IER = ul_sources;
  400b0e:	624a      	str	r2, [r1, #36]	; 0x24
  400b10:	4770      	bx	lr

00400b12 <tc_get_status>:
	/* Validate inputs. */
	Assert(p_tc);
	Assert(ul_channel <
			(sizeof(p_tc->TC_CHANNEL) / sizeof(p_tc->TC_CHANNEL[0])));
			
	tc_channel = p_tc->TC_CHANNEL + ul_channel;
  400b12:	eb00 1181 	add.w	r1, r0, r1, lsl #6
	return tc_channel->TC_SR;
  400b16:	6a08      	ldr	r0, [r1, #32]
}
  400b18:	4770      	bx	lr

00400b1a <tc_find_mck_divisor>:
		uint32_t ul_freq,
		uint32_t ul_mck,
		uint32_t *p_uldiv,
		uint32_t *p_ultcclks,
		uint32_t ul_boardmck)
{
  400b1a:	b4f0      	push	{r4, r5, r6, r7}
  400b1c:	b086      	sub	sp, #24
	const uint32_t divisors[5] = { 2, 8, 32, 128,
  400b1e:	2402      	movs	r4, #2
  400b20:	9401      	str	r4, [sp, #4]
  400b22:	2408      	movs	r4, #8
  400b24:	9402      	str	r4, [sp, #8]
  400b26:	2420      	movs	r4, #32
  400b28:	9403      	str	r4, [sp, #12]
  400b2a:	2480      	movs	r4, #128	; 0x80
  400b2c:	9404      	str	r4, [sp, #16]
			ul_boardmck / FREQ_SLOW_CLOCK_EXT };
  400b2e:	9c0a      	ldr	r4, [sp, #40]	; 0x28
  400b30:	0be4      	lsrs	r4, r4, #15
	const uint32_t divisors[5] = { 2, 8, 32, 128,
  400b32:	9405      	str	r4, [sp, #20]
	for (ul_index = 0;
			ul_index < (sizeof(divisors) / sizeof(divisors[0]));
			ul_index++) {
		ul_high = ul_mck / divisors[ul_index];
		ul_low  = ul_high / TC_DIV_FACTOR;
		if (ul_freq > ul_high) {
  400b34:	ebb0 0f51 	cmp.w	r0, r1, lsr #1
  400b38:	d814      	bhi.n	400b64 <tc_find_mck_divisor+0x4a>
  400b3a:	0c4c      	lsrs	r4, r1, #17
			return 0;
		} else if (ul_freq >= ul_low) {
  400b3c:	42a0      	cmp	r0, r4
  400b3e:	d217      	bcs.n	400b70 <tc_find_mck_divisor+0x56>
  400b40:	2501      	movs	r5, #1
		ul_high = ul_mck / divisors[ul_index];
  400b42:	af01      	add	r7, sp, #4
  400b44:	f857 4025 	ldr.w	r4, [r7, r5, lsl #2]
  400b48:	fbb1 f4f4 	udiv	r4, r1, r4
		ul_low  = ul_high / TC_DIV_FACTOR;
  400b4c:	0c26      	lsrs	r6, r4, #16
		if (ul_freq > ul_high) {
  400b4e:	4284      	cmp	r4, r0
  400b50:	d30a      	bcc.n	400b68 <tc_find_mck_divisor+0x4e>
		} else if (ul_freq >= ul_low) {
  400b52:	4286      	cmp	r6, r0
  400b54:	d90d      	bls.n	400b72 <tc_find_mck_divisor+0x58>
			ul_index++) {
  400b56:	3501      	adds	r5, #1
	for (ul_index = 0;
  400b58:	2d05      	cmp	r5, #5
  400b5a:	d1f3      	bne.n	400b44 <tc_find_mck_divisor+0x2a>
			break;
		}
	}
	if (ul_index >= (sizeof(divisors) / sizeof(divisors[0]))) {
		return 0;
  400b5c:	2000      	movs	r0, #0
	if (p_ultcclks) {
		*p_ultcclks = ul_index;
	}

	return 1;
}
  400b5e:	b006      	add	sp, #24
  400b60:	bcf0      	pop	{r4, r5, r6, r7}
  400b62:	4770      	bx	lr
			return 0;
  400b64:	2000      	movs	r0, #0
  400b66:	e7fa      	b.n	400b5e <tc_find_mck_divisor+0x44>
  400b68:	2000      	movs	r0, #0
  400b6a:	e7f8      	b.n	400b5e <tc_find_mck_divisor+0x44>
	return 1;
  400b6c:	2001      	movs	r0, #1
  400b6e:	e7f6      	b.n	400b5e <tc_find_mck_divisor+0x44>
	for (ul_index = 0;
  400b70:	2500      	movs	r5, #0
	if (p_uldiv) {
  400b72:	b12a      	cbz	r2, 400b80 <tc_find_mck_divisor+0x66>
		*p_uldiv = divisors[ul_index];
  400b74:	a906      	add	r1, sp, #24
  400b76:	eb01 0185 	add.w	r1, r1, r5, lsl #2
  400b7a:	f851 1c14 	ldr.w	r1, [r1, #-20]
  400b7e:	6011      	str	r1, [r2, #0]
	if (p_ultcclks) {
  400b80:	2b00      	cmp	r3, #0
  400b82:	d0f3      	beq.n	400b6c <tc_find_mck_divisor+0x52>
		*p_ultcclks = ul_index;
  400b84:	601d      	str	r5, [r3, #0]
	return 1;
  400b86:	2001      	movs	r0, #1
  400b88:	e7e9      	b.n	400b5e <tc_find_mck_divisor+0x44>
	...

00400b8c <sysclk_init>:
	pmc_disable_udpck();
}
#endif // CONFIG_USBCLK_SOURCE

void sysclk_init(void)
{
  400b8c:	b510      	push	{r4, lr}
	/* Set flash wait state to max in case the below clock switching. */
	system_init_flash(CHIP_FREQ_CPU_MAX);
  400b8e:	480e      	ldr	r0, [pc, #56]	; (400bc8 <sysclk_init+0x3c>)
  400b90:	4b0e      	ldr	r3, [pc, #56]	; (400bcc <sysclk_init+0x40>)
  400b92:	4798      	blx	r3
		pmc_switch_mainck_to_fastrc(CKGR_MOR_MOSCRCF_12_MHz);
		break;


	case OSC_MAINCK_XTAL:
		pmc_switch_mainck_to_xtal(PMC_OSC_XTAL,
  400b94:	213e      	movs	r1, #62	; 0x3e
  400b96:	2000      	movs	r0, #0
  400b98:	4b0d      	ldr	r3, [pc, #52]	; (400bd0 <sysclk_init+0x44>)
  400b9a:	4798      	blx	r3
	case OSC_MAINCK_4M_RC:
	case OSC_MAINCK_8M_RC:
	case OSC_MAINCK_12M_RC:
	case OSC_MAINCK_XTAL:
	case OSC_MAINCK_BYPASS:
		return pmc_osc_is_ready_mainck();
  400b9c:	4c0d      	ldr	r4, [pc, #52]	; (400bd4 <sysclk_init+0x48>)
  400b9e:	47a0      	blx	r4
 *
 * \param id A number identifying the oscillator to wait for.
 */
static inline void osc_wait_ready(uint8_t id)
{
	while (!osc_is_ready(id)) {
  400ba0:	2800      	cmp	r0, #0
  400ba2:	d0fc      	beq.n	400b9e <sysclk_init+0x12>
static inline void pll_enable(const struct pll_config *p_cfg, uint32_t ul_pll_id)
{
	Assert(ul_pll_id < NR_PLLS);

	if (ul_pll_id == PLLA_ID) {
		pmc_disable_pllack(); // Always stop PLL first!
  400ba4:	4b0c      	ldr	r3, [pc, #48]	; (400bd8 <sysclk_init+0x4c>)
  400ba6:	4798      	blx	r3
		PMC->CKGR_PLLAR = CKGR_PLLAR_ONE | p_cfg->ctrl;
  400ba8:	4a0c      	ldr	r2, [pc, #48]	; (400bdc <sysclk_init+0x50>)
  400baa:	4b0d      	ldr	r3, [pc, #52]	; (400be0 <sysclk_init+0x54>)
  400bac:	629a      	str	r2, [r3, #40]	; 0x28
static inline uint32_t pll_is_locked(uint32_t ul_pll_id)
{
	Assert(ul_pll_id < NR_PLLS);

	if (ul_pll_id == PLLA_ID) {
		return pmc_is_locked_pllack();
  400bae:	4c0d      	ldr	r4, [pc, #52]	; (400be4 <sysclk_init+0x58>)
  400bb0:	47a0      	blx	r4
 */
static inline int pll_wait_for_lock(unsigned int pll_id)
{
	Assert(pll_id < NR_PLLS);

	while (!pll_is_locked(pll_id)) {
  400bb2:	2800      	cmp	r0, #0
  400bb4:	d0fc      	beq.n	400bb0 <sysclk_init+0x24>

		pll_enable_source(CONFIG_PLL0_SOURCE);
		pll_config_defaults(&pllcfg, 0);
		pll_enable(&pllcfg, 0);
		pll_wait_for_lock(0);
		pmc_switch_mck_to_pllack(CONFIG_SYSCLK_PRES);
  400bb6:	2010      	movs	r0, #16
  400bb8:	4b0b      	ldr	r3, [pc, #44]	; (400be8 <sysclk_init+0x5c>)
  400bba:	4798      	blx	r3
		pmc_switch_mck_to_pllbck(CONFIG_SYSCLK_PRES);
	}
#endif

	/* Update the SystemFrequency variable */
	SystemCoreClockUpdate();
  400bbc:	4b0b      	ldr	r3, [pc, #44]	; (400bec <sysclk_init+0x60>)
  400bbe:	4798      	blx	r3

	/* Set a flash wait state depending on the new cpu frequency */
	system_init_flash(sysclk_get_cpu_hz());
  400bc0:	4801      	ldr	r0, [pc, #4]	; (400bc8 <sysclk_init+0x3c>)
  400bc2:	4b02      	ldr	r3, [pc, #8]	; (400bcc <sysclk_init+0x40>)
  400bc4:	4798      	blx	r3
  400bc6:	bd10      	pop	{r4, pc}
  400bc8:	07270e00 	.word	0x07270e00
  400bcc:	00401591 	.word	0x00401591
  400bd0:	00401275 	.word	0x00401275
  400bd4:	004012c9 	.word	0x004012c9
  400bd8:	004012d9 	.word	0x004012d9
  400bdc:	20133f01 	.word	0x20133f01
  400be0:	400e0400 	.word	0x400e0400
  400be4:	004012e9 	.word	0x004012e9
  400be8:	00401211 	.word	0x00401211
  400bec:	00401481 	.word	0x00401481

00400bf0 <board_init>:
#include "conf_board.h"
#include "gpio.h"
#include "ioport.h"

void board_init(void)
{
  400bf0:	b538      	push	{r3, r4, r5, lr}
#ifndef CONF_BOARD_KEEP_WATCHDOG_AT_INIT
	/* Disable the watchdog */
	WDT->WDT_MR = WDT_MR_WDDIS;
  400bf2:	f44f 4200 	mov.w	r2, #32768	; 0x8000
  400bf6:	4b46      	ldr	r3, [pc, #280]	; (400d10 <board_init+0x120>)
  400bf8:	605a      	str	r2, [r3, #4]
 *
 * \param ul_id Id (number) of the peripheral clock.
 */
static inline void sysclk_enable_peripheral_clock(uint32_t ul_id)
{
	pmc_enable_periph_clk(ul_id);
  400bfa:	200b      	movs	r0, #11
  400bfc:	4c45      	ldr	r4, [pc, #276]	; (400d14 <board_init+0x124>)
  400bfe:	47a0      	blx	r4
  400c00:	200c      	movs	r0, #12
  400c02:	47a0      	blx	r4
  400c04:	200d      	movs	r0, #13
  400c06:	47a0      	blx	r4
	 * Here IOPORT must be initialized for others to use before setting up IO.
	 */
	ioport_init();

	/* Configure LED pins */
	gpio_configure_pin(LED0_GPIO, LED0_FLAGS);
  400c08:	f04f 5160 	mov.w	r1, #939524096	; 0x38000000
  400c0c:	2013      	movs	r0, #19
  400c0e:	4c42      	ldr	r4, [pc, #264]	; (400d18 <board_init+0x128>)
  400c10:	47a0      	blx	r4
	gpio_configure_pin(LED1_GPIO, LED1_FLAGS);
  400c12:	f04f 5160 	mov.w	r1, #939524096	; 0x38000000
  400c16:	2014      	movs	r0, #20
  400c18:	47a0      	blx	r4

	/* Configure Push Button pins */
	gpio_configure_pin(GPIO_PUSH_BUTTON_1, GPIO_PUSH_BUTTON_1_FLAGS);
  400c1a:	4940      	ldr	r1, [pc, #256]	; (400d1c <board_init+0x12c>)
  400c1c:	2023      	movs	r0, #35	; 0x23
  400c1e:	47a0      	blx	r4
	gpio_configure_pin(GPIO_PUSH_BUTTON_2, GPIO_PUSH_BUTTON_2_FLAGS);
  400c20:	493f      	ldr	r1, [pc, #252]	; (400d20 <board_init+0x130>)
  400c22:	204c      	movs	r0, #76	; 0x4c
  400c24:	47a0      	blx	r4

#ifdef CONF_BOARD_UART_CONSOLE
	/* Configure UART pins */
	gpio_configure_group(PINS_UART0_PIO, PINS_UART0, PINS_UART0_FLAGS);
  400c26:	f04f 6200 	mov.w	r2, #134217728	; 0x8000000
  400c2a:	f44f 61c0 	mov.w	r1, #1536	; 0x600
  400c2e:	483d      	ldr	r0, [pc, #244]	; (400d24 <board_init+0x134>)
  400c30:	4b3d      	ldr	r3, [pc, #244]	; (400d28 <board_init+0x138>)
  400c32:	4798      	blx	r3
#endif

	/* Configure ADC example pins */
#ifdef CONF_BOARD_ADC
	/* TC TIOA configuration */
	gpio_configure_pin(PIN_TC0_TIOA0,PIN_TC0_TIOA0_FLAGS);
  400c34:	f04f 5180 	mov.w	r1, #268435456	; 0x10000000
  400c38:	2000      	movs	r0, #0
  400c3a:	47a0      	blx	r4

	/* ADC Trigger configuration */
	gpio_configure_pin(PINS_ADC_TRIG, PINS_ADC_TRIG_FLAG);
  400c3c:	f04f 5180 	mov.w	r1, #268435456	; 0x10000000
  400c40:	2008      	movs	r0, #8
  400c42:	47a0      	blx	r4

	/* PWMH0 configuration */
	gpio_configure_pin(PIN_PWMC_PWMH0_TRIG, PIN_PWMC_PWMH0_TRIG_FLAG);
  400c44:	f04f 5180 	mov.w	r1, #268435456	; 0x10000000
  400c48:	2052      	movs	r0, #82	; 0x52
  400c4a:	47a0      	blx	r4
	gpio_configure_pin(TWI1_CLK_GPIO, TWI1_CLK_FLAGS);
#endif

	/* Configure SPI pins */
#ifdef CONF_BOARD_SPI
	gpio_configure_pin(SPI_MISO_GPIO, SPI_MISO_FLAGS);
  400c4c:	f04f 6100 	mov.w	r1, #134217728	; 0x8000000
  400c50:	200c      	movs	r0, #12
  400c52:	47a0      	blx	r4
	gpio_configure_pin(SPI_MOSI_GPIO, SPI_MOSI_FLAGS);
  400c54:	f04f 6100 	mov.w	r1, #134217728	; 0x8000000
  400c58:	200d      	movs	r0, #13
  400c5a:	47a0      	blx	r4
	gpio_configure_pin(SPI_SPCK_GPIO, SPI_SPCK_FLAGS);
  400c5c:	f04f 6100 	mov.w	r1, #134217728	; 0x8000000
  400c60:	200e      	movs	r0, #14
  400c62:	47a0      	blx	r4
	 * Hence a different PIN should be selected using the CONF_BOARD_SPI_NPCS_GPIO and
	 * CONF_BOARD_SPI_NPCS_FLAGS macros.
	 */

#  ifdef CONF_BOARD_SPI_NPCS0
	gpio_configure_pin(SPI_NPCS0_GPIO, SPI_NPCS0_FLAGS);
  400c64:	f04f 6100 	mov.w	r1, #134217728	; 0x8000000
  400c68:	200b      	movs	r0, #11
  400c6a:	47a0      	blx	r4
#  endif
#endif /* CONF_BOARD_SPI */

#ifdef CONF_BOARD_USART_RXD
	/* Configure USART RXD pin */
	gpio_configure_pin(PIN_USART1_RXD_IDX, PIN_USART1_RXD_FLAGS);
  400c6c:	f04f 6100 	mov.w	r1, #134217728	; 0x8000000
  400c70:	2015      	movs	r0, #21
  400c72:	47a0      	blx	r4
#endif

#ifdef CONF_BOARD_USART_TXD
	/* Configure USART TXD pin */
	gpio_configure_pin(PIN_USART1_TXD_IDX, PIN_USART1_TXD_FLAGS);
  400c74:	f04f 6100 	mov.w	r1, #134217728	; 0x8000000
  400c78:	2016      	movs	r0, #22
  400c7a:	47a0      	blx	r4
	gpio_configure_pin(PIN_USART1_SCK_IDX, PIN_USART1_SCK_FLAGS);
#endif

#ifdef CONF_BOARD_ADM3312_EN
	/* Configure ADM33312 enable pin */
	gpio_configure_pin(PIN_USART1_EN_IDX, PIN_USART1_EN_FLAGS);
  400c7c:	f04f 5140 	mov.w	r1, #805306368	; 0x30000000
  400c80:	2017      	movs	r0, #23
  400c82:	47a0      	blx	r4
	gpio_set_pin_low(PIN_USART1_EN_IDX);
  400c84:	2017      	movs	r0, #23
  400c86:	4b29      	ldr	r3, [pc, #164]	; (400d2c <board_init+0x13c>)
  400c88:	4798      	blx	r3
	gpio_set_pin_low(PIN_RE_IDX);
#endif

#if defined(CONF_BOARD_ILI9325) || defined(CONF_BOARD_ILI93XX)
	/* Configure LCD EBI pins */
	gpio_configure_pin(PIN_EBI_DATA_BUS_D0, PIN_EBI_DATA_BUS_FLAGS);
  400c8a:	4d29      	ldr	r5, [pc, #164]	; (400d30 <board_init+0x140>)
  400c8c:	4629      	mov	r1, r5
  400c8e:	2040      	movs	r0, #64	; 0x40
  400c90:	47a0      	blx	r4
	gpio_configure_pin(PIN_EBI_DATA_BUS_D1, PIN_EBI_DATA_BUS_FLAGS);
  400c92:	4629      	mov	r1, r5
  400c94:	2041      	movs	r0, #65	; 0x41
  400c96:	47a0      	blx	r4
	gpio_configure_pin(PIN_EBI_DATA_BUS_D2, PIN_EBI_DATA_BUS_FLAGS);
  400c98:	4629      	mov	r1, r5
  400c9a:	2042      	movs	r0, #66	; 0x42
  400c9c:	47a0      	blx	r4
	gpio_configure_pin(PIN_EBI_DATA_BUS_D3, PIN_EBI_DATA_BUS_FLAGS);
  400c9e:	4629      	mov	r1, r5
  400ca0:	2043      	movs	r0, #67	; 0x43
  400ca2:	47a0      	blx	r4
	gpio_configure_pin(PIN_EBI_DATA_BUS_D4, PIN_EBI_DATA_BUS_FLAGS);
  400ca4:	4629      	mov	r1, r5
  400ca6:	2044      	movs	r0, #68	; 0x44
  400ca8:	47a0      	blx	r4
	gpio_configure_pin(PIN_EBI_DATA_BUS_D5, PIN_EBI_DATA_BUS_FLAGS);
  400caa:	4629      	mov	r1, r5
  400cac:	2045      	movs	r0, #69	; 0x45
  400cae:	47a0      	blx	r4
	gpio_configure_pin(PIN_EBI_DATA_BUS_D6, PIN_EBI_DATA_BUS_FLAGS);
  400cb0:	4629      	mov	r1, r5
  400cb2:	2046      	movs	r0, #70	; 0x46
  400cb4:	47a0      	blx	r4
	gpio_configure_pin(PIN_EBI_DATA_BUS_D7, PIN_EBI_DATA_BUS_FLAGS);
  400cb6:	4629      	mov	r1, r5
  400cb8:	2047      	movs	r0, #71	; 0x47
  400cba:	47a0      	blx	r4
	gpio_configure_pin(PIN_EBI_NRD, PIN_EBI_NRD_FLAGS);
  400cbc:	4629      	mov	r1, r5
  400cbe:	204b      	movs	r0, #75	; 0x4b
  400cc0:	47a0      	blx	r4
	gpio_configure_pin(PIN_EBI_NWE, PIN_EBI_NWE_FLAGS);
  400cc2:	4629      	mov	r1, r5
  400cc4:	2048      	movs	r0, #72	; 0x48
  400cc6:	47a0      	blx	r4
	gpio_configure_pin(PIN_EBI_NCS1, PIN_EBI_NCS1_FLAGS);
  400cc8:	4629      	mov	r1, r5
  400cca:	204f      	movs	r0, #79	; 0x4f
  400ccc:	47a0      	blx	r4
	gpio_configure_pin(PIN_EBI_LCD_RS, PIN_EBI_LCD_RS_FLAGS);
  400cce:	4629      	mov	r1, r5
  400cd0:	2053      	movs	r0, #83	; 0x53
  400cd2:	47a0      	blx	r4
#endif

#ifdef CONF_BOARD_AAT3155
	/* Configure Backlight control pin */
	gpio_configure_pin(BOARD_AAT31XX_SET_GPIO, BOARD_AAT31XX_SET_FLAGS);
  400cd4:	f04f 5140 	mov.w	r1, #805306368	; 0x30000000
  400cd8:	204d      	movs	r0, #77	; 0x4d
  400cda:	47a0      	blx	r4
#endif

#ifdef CONF_BOARD_ADS7843
	/* Configure Touchscreen SPI pins */
	gpio_configure_pin(BOARD_ADS7843_IRQ_GPIO,BOARD_ADS7843_IRQ_FLAGS);
  400cdc:	f105 5500 	add.w	r5, r5, #536870912	; 0x20000000
  400ce0:	4629      	mov	r1, r5
  400ce2:	2010      	movs	r0, #16
  400ce4:	47a0      	blx	r4
	gpio_configure_pin(BOARD_ADS7843_BUSY_GPIO, BOARD_ADS7843_BUSY_FLAGS);
  400ce6:	4629      	mov	r1, r5
  400ce8:	2011      	movs	r0, #17
  400cea:	47a0      	blx	r4
	gpio_configure_pin(SPI_MISO_GPIO, SPI_MISO_FLAGS);
  400cec:	f04f 6100 	mov.w	r1, #134217728	; 0x8000000
  400cf0:	200c      	movs	r0, #12
  400cf2:	47a0      	blx	r4
	gpio_configure_pin(SPI_MOSI_GPIO, SPI_MOSI_FLAGS);
  400cf4:	f04f 6100 	mov.w	r1, #134217728	; 0x8000000
  400cf8:	200d      	movs	r0, #13
  400cfa:	47a0      	blx	r4
	gpio_configure_pin(SPI_SPCK_GPIO, SPI_SPCK_FLAGS);
  400cfc:	f04f 6100 	mov.w	r1, #134217728	; 0x8000000
  400d00:	200e      	movs	r0, #14
  400d02:	47a0      	blx	r4
	gpio_configure_pin(SPI_NPCS0_GPIO, SPI_NPCS0_FLAGS);
  400d04:	f04f 6100 	mov.w	r1, #134217728	; 0x8000000
  400d08:	200b      	movs	r0, #11
  400d0a:	47a0      	blx	r4
  400d0c:	bd38      	pop	{r3, r4, r5, pc}
  400d0e:	bf00      	nop
  400d10:	400e1450 	.word	0x400e1450
  400d14:	004012f9 	.word	0x004012f9
  400d18:	00400f05 	.word	0x00400f05
  400d1c:	28000079 	.word	0x28000079
  400d20:	28000059 	.word	0x28000059
  400d24:	400e0e00 	.word	0x400e0e00
  400d28:	00401025 	.word	0x00401025
  400d2c:	00400ee9 	.word	0x00400ee9
  400d30:	08000001 	.word	0x08000001

00400d34 <LED_Off>:
 * \param led_gpio LED to turn off (LEDx_GPIO).
 *
 * \note The pins of the specified LEDs are set to GPIO output mode.
 */
void LED_Off(uint32_t led_gpio)
{
  400d34:	e92d 41f0 	stmdb	sp!, {r4, r5, r6, r7, r8, lr}
  400d38:	4606      	mov	r6, r0
  400d3a:	2400      	movs	r4, #0
	uint32_t i;
	for (i = 0; i < BOARD_NUM_OF_LED; i++) {
		if (led_gpio == LED_DESCRIPTOR[i].ul_port_id) {
  400d3c:	4d09      	ldr	r5, [pc, #36]	; (400d64 <LED_Off+0x30>)
			if (LED_DESCRIPTOR[i].ul_active_level == ACTIVE_LEVEL_IS_HIGH) {
				gpio_set_pin_low(led_gpio);
			} else {
				gpio_set_pin_high(led_gpio);
  400d3e:	4f0a      	ldr	r7, [pc, #40]	; (400d68 <LED_Off+0x34>)
				gpio_set_pin_low(led_gpio);
  400d40:	f8df 8028 	ldr.w	r8, [pc, #40]	; 400d6c <LED_Off+0x38>
  400d44:	e003      	b.n	400d4e <LED_Off+0x1a>
  400d46:	47c0      	blx	r8
  400d48:	3408      	adds	r4, #8
	for (i = 0; i < BOARD_NUM_OF_LED; i++) {
  400d4a:	2c18      	cmp	r4, #24
  400d4c:	d008      	beq.n	400d60 <LED_Off+0x2c>
		if (led_gpio == LED_DESCRIPTOR[i].ul_port_id) {
  400d4e:	5960      	ldr	r0, [r4, r5]
  400d50:	42b0      	cmp	r0, r6
  400d52:	d1f9      	bne.n	400d48 <LED_Off+0x14>
			if (LED_DESCRIPTOR[i].ul_active_level == ACTIVE_LEVEL_IS_HIGH) {
  400d54:	192b      	adds	r3, r5, r4
  400d56:	685b      	ldr	r3, [r3, #4]
  400d58:	2b01      	cmp	r3, #1
  400d5a:	d0f4      	beq.n	400d46 <LED_Off+0x12>
				gpio_set_pin_high(led_gpio);
  400d5c:	47b8      	blx	r7
  400d5e:	e7f3      	b.n	400d48 <LED_Off+0x14>
			}
		}
	}
}
  400d60:	e8bd 81f0 	ldmia.w	sp!, {r4, r5, r6, r7, r8, pc}
  400d64:	00408b28 	.word	0x00408b28
  400d68:	00400ecf 	.word	0x00400ecf
  400d6c:	00400ee9 	.word	0x00400ee9

00400d70 <LED_On>:
 * \param led_gpio LED to turn on (LEDx_GPIO).
 *
 * \note The pins of the specified LEDs are set to GPIO output mode.
 */
void LED_On(uint32_t led_gpio)
{
  400d70:	e92d 41f0 	stmdb	sp!, {r4, r5, r6, r7, r8, lr}
  400d74:	4606      	mov	r6, r0
  400d76:	2400      	movs	r4, #0
	uint32_t i;
	for (i = 0; i < BOARD_NUM_OF_LED; i++) {
		if (led_gpio == LED_DESCRIPTOR[i].ul_port_id) {
  400d78:	4d09      	ldr	r5, [pc, #36]	; (400da0 <LED_On+0x30>)
			if (LED_DESCRIPTOR[i].ul_active_level == ACTIVE_LEVEL_IS_HIGH) {
				gpio_set_pin_high(led_gpio);
			} else {
				gpio_set_pin_low(led_gpio);
  400d7a:	4f0a      	ldr	r7, [pc, #40]	; (400da4 <LED_On+0x34>)
				gpio_set_pin_high(led_gpio);
  400d7c:	f8df 8028 	ldr.w	r8, [pc, #40]	; 400da8 <LED_On+0x38>
  400d80:	e003      	b.n	400d8a <LED_On+0x1a>
  400d82:	47c0      	blx	r8
  400d84:	3408      	adds	r4, #8
	for (i = 0; i < BOARD_NUM_OF_LED; i++) {
  400d86:	2c18      	cmp	r4, #24
  400d88:	d008      	beq.n	400d9c <LED_On+0x2c>
		if (led_gpio == LED_DESCRIPTOR[i].ul_port_id) {
  400d8a:	5960      	ldr	r0, [r4, r5]
  400d8c:	42b0      	cmp	r0, r6
  400d8e:	d1f9      	bne.n	400d84 <LED_On+0x14>
			if (LED_DESCRIPTOR[i].ul_active_level == ACTIVE_LEVEL_IS_HIGH) {
  400d90:	192b      	adds	r3, r5, r4
  400d92:	685b      	ldr	r3, [r3, #4]
  400d94:	2b01      	cmp	r3, #1
  400d96:	d0f4      	beq.n	400d82 <LED_On+0x12>
				gpio_set_pin_low(led_gpio);
  400d98:	47b8      	blx	r7
  400d9a:	e7f3      	b.n	400d84 <LED_On+0x14>
			}
		}
	}
}
  400d9c:	e8bd 81f0 	ldmia.w	sp!, {r4, r5, r6, r7, r8, pc}
  400da0:	00408b28 	.word	0x00408b28
  400da4:	00400ee9 	.word	0x00400ee9
  400da8:	00400ecf 	.word	0x00400ecf

00400dac <pio_set_peripheral>:
		const uint32_t ul_mask)
{
	uint32_t ul_sr;

	/* Disable interrupts on the pin(s) */
	p_pio->PIO_IDR = ul_mask;
  400dac:	6442      	str	r2, [r0, #68]	; 0x44

#if (SAM3S || SAM3N || SAM4S || SAM4E || SAM4N || SAM4C || SAMG || SAM4CP || SAM4CM || SAMV71 || SAMV70 || SAME70 || SAMS70)
	switch (ul_type) {
  400dae:	f1b1 5fc0 	cmp.w	r1, #402653184	; 0x18000000
  400db2:	d039      	beq.n	400e28 <pio_set_peripheral+0x7c>
  400db4:	d813      	bhi.n	400dde <pio_set_peripheral+0x32>
  400db6:	f1b1 6f00 	cmp.w	r1, #134217728	; 0x8000000
  400dba:	d025      	beq.n	400e08 <pio_set_peripheral+0x5c>
  400dbc:	f1b1 5f80 	cmp.w	r1, #268435456	; 0x10000000
  400dc0:	d10a      	bne.n	400dd8 <pio_set_peripheral+0x2c>

		ul_sr = p_pio->PIO_ABCDSR[1];
		p_pio->PIO_ABCDSR[1] &= (~ul_mask & ul_sr);
		break;
	case PIO_PERIPH_B:
		ul_sr = p_pio->PIO_ABCDSR[0];
  400dc2:	6f03      	ldr	r3, [r0, #112]	; 0x70
		p_pio->PIO_ABCDSR[0] = (ul_mask | ul_sr);
  400dc4:	4313      	orrs	r3, r2
  400dc6:	6703      	str	r3, [r0, #112]	; 0x70

		ul_sr = p_pio->PIO_ABCDSR[1];
  400dc8:	6f43      	ldr	r3, [r0, #116]	; 0x74
		p_pio->PIO_ABCDSR[1] &= (~ul_mask & ul_sr);
  400dca:	6f41      	ldr	r1, [r0, #116]	; 0x74
  400dcc:	400b      	ands	r3, r1
  400dce:	ea23 0302 	bic.w	r3, r3, r2
  400dd2:	6743      	str	r3, [r0, #116]	; 0x74
#else
#error "Unsupported device"
#endif

	/* Remove the pins from under the control of PIO */
	p_pio->PIO_PDR = ul_mask;
  400dd4:	6042      	str	r2, [r0, #4]
  400dd6:	4770      	bx	lr
	switch (ul_type) {
  400dd8:	2900      	cmp	r1, #0
  400dda:	d1fb      	bne.n	400dd4 <pio_set_peripheral+0x28>
  400ddc:	4770      	bx	lr
  400dde:	f1b1 5f20 	cmp.w	r1, #671088640	; 0x28000000
  400de2:	d020      	beq.n	400e26 <pio_set_peripheral+0x7a>
  400de4:	d809      	bhi.n	400dfa <pio_set_peripheral+0x4e>
  400de6:	f1b1 5f00 	cmp.w	r1, #536870912	; 0x20000000
  400dea:	d1f3      	bne.n	400dd4 <pio_set_peripheral+0x28>
		ul_sr = p_pio->PIO_ABCDSR[0];
  400dec:	6f03      	ldr	r3, [r0, #112]	; 0x70
		p_pio->PIO_ABCDSR[0] = (ul_mask | ul_sr);
  400dee:	4313      	orrs	r3, r2
  400df0:	6703      	str	r3, [r0, #112]	; 0x70
		ul_sr = p_pio->PIO_ABCDSR[1];
  400df2:	6f43      	ldr	r3, [r0, #116]	; 0x74
		p_pio->PIO_ABCDSR[1] = (ul_mask | ul_sr);
  400df4:	4313      	orrs	r3, r2
  400df6:	6743      	str	r3, [r0, #116]	; 0x74
		break;
  400df8:	e7ec      	b.n	400dd4 <pio_set_peripheral+0x28>
	switch (ul_type) {
  400dfa:	f1b1 5f40 	cmp.w	r1, #805306368	; 0x30000000
  400dfe:	d012      	beq.n	400e26 <pio_set_peripheral+0x7a>
  400e00:	f1b1 5f60 	cmp.w	r1, #939524096	; 0x38000000
  400e04:	d00f      	beq.n	400e26 <pio_set_peripheral+0x7a>
  400e06:	e7e5      	b.n	400dd4 <pio_set_peripheral+0x28>
{
  400e08:	b410      	push	{r4}
		ul_sr = p_pio->PIO_ABCDSR[0];
  400e0a:	6f01      	ldr	r1, [r0, #112]	; 0x70
		p_pio->PIO_ABCDSR[0] &= (~ul_mask & ul_sr);
  400e0c:	6f04      	ldr	r4, [r0, #112]	; 0x70
  400e0e:	43d3      	mvns	r3, r2
  400e10:	4021      	ands	r1, r4
  400e12:	461c      	mov	r4, r3
  400e14:	4019      	ands	r1, r3
  400e16:	6701      	str	r1, [r0, #112]	; 0x70
		ul_sr = p_pio->PIO_ABCDSR[1];
  400e18:	6f43      	ldr	r3, [r0, #116]	; 0x74
		p_pio->PIO_ABCDSR[1] &= (~ul_mask & ul_sr);
  400e1a:	6f41      	ldr	r1, [r0, #116]	; 0x74
  400e1c:	400b      	ands	r3, r1
  400e1e:	4023      	ands	r3, r4
  400e20:	6743      	str	r3, [r0, #116]	; 0x74
	p_pio->PIO_PDR = ul_mask;
  400e22:	6042      	str	r2, [r0, #4]
}
  400e24:	bc10      	pop	{r4}
  400e26:	4770      	bx	lr
		ul_sr = p_pio->PIO_ABCDSR[0];
  400e28:	6f03      	ldr	r3, [r0, #112]	; 0x70
		p_pio->PIO_ABCDSR[0] &= (~ul_mask & ul_sr);
  400e2a:	6f01      	ldr	r1, [r0, #112]	; 0x70
  400e2c:	400b      	ands	r3, r1
  400e2e:	ea23 0302 	bic.w	r3, r3, r2
  400e32:	6703      	str	r3, [r0, #112]	; 0x70
		ul_sr = p_pio->PIO_ABCDSR[1];
  400e34:	6f43      	ldr	r3, [r0, #116]	; 0x74
		p_pio->PIO_ABCDSR[1] = (ul_mask | ul_sr);
  400e36:	4313      	orrs	r3, r2
  400e38:	6743      	str	r3, [r0, #116]	; 0x74
		break;
  400e3a:	e7cb      	b.n	400dd4 <pio_set_peripheral+0x28>

00400e3c <pio_set_input>:
 * \param p_pio Pointer to a PIO instance.
 * \param ul_mask Interrupt sources bit map.
 */
void pio_disable_interrupt(Pio *p_pio, const uint32_t ul_mask)
{
	p_pio->PIO_IDR = ul_mask;
  400e3c:	6441      	str	r1, [r0, #68]	; 0x44
	if (ul_pull_up_enable) {
  400e3e:	f012 0f01 	tst.w	r2, #1
		p_pio->PIO_PUER = ul_mask;
  400e42:	bf14      	ite	ne
  400e44:	6641      	strne	r1, [r0, #100]	; 0x64
		p_pio->PIO_PUDR = ul_mask;
  400e46:	6601      	streq	r1, [r0, #96]	; 0x60
	if (ul_attribute & (PIO_DEGLITCH | PIO_DEBOUNCE)) {
  400e48:	f012 0f0a 	tst.w	r2, #10
		p_pio->PIO_IFER = ul_mask;
  400e4c:	bf14      	ite	ne
  400e4e:	6201      	strne	r1, [r0, #32]
		p_pio->PIO_IFDR = ul_mask;
  400e50:	6241      	streq	r1, [r0, #36]	; 0x24
	if (ul_attribute & PIO_DEGLITCH) {
  400e52:	f012 0f02 	tst.w	r2, #2
  400e56:	d107      	bne.n	400e68 <pio_set_input+0x2c>
		if (ul_attribute & PIO_DEBOUNCE) {
  400e58:	f012 0f08 	tst.w	r2, #8
			p_pio->PIO_IFSCER = ul_mask;
  400e5c:	bf18      	it	ne
  400e5e:	f8c0 1084 	strne.w	r1, [r0, #132]	; 0x84
	p_pio->PIO_ODR = ul_mask;
  400e62:	6141      	str	r1, [r0, #20]
	p_pio->PIO_PER = ul_mask;
  400e64:	6001      	str	r1, [r0, #0]
  400e66:	4770      	bx	lr
		p_pio->PIO_IFSCDR = ul_mask;
  400e68:	f8c0 1080 	str.w	r1, [r0, #128]	; 0x80
  400e6c:	e7f9      	b.n	400e62 <pio_set_input+0x26>

00400e6e <pio_set_output>:
{
  400e6e:	b410      	push	{r4}
  400e70:	9c01      	ldr	r4, [sp, #4]
	p_pio->PIO_IDR = ul_mask;
  400e72:	6441      	str	r1, [r0, #68]	; 0x44
	if (ul_pull_up_enable) {
  400e74:	b944      	cbnz	r4, 400e88 <pio_set_output+0x1a>
		p_pio->PIO_PUDR = ul_mask;
  400e76:	6601      	str	r1, [r0, #96]	; 0x60
	if (ul_multidrive_enable) {
  400e78:	b143      	cbz	r3, 400e8c <pio_set_output+0x1e>
		p_pio->PIO_MDER = ul_mask;
  400e7a:	6501      	str	r1, [r0, #80]	; 0x50
	if (ul_default_level) {
  400e7c:	b942      	cbnz	r2, 400e90 <pio_set_output+0x22>
		p_pio->PIO_CODR = ul_mask;
  400e7e:	6341      	str	r1, [r0, #52]	; 0x34
	p_pio->PIO_OER = ul_mask;
  400e80:	6101      	str	r1, [r0, #16]
	p_pio->PIO_PER = ul_mask;
  400e82:	6001      	str	r1, [r0, #0]
}
  400e84:	bc10      	pop	{r4}
  400e86:	4770      	bx	lr
		p_pio->PIO_PUER = ul_mask;
  400e88:	6641      	str	r1, [r0, #100]	; 0x64
  400e8a:	e7f5      	b.n	400e78 <pio_set_output+0xa>
		p_pio->PIO_MDDR = ul_mask;
  400e8c:	6541      	str	r1, [r0, #84]	; 0x54
  400e8e:	e7f5      	b.n	400e7c <pio_set_output+0xe>
		p_pio->PIO_SODR = ul_mask;
  400e90:	6301      	str	r1, [r0, #48]	; 0x30
  400e92:	e7f5      	b.n	400e80 <pio_set_output+0x12>

00400e94 <pio_configure_interrupt>:
	if (ul_attr & PIO_IT_AIME) {
  400e94:	f012 0f10 	tst.w	r2, #16
  400e98:	d010      	beq.n	400ebc <pio_configure_interrupt+0x28>
		p_pio->PIO_AIMER = ul_mask;
  400e9a:	f8c0 10b0 	str.w	r1, [r0, #176]	; 0xb0
		if (ul_attr & PIO_IT_RE_OR_HL) {
  400e9e:	f012 0f20 	tst.w	r2, #32
			p_pio->PIO_REHLSR = ul_mask;
  400ea2:	bf14      	ite	ne
  400ea4:	f8c0 10d4 	strne.w	r1, [r0, #212]	; 0xd4
			p_pio->PIO_FELLSR = ul_mask;
  400ea8:	f8c0 10d0 	streq.w	r1, [r0, #208]	; 0xd0
		if (ul_attr & PIO_IT_EDGE) {
  400eac:	f012 0f40 	tst.w	r2, #64	; 0x40
			p_pio->PIO_ESR = ul_mask;
  400eb0:	bf14      	ite	ne
  400eb2:	f8c0 10c0 	strne.w	r1, [r0, #192]	; 0xc0
			p_pio->PIO_LSR = ul_mask;
  400eb6:	f8c0 10c4 	streq.w	r1, [r0, #196]	; 0xc4
  400eba:	4770      	bx	lr
		p_pio->PIO_AIMDR = ul_mask;
  400ebc:	f8c0 10b4 	str.w	r1, [r0, #180]	; 0xb4
  400ec0:	4770      	bx	lr

00400ec2 <pio_enable_interrupt>:
	p_pio->PIO_IER = ul_mask;
  400ec2:	6401      	str	r1, [r0, #64]	; 0x40
  400ec4:	4770      	bx	lr

00400ec6 <pio_get_interrupt_status>:
 *
 * \return The interrupt status value.
 */
uint32_t pio_get_interrupt_status(const Pio *p_pio)
{
	return p_pio->PIO_ISR;
  400ec6:	6cc0      	ldr	r0, [r0, #76]	; 0x4c
}
  400ec8:	4770      	bx	lr

00400eca <pio_get_interrupt_mask>:
 *
 * \return The interrupt mask value.
 */
uint32_t pio_get_interrupt_mask(const Pio *p_pio)
{
	return p_pio->PIO_IMR;
  400eca:	6c80      	ldr	r0, [r0, #72]	; 0x48
}
  400ecc:	4770      	bx	lr

00400ece <pio_set_pin_high>:
		p_pio = PIOC;
	} else {
		p_pio = (Pio *)((uint32_t)PIOA + (PIO_DELTA * (ul_pin >> 5)));
	}
#else
	p_pio = (Pio *)((uint32_t)PIOA + (PIO_DELTA * (ul_pin >> 5)));
  400ece:	0943      	lsrs	r3, r0, #5
  400ed0:	f503 1300 	add.w	r3, r3, #2097152	; 0x200000
  400ed4:	f203 7307 	addw	r3, r3, #1799	; 0x707
  400ed8:	025b      	lsls	r3, r3, #9
	p_pio->PIO_SODR = 1 << (ul_pin & 0x1F);
  400eda:	f000 001f 	and.w	r0, r0, #31
  400ede:	2201      	movs	r2, #1
  400ee0:	fa02 f000 	lsl.w	r0, r2, r0
  400ee4:	6318      	str	r0, [r3, #48]	; 0x30
  400ee6:	4770      	bx	lr

00400ee8 <pio_set_pin_low>:
	p_pio = (Pio *)((uint32_t)PIOA + (PIO_DELTA * (ul_pin >> 5)));
  400ee8:	0943      	lsrs	r3, r0, #5
  400eea:	f503 1300 	add.w	r3, r3, #2097152	; 0x200000
  400eee:	f203 7307 	addw	r3, r3, #1799	; 0x707
  400ef2:	025b      	lsls	r3, r3, #9
	p_pio->PIO_CODR = 1 << (ul_pin & 0x1F);
  400ef4:	f000 001f 	and.w	r0, r0, #31
  400ef8:	2201      	movs	r2, #1
  400efa:	fa02 f000 	lsl.w	r0, r2, r0
  400efe:	6358      	str	r0, [r3, #52]	; 0x34
  400f00:	4770      	bx	lr
	...

00400f04 <pio_configure_pin>:
{
  400f04:	b570      	push	{r4, r5, r6, lr}
  400f06:	b082      	sub	sp, #8
  400f08:	460d      	mov	r5, r1
	p_pio = (Pio *)((uint32_t)PIOA + (PIO_DELTA * (ul_pin >> 5)));
  400f0a:	0943      	lsrs	r3, r0, #5
  400f0c:	f503 1300 	add.w	r3, r3, #2097152	; 0x200000
  400f10:	f203 7307 	addw	r3, r3, #1799	; 0x707
  400f14:	025c      	lsls	r4, r3, #9
	switch (ul_flags & PIO_TYPE_Msk) {
  400f16:	f001 43f0 	and.w	r3, r1, #2013265920	; 0x78000000
  400f1a:	f1b3 5f00 	cmp.w	r3, #536870912	; 0x20000000
  400f1e:	d053      	beq.n	400fc8 <pio_configure_pin+0xc4>
  400f20:	d80a      	bhi.n	400f38 <pio_configure_pin+0x34>
  400f22:	f1b3 5f80 	cmp.w	r3, #268435456	; 0x10000000
  400f26:	d02d      	beq.n	400f84 <pio_configure_pin+0x80>
  400f28:	f1b3 5fc0 	cmp.w	r3, #402653184	; 0x18000000
  400f2c:	d03b      	beq.n	400fa6 <pio_configure_pin+0xa2>
  400f2e:	f1b3 6f00 	cmp.w	r3, #134217728	; 0x8000000
  400f32:	d015      	beq.n	400f60 <pio_configure_pin+0x5c>
		return 0;
  400f34:	2000      	movs	r0, #0
  400f36:	e023      	b.n	400f80 <pio_configure_pin+0x7c>
	switch (ul_flags & PIO_TYPE_Msk) {
  400f38:	f1b3 5f40 	cmp.w	r3, #805306368	; 0x30000000
  400f3c:	d055      	beq.n	400fea <pio_configure_pin+0xe6>
  400f3e:	f1b3 5f60 	cmp.w	r3, #939524096	; 0x38000000
  400f42:	d052      	beq.n	400fea <pio_configure_pin+0xe6>
  400f44:	f1b3 5f20 	cmp.w	r3, #671088640	; 0x28000000
  400f48:	d1f4      	bne.n	400f34 <pio_configure_pin+0x30>
		pio_set_input(p_pio, (1 << (ul_pin & 0x1F)), ul_flags);
  400f4a:	f000 011f 	and.w	r1, r0, #31
  400f4e:	2601      	movs	r6, #1
  400f50:	462a      	mov	r2, r5
  400f52:	fa06 f101 	lsl.w	r1, r6, r1
  400f56:	4620      	mov	r0, r4
  400f58:	4b2f      	ldr	r3, [pc, #188]	; (401018 <pio_configure_pin+0x114>)
  400f5a:	4798      	blx	r3
	return 1;
  400f5c:	4630      	mov	r0, r6
		break;
  400f5e:	e00f      	b.n	400f80 <pio_configure_pin+0x7c>
		pio_set_peripheral(p_pio, PIO_PERIPH_A, (1 << (ul_pin & 0x1F)));
  400f60:	f000 001f 	and.w	r0, r0, #31
  400f64:	2601      	movs	r6, #1
  400f66:	4086      	lsls	r6, r0
  400f68:	4632      	mov	r2, r6
  400f6a:	f04f 6100 	mov.w	r1, #134217728	; 0x8000000
  400f6e:	4620      	mov	r0, r4
  400f70:	4b2a      	ldr	r3, [pc, #168]	; (40101c <pio_configure_pin+0x118>)
  400f72:	4798      	blx	r3
	if (ul_pull_up_enable) {
  400f74:	f015 0f01 	tst.w	r5, #1
		p_pio->PIO_PUER = ul_mask;
  400f78:	bf14      	ite	ne
  400f7a:	6666      	strne	r6, [r4, #100]	; 0x64
		p_pio->PIO_PUDR = ul_mask;
  400f7c:	6626      	streq	r6, [r4, #96]	; 0x60
	return 1;
  400f7e:	2001      	movs	r0, #1
}
  400f80:	b002      	add	sp, #8
  400f82:	bd70      	pop	{r4, r5, r6, pc}
		pio_set_peripheral(p_pio, PIO_PERIPH_B, (1 << (ul_pin & 0x1F)));
  400f84:	f000 001f 	and.w	r0, r0, #31
  400f88:	2601      	movs	r6, #1
  400f8a:	4086      	lsls	r6, r0
  400f8c:	4632      	mov	r2, r6
  400f8e:	f04f 5180 	mov.w	r1, #268435456	; 0x10000000
  400f92:	4620      	mov	r0, r4
  400f94:	4b21      	ldr	r3, [pc, #132]	; (40101c <pio_configure_pin+0x118>)
  400f96:	4798      	blx	r3
	if (ul_pull_up_enable) {
  400f98:	f015 0f01 	tst.w	r5, #1
		p_pio->PIO_PUER = ul_mask;
  400f9c:	bf14      	ite	ne
  400f9e:	6666      	strne	r6, [r4, #100]	; 0x64
		p_pio->PIO_PUDR = ul_mask;
  400fa0:	6626      	streq	r6, [r4, #96]	; 0x60
	return 1;
  400fa2:	2001      	movs	r0, #1
  400fa4:	e7ec      	b.n	400f80 <pio_configure_pin+0x7c>
		pio_set_peripheral(p_pio, PIO_PERIPH_C, (1 << (ul_pin & 0x1F)));
  400fa6:	f000 001f 	and.w	r0, r0, #31
  400faa:	2601      	movs	r6, #1
  400fac:	4086      	lsls	r6, r0
  400fae:	4632      	mov	r2, r6
  400fb0:	f04f 51c0 	mov.w	r1, #402653184	; 0x18000000
  400fb4:	4620      	mov	r0, r4
  400fb6:	4b19      	ldr	r3, [pc, #100]	; (40101c <pio_configure_pin+0x118>)
  400fb8:	4798      	blx	r3
	if (ul_pull_up_enable) {
  400fba:	f015 0f01 	tst.w	r5, #1
		p_pio->PIO_PUER = ul_mask;
  400fbe:	bf14      	ite	ne
  400fc0:	6666      	strne	r6, [r4, #100]	; 0x64
		p_pio->PIO_PUDR = ul_mask;
  400fc2:	6626      	streq	r6, [r4, #96]	; 0x60
	return 1;
  400fc4:	2001      	movs	r0, #1
  400fc6:	e7db      	b.n	400f80 <pio_configure_pin+0x7c>
		pio_set_peripheral(p_pio, PIO_PERIPH_D, (1 << (ul_pin & 0x1F)));
  400fc8:	f000 001f 	and.w	r0, r0, #31
  400fcc:	2601      	movs	r6, #1
  400fce:	4086      	lsls	r6, r0
  400fd0:	4632      	mov	r2, r6
  400fd2:	f04f 5100 	mov.w	r1, #536870912	; 0x20000000
  400fd6:	4620      	mov	r0, r4
  400fd8:	4b10      	ldr	r3, [pc, #64]	; (40101c <pio_configure_pin+0x118>)
  400fda:	4798      	blx	r3
	if (ul_pull_up_enable) {
  400fdc:	f015 0f01 	tst.w	r5, #1
		p_pio->PIO_PUER = ul_mask;
  400fe0:	bf14      	ite	ne
  400fe2:	6666      	strne	r6, [r4, #100]	; 0x64
		p_pio->PIO_PUDR = ul_mask;
  400fe4:	6626      	streq	r6, [r4, #96]	; 0x60
	return 1;
  400fe6:	2001      	movs	r0, #1
  400fe8:	e7ca      	b.n	400f80 <pio_configure_pin+0x7c>
				((ul_flags & PIO_TYPE_PIO_OUTPUT_1)
  400fea:	f005 5260 	and.w	r2, r5, #939524096	; 0x38000000
		pio_set_output(p_pio, (1 << (ul_pin & 0x1F)),
  400fee:	f000 011f 	and.w	r1, r0, #31
  400ff2:	2601      	movs	r6, #1
  400ff4:	ea05 0306 	and.w	r3, r5, r6
  400ff8:	9300      	str	r3, [sp, #0]
  400ffa:	f3c5 0380 	ubfx	r3, r5, #2, #1
  400ffe:	f1b2 5f60 	cmp.w	r2, #939524096	; 0x38000000
  401002:	bf14      	ite	ne
  401004:	2200      	movne	r2, #0
  401006:	2201      	moveq	r2, #1
  401008:	fa06 f101 	lsl.w	r1, r6, r1
  40100c:	4620      	mov	r0, r4
  40100e:	4c04      	ldr	r4, [pc, #16]	; (401020 <pio_configure_pin+0x11c>)
  401010:	47a0      	blx	r4
	return 1;
  401012:	4630      	mov	r0, r6
		break;
  401014:	e7b4      	b.n	400f80 <pio_configure_pin+0x7c>
  401016:	bf00      	nop
  401018:	00400e3d 	.word	0x00400e3d
  40101c:	00400dad 	.word	0x00400dad
  401020:	00400e6f 	.word	0x00400e6f

00401024 <pio_configure_pin_group>:
{
  401024:	b570      	push	{r4, r5, r6, lr}
  401026:	b082      	sub	sp, #8
  401028:	4605      	mov	r5, r0
  40102a:	460e      	mov	r6, r1
  40102c:	4614      	mov	r4, r2
	switch (ul_flags & PIO_TYPE_Msk) {
  40102e:	f002 43f0 	and.w	r3, r2, #2013265920	; 0x78000000
  401032:	f1b3 5f00 	cmp.w	r3, #536870912	; 0x20000000
  401036:	d03d      	beq.n	4010b4 <pio_configure_pin_group+0x90>
  401038:	d80a      	bhi.n	401050 <pio_configure_pin_group+0x2c>
  40103a:	f1b3 5f80 	cmp.w	r3, #268435456	; 0x10000000
  40103e:	d021      	beq.n	401084 <pio_configure_pin_group+0x60>
  401040:	f1b3 5fc0 	cmp.w	r3, #402653184	; 0x18000000
  401044:	d02a      	beq.n	40109c <pio_configure_pin_group+0x78>
  401046:	f1b3 6f00 	cmp.w	r3, #134217728	; 0x8000000
  40104a:	d00e      	beq.n	40106a <pio_configure_pin_group+0x46>
		return 0;
  40104c:	2000      	movs	r0, #0
  40104e:	e017      	b.n	401080 <pio_configure_pin_group+0x5c>
	switch (ul_flags & PIO_TYPE_Msk) {
  401050:	f1b3 5f40 	cmp.w	r3, #805306368	; 0x30000000
  401054:	d03a      	beq.n	4010cc <pio_configure_pin_group+0xa8>
  401056:	f1b3 5f60 	cmp.w	r3, #939524096	; 0x38000000
  40105a:	d037      	beq.n	4010cc <pio_configure_pin_group+0xa8>
  40105c:	f1b3 5f20 	cmp.w	r3, #671088640	; 0x28000000
  401060:	d1f4      	bne.n	40104c <pio_configure_pin_group+0x28>
		pio_set_input(p_pio, ul_mask, ul_flags);
  401062:	4b23      	ldr	r3, [pc, #140]	; (4010f0 <pio_configure_pin_group+0xcc>)
  401064:	4798      	blx	r3
	return 1;
  401066:	2001      	movs	r0, #1
		break;
  401068:	e00a      	b.n	401080 <pio_configure_pin_group+0x5c>
		pio_set_peripheral(p_pio, PIO_PERIPH_A, ul_mask);
  40106a:	460a      	mov	r2, r1
  40106c:	f04f 6100 	mov.w	r1, #134217728	; 0x8000000
  401070:	4b20      	ldr	r3, [pc, #128]	; (4010f4 <pio_configure_pin_group+0xd0>)
  401072:	4798      	blx	r3
	if (ul_pull_up_enable) {
  401074:	f014 0f01 	tst.w	r4, #1
		p_pio->PIO_PUER = ul_mask;
  401078:	bf14      	ite	ne
  40107a:	666e      	strne	r6, [r5, #100]	; 0x64
		p_pio->PIO_PUDR = ul_mask;
  40107c:	662e      	streq	r6, [r5, #96]	; 0x60
	return 1;
  40107e:	2001      	movs	r0, #1
}
  401080:	b002      	add	sp, #8
  401082:	bd70      	pop	{r4, r5, r6, pc}
		pio_set_peripheral(p_pio, PIO_PERIPH_B, ul_mask);
  401084:	460a      	mov	r2, r1
  401086:	f04f 5180 	mov.w	r1, #268435456	; 0x10000000
  40108a:	4b1a      	ldr	r3, [pc, #104]	; (4010f4 <pio_configure_pin_group+0xd0>)
  40108c:	4798      	blx	r3
	if (ul_pull_up_enable) {
  40108e:	f014 0f01 	tst.w	r4, #1
		p_pio->PIO_PUER = ul_mask;
  401092:	bf14      	ite	ne
  401094:	666e      	strne	r6, [r5, #100]	; 0x64
		p_pio->PIO_PUDR = ul_mask;
  401096:	662e      	streq	r6, [r5, #96]	; 0x60
	return 1;
  401098:	2001      	movs	r0, #1
  40109a:	e7f1      	b.n	401080 <pio_configure_pin_group+0x5c>
		pio_set_peripheral(p_pio, PIO_PERIPH_C, ul_mask);
  40109c:	460a      	mov	r2, r1
  40109e:	f04f 51c0 	mov.w	r1, #402653184	; 0x18000000
  4010a2:	4b14      	ldr	r3, [pc, #80]	; (4010f4 <pio_configure_pin_group+0xd0>)
  4010a4:	4798      	blx	r3
	if (ul_pull_up_enable) {
  4010a6:	f014 0f01 	tst.w	r4, #1
		p_pio->PIO_PUER = ul_mask;
  4010aa:	bf14      	ite	ne
  4010ac:	666e      	strne	r6, [r5, #100]	; 0x64
		p_pio->PIO_PUDR = ul_mask;
  4010ae:	662e      	streq	r6, [r5, #96]	; 0x60
	return 1;
  4010b0:	2001      	movs	r0, #1
  4010b2:	e7e5      	b.n	401080 <pio_configure_pin_group+0x5c>
		pio_set_peripheral(p_pio, PIO_PERIPH_D, ul_mask);
  4010b4:	460a      	mov	r2, r1
  4010b6:	f04f 5100 	mov.w	r1, #536870912	; 0x20000000
  4010ba:	4b0e      	ldr	r3, [pc, #56]	; (4010f4 <pio_configure_pin_group+0xd0>)
  4010bc:	4798      	blx	r3
	if (ul_pull_up_enable) {
  4010be:	f014 0f01 	tst.w	r4, #1
		p_pio->PIO_PUER = ul_mask;
  4010c2:	bf14      	ite	ne
  4010c4:	666e      	strne	r6, [r5, #100]	; 0x64
		p_pio->PIO_PUDR = ul_mask;
  4010c6:	662e      	streq	r6, [r5, #96]	; 0x60
	return 1;
  4010c8:	2001      	movs	r0, #1
  4010ca:	e7d9      	b.n	401080 <pio_configure_pin_group+0x5c>
				((ul_flags & PIO_TYPE_PIO_OUTPUT_1)
  4010cc:	f004 5260 	and.w	r2, r4, #939524096	; 0x38000000
		pio_set_output(p_pio, ul_mask,
  4010d0:	f004 0301 	and.w	r3, r4, #1
  4010d4:	9300      	str	r3, [sp, #0]
  4010d6:	f3c4 0380 	ubfx	r3, r4, #2, #1
  4010da:	f1b2 5f60 	cmp.w	r2, #939524096	; 0x38000000
  4010de:	bf14      	ite	ne
  4010e0:	2200      	movne	r2, #0
  4010e2:	2201      	moveq	r2, #1
  4010e4:	4631      	mov	r1, r6
  4010e6:	4628      	mov	r0, r5
  4010e8:	4c03      	ldr	r4, [pc, #12]	; (4010f8 <pio_configure_pin_group+0xd4>)
  4010ea:	47a0      	blx	r4
	return 1;
  4010ec:	2001      	movs	r0, #1
		break;
  4010ee:	e7c7      	b.n	401080 <pio_configure_pin_group+0x5c>
  4010f0:	00400e3d 	.word	0x00400e3d
  4010f4:	00400dad 	.word	0x00400dad
  4010f8:	00400e6f 	.word	0x00400e6f

004010fc <pio_handler_process>:
 *
 * \param p_pio PIO controller base address.
 * \param ul_id PIO controller ID.
 */
void pio_handler_process(Pio *p_pio, uint32_t ul_id)
{
  4010fc:	e92d 43f8 	stmdb	sp!, {r3, r4, r5, r6, r7, r8, r9, lr}
  401100:	4681      	mov	r9, r0
  401102:	460f      	mov	r7, r1
	uint32_t status;
	uint32_t i;

	/* Read PIO controller status */
	status = pio_get_interrupt_status(p_pio);
  401104:	4b12      	ldr	r3, [pc, #72]	; (401150 <pio_handler_process+0x54>)
  401106:	4798      	blx	r3
  401108:	4605      	mov	r5, r0
	status &= pio_get_interrupt_mask(p_pio);
  40110a:	4648      	mov	r0, r9
  40110c:	4b11      	ldr	r3, [pc, #68]	; (401154 <pio_handler_process+0x58>)
  40110e:	4798      	blx	r3

	/* Check pending events */
	if (status != 0) {
  401110:	4005      	ands	r5, r0
  401112:	d013      	beq.n	40113c <pio_handler_process+0x40>
  401114:	4c10      	ldr	r4, [pc, #64]	; (401158 <pio_handler_process+0x5c>)
  401116:	f104 0660 	add.w	r6, r4, #96	; 0x60
  40111a:	e003      	b.n	401124 <pio_handler_process+0x28>
							gs_interrupt_sources[i].mask);
					status &= ~(gs_interrupt_sources[i].mask);
				}
			}
			i++;
			if (i >= MAX_INTERRUPT_SOURCES) {
  40111c:	42b4      	cmp	r4, r6
  40111e:	d00d      	beq.n	40113c <pio_handler_process+0x40>
  401120:	3410      	adds	r4, #16
		while (status != 0) {
  401122:	b15d      	cbz	r5, 40113c <pio_handler_process+0x40>
			if (gs_interrupt_sources[i].id == ul_id) {
  401124:	6820      	ldr	r0, [r4, #0]
  401126:	42b8      	cmp	r0, r7
  401128:	d1f8      	bne.n	40111c <pio_handler_process+0x20>
				if ((status & gs_interrupt_sources[i].mask) != 0) {
  40112a:	6861      	ldr	r1, [r4, #4]
  40112c:	4229      	tst	r1, r5
  40112e:	d0f5      	beq.n	40111c <pio_handler_process+0x20>
					gs_interrupt_sources[i].handler(gs_interrupt_sources[i].id,
  401130:	68e3      	ldr	r3, [r4, #12]
  401132:	4798      	blx	r3
					status &= ~(gs_interrupt_sources[i].mask);
  401134:	6863      	ldr	r3, [r4, #4]
  401136:	ea25 0503 	bic.w	r5, r5, r3
  40113a:	e7ef      	b.n	40111c <pio_handler_process+0x20>
		}
	}

	/* Check capture events */
#if (SAM3S || SAM4S || SAM4E)
	if (pio_capture_enable_flag) {
  40113c:	4b07      	ldr	r3, [pc, #28]	; (40115c <pio_handler_process+0x60>)
  40113e:	681b      	ldr	r3, [r3, #0]
  401140:	b123      	cbz	r3, 40114c <pio_handler_process+0x50>
		if (pio_capture_handler) {
  401142:	4b07      	ldr	r3, [pc, #28]	; (401160 <pio_handler_process+0x64>)
  401144:	681b      	ldr	r3, [r3, #0]
  401146:	b10b      	cbz	r3, 40114c <pio_handler_process+0x50>
			pio_capture_handler(p_pio);
  401148:	4648      	mov	r0, r9
  40114a:	4798      	blx	r3
  40114c:	e8bd 83f8 	ldmia.w	sp!, {r3, r4, r5, r6, r7, r8, r9, pc}
  401150:	00400ec7 	.word	0x00400ec7
  401154:	00400ecb 	.word	0x00400ecb
  401158:	20000da8 	.word	0x20000da8
  40115c:	20000e64 	.word	0x20000e64
  401160:	20000e1c 	.word	0x20000e1c

00401164 <pio_handler_set>:
 *
 * \return 0 if successful, 1 if the maximum number of sources has been defined.
 */
uint32_t pio_handler_set(Pio *p_pio, uint32_t ul_id, uint32_t ul_mask,
		uint32_t ul_attr, void (*p_handler) (uint32_t, uint32_t))
{
  401164:	b5f8      	push	{r3, r4, r5, r6, r7, lr}
    uint8_t i;
	struct s_interrupt_source *pSource;

	if (gs_ul_nb_sources >= MAX_INTERRUPT_SOURCES)
  401166:	4c18      	ldr	r4, [pc, #96]	; (4011c8 <pio_handler_set+0x64>)
  401168:	6826      	ldr	r6, [r4, #0]
  40116a:	2e06      	cmp	r6, #6
  40116c:	d829      	bhi.n	4011c2 <pio_handler_set+0x5e>
  40116e:	f04f 0c00 	mov.w	ip, #0
  401172:	4664      	mov	r4, ip
		return 1;

    /* Check interrupt for this pin, if already defined, redefine it. */
	for (i = 0; i <= gs_ul_nb_sources; i++) {
		pSource = &(gs_interrupt_sources[i]);
		if (pSource->id == ul_id && pSource->mask == ul_mask) {
  401174:	4f15      	ldr	r7, [pc, #84]	; (4011cc <pio_handler_set+0x68>)
  401176:	e004      	b.n	401182 <pio_handler_set+0x1e>
	for (i = 0; i <= gs_ul_nb_sources; i++) {
  401178:	3401      	adds	r4, #1
  40117a:	b2e4      	uxtb	r4, r4
  40117c:	46a4      	mov	ip, r4
  40117e:	42a6      	cmp	r6, r4
  401180:	d309      	bcc.n	401196 <pio_handler_set+0x32>
		pSource = &(gs_interrupt_sources[i]);
  401182:	46a6      	mov	lr, r4
		if (pSource->id == ul_id && pSource->mask == ul_mask) {
  401184:	0125      	lsls	r5, r4, #4
  401186:	597d      	ldr	r5, [r7, r5]
  401188:	428d      	cmp	r5, r1
  40118a:	d1f5      	bne.n	401178 <pio_handler_set+0x14>
  40118c:	eb07 1504 	add.w	r5, r7, r4, lsl #4
  401190:	686d      	ldr	r5, [r5, #4]
  401192:	4295      	cmp	r5, r2
  401194:	d1f0      	bne.n	401178 <pio_handler_set+0x14>
			break;
		}
	}

	/* Define new source */
	pSource->id = ul_id;
  401196:	4d0d      	ldr	r5, [pc, #52]	; (4011cc <pio_handler_set+0x68>)
  401198:	ea4f 1e0e 	mov.w	lr, lr, lsl #4
  40119c:	eb05 040e 	add.w	r4, r5, lr
  4011a0:	f845 100e 	str.w	r1, [r5, lr]
	pSource->mask = ul_mask;
  4011a4:	6062      	str	r2, [r4, #4]
	pSource->attr = ul_attr;
  4011a6:	60a3      	str	r3, [r4, #8]
	pSource->handler = p_handler;
  4011a8:	9906      	ldr	r1, [sp, #24]
  4011aa:	60e1      	str	r1, [r4, #12]
	if (i == gs_ul_nb_sources + 1) {
  4011ac:	3601      	adds	r6, #1
  4011ae:	4566      	cmp	r6, ip
		gs_ul_nb_sources++;
  4011b0:	bf04      	itt	eq
  4011b2:	4905      	ldreq	r1, [pc, #20]	; (4011c8 <pio_handler_set+0x64>)
  4011b4:	600e      	streq	r6, [r1, #0]
  4011b6:	4611      	mov	r1, r2
	}

	/* Configure interrupt mode */
	pio_configure_interrupt(p_pio, ul_mask, ul_attr);
  4011b8:	461a      	mov	r2, r3
  4011ba:	4b05      	ldr	r3, [pc, #20]	; (4011d0 <pio_handler_set+0x6c>)
  4011bc:	4798      	blx	r3

	return 0;
  4011be:	2000      	movs	r0, #0
  4011c0:	bdf8      	pop	{r3, r4, r5, r6, r7, pc}
		return 1;
  4011c2:	2001      	movs	r0, #1
}
  4011c4:	bdf8      	pop	{r3, r4, r5, r6, r7, pc}
  4011c6:	bf00      	nop
  4011c8:	20000e18 	.word	0x20000e18
  4011cc:	20000da8 	.word	0x20000da8
  4011d0:	00400e95 	.word	0x00400e95

004011d4 <PIOA_Handler>:
/**
 * \brief Parallel IO Controller A interrupt handler.
 * Redefined PIOA interrupt handler for NVIC interrupt table.
 */
void PIOA_Handler(void)
{
  4011d4:	b508      	push	{r3, lr}
	pio_handler_process(PIOA, ID_PIOA);
  4011d6:	210b      	movs	r1, #11
  4011d8:	4801      	ldr	r0, [pc, #4]	; (4011e0 <PIOA_Handler+0xc>)
  4011da:	4b02      	ldr	r3, [pc, #8]	; (4011e4 <PIOA_Handler+0x10>)
  4011dc:	4798      	blx	r3
  4011de:	bd08      	pop	{r3, pc}
  4011e0:	400e0e00 	.word	0x400e0e00
  4011e4:	004010fd 	.word	0x004010fd

004011e8 <PIOB_Handler>:
/**
 * \brief Parallel IO Controller B interrupt handler
 * Redefined PIOB interrupt handler for NVIC interrupt table.
 */
void PIOB_Handler(void)
{
  4011e8:	b508      	push	{r3, lr}
    pio_handler_process(PIOB, ID_PIOB);
  4011ea:	210c      	movs	r1, #12
  4011ec:	4801      	ldr	r0, [pc, #4]	; (4011f4 <PIOB_Handler+0xc>)
  4011ee:	4b02      	ldr	r3, [pc, #8]	; (4011f8 <PIOB_Handler+0x10>)
  4011f0:	4798      	blx	r3
  4011f2:	bd08      	pop	{r3, pc}
  4011f4:	400e1000 	.word	0x400e1000
  4011f8:	004010fd 	.word	0x004010fd

004011fc <PIOC_Handler>:
/**
 * \brief Parallel IO Controller C interrupt handler.
 * Redefined PIOC interrupt handler for NVIC interrupt table.
 */
void PIOC_Handler(void)
{
  4011fc:	b508      	push	{r3, lr}
	pio_handler_process(PIOC, ID_PIOC);
  4011fe:	210d      	movs	r1, #13
  401200:	4801      	ldr	r0, [pc, #4]	; (401208 <PIOC_Handler+0xc>)
  401202:	4b02      	ldr	r3, [pc, #8]	; (40120c <PIOC_Handler+0x10>)
  401204:	4798      	blx	r3
  401206:	bd08      	pop	{r3, pc}
  401208:	400e1200 	.word	0x400e1200
  40120c:	004010fd 	.word	0x004010fd

00401210 <pmc_switch_mck_to_pllack>:
 */
uint32_t pmc_switch_mck_to_pllack(uint32_t ul_pres)
{
	uint32_t ul_timeout;

	PMC->PMC_MCKR = (PMC->PMC_MCKR & (~PMC_MCKR_PRES_Msk)) | ul_pres;
  401210:	4a17      	ldr	r2, [pc, #92]	; (401270 <pmc_switch_mck_to_pllack+0x60>)
  401212:	6b13      	ldr	r3, [r2, #48]	; 0x30
  401214:	f023 0370 	bic.w	r3, r3, #112	; 0x70
  401218:	4318      	orrs	r0, r3
  40121a:	6310      	str	r0, [r2, #48]	; 0x30
	for (ul_timeout = PMC_TIMEOUT; !(PMC->PMC_SR & PMC_SR_MCKRDY);
  40121c:	6e93      	ldr	r3, [r2, #104]	; 0x68
  40121e:	f013 0f08 	tst.w	r3, #8
  401222:	d10a      	bne.n	40123a <pmc_switch_mck_to_pllack+0x2a>
  401224:	f44f 6300 	mov.w	r3, #2048	; 0x800
  401228:	4911      	ldr	r1, [pc, #68]	; (401270 <pmc_switch_mck_to_pllack+0x60>)
  40122a:	6e8a      	ldr	r2, [r1, #104]	; 0x68
  40122c:	f012 0f08 	tst.w	r2, #8
  401230:	d103      	bne.n	40123a <pmc_switch_mck_to_pllack+0x2a>
			--ul_timeout) {
		if (ul_timeout == 0) {
  401232:	3b01      	subs	r3, #1
  401234:	d1f9      	bne.n	40122a <pmc_switch_mck_to_pllack+0x1a>
			return 1;
  401236:	2001      	movs	r0, #1
  401238:	4770      	bx	lr
		}
	}

	PMC->PMC_MCKR = (PMC->PMC_MCKR & (~PMC_MCKR_CSS_Msk)) |
  40123a:	4a0d      	ldr	r2, [pc, #52]	; (401270 <pmc_switch_mck_to_pllack+0x60>)
  40123c:	6b13      	ldr	r3, [r2, #48]	; 0x30
  40123e:	f023 0303 	bic.w	r3, r3, #3
  401242:	f043 0302 	orr.w	r3, r3, #2
  401246:	6313      	str	r3, [r2, #48]	; 0x30
			PMC_MCKR_CSS_PLLA_CLK;

	for (ul_timeout = PMC_TIMEOUT; !(PMC->PMC_SR & PMC_SR_MCKRDY);
  401248:	6e93      	ldr	r3, [r2, #104]	; 0x68
  40124a:	f013 0f08 	tst.w	r3, #8
  40124e:	d10a      	bne.n	401266 <pmc_switch_mck_to_pllack+0x56>
  401250:	f44f 6300 	mov.w	r3, #2048	; 0x800
  401254:	4906      	ldr	r1, [pc, #24]	; (401270 <pmc_switch_mck_to_pllack+0x60>)
  401256:	6e8a      	ldr	r2, [r1, #104]	; 0x68
  401258:	f012 0f08 	tst.w	r2, #8
  40125c:	d105      	bne.n	40126a <pmc_switch_mck_to_pllack+0x5a>
			--ul_timeout) {
		if (ul_timeout == 0) {
  40125e:	3b01      	subs	r3, #1
  401260:	d1f9      	bne.n	401256 <pmc_switch_mck_to_pllack+0x46>
			return 1;
  401262:	2001      	movs	r0, #1
		}
	}

	return 0;
}
  401264:	4770      	bx	lr
	return 0;
  401266:	2000      	movs	r0, #0
  401268:	4770      	bx	lr
  40126a:	2000      	movs	r0, #0
  40126c:	4770      	bx	lr
  40126e:	bf00      	nop
  401270:	400e0400 	.word	0x400e0400

00401274 <pmc_switch_mainck_to_xtal>:
 */
void pmc_switch_mainck_to_xtal(uint32_t ul_bypass,
		uint32_t ul_xtal_startup_time)
{
	/* Enable Main Xtal oscillator */
	if (ul_bypass) {
  401274:	b9c8      	cbnz	r0, 4012aa <pmc_switch_mainck_to_xtal+0x36>
		PMC->CKGR_MOR = (PMC->CKGR_MOR & ~CKGR_MOR_MOSCXTEN) |
				CKGR_MOR_KEY_PASSWD | CKGR_MOR_MOSCXTBY |
				CKGR_MOR_MOSCSEL;
	} else {
		PMC->CKGR_MOR = (PMC->CKGR_MOR & ~CKGR_MOR_MOSCXTBY) |
  401276:	4a11      	ldr	r2, [pc, #68]	; (4012bc <pmc_switch_mainck_to_xtal+0x48>)
  401278:	6a13      	ldr	r3, [r2, #32]
				CKGR_MOR_KEY_PASSWD | CKGR_MOR_MOSCXTEN |
				CKGR_MOR_MOSCXTST(ul_xtal_startup_time);
  40127a:	0209      	lsls	r1, r1, #8
  40127c:	b289      	uxth	r1, r1
				CKGR_MOR_KEY_PASSWD | CKGR_MOR_MOSCXTEN |
  40127e:	f423 135c 	bic.w	r3, r3, #3604480	; 0x370000
  401282:	f023 0303 	bic.w	r3, r3, #3
  401286:	f443 135c 	orr.w	r3, r3, #3604480	; 0x370000
  40128a:	f043 0301 	orr.w	r3, r3, #1
  40128e:	430b      	orrs	r3, r1
		PMC->CKGR_MOR = (PMC->CKGR_MOR & ~CKGR_MOR_MOSCXTBY) |
  401290:	6213      	str	r3, [r2, #32]
		/* Wait the Xtal to stabilize */
		while (!(PMC->PMC_SR & PMC_SR_MOSCXTS));
  401292:	6e93      	ldr	r3, [r2, #104]	; 0x68
  401294:	f013 0f01 	tst.w	r3, #1
  401298:	d0fb      	beq.n	401292 <pmc_switch_mainck_to_xtal+0x1e>

		PMC->CKGR_MOR |= CKGR_MOR_KEY_PASSWD | CKGR_MOR_MOSCSEL;
  40129a:	4a08      	ldr	r2, [pc, #32]	; (4012bc <pmc_switch_mainck_to_xtal+0x48>)
  40129c:	6a13      	ldr	r3, [r2, #32]
  40129e:	f043 739b 	orr.w	r3, r3, #20316160	; 0x1360000
  4012a2:	f443 3380 	orr.w	r3, r3, #65536	; 0x10000
  4012a6:	6213      	str	r3, [r2, #32]
  4012a8:	4770      	bx	lr
		PMC->CKGR_MOR = (PMC->CKGR_MOR & ~CKGR_MOR_MOSCXTEN) |
  4012aa:	4904      	ldr	r1, [pc, #16]	; (4012bc <pmc_switch_mainck_to_xtal+0x48>)
  4012ac:	6a0b      	ldr	r3, [r1, #32]
				CKGR_MOR_KEY_PASSWD | CKGR_MOR_MOSCXTBY |
  4012ae:	4a04      	ldr	r2, [pc, #16]	; (4012c0 <pmc_switch_mainck_to_xtal+0x4c>)
  4012b0:	401a      	ands	r2, r3
  4012b2:	4b04      	ldr	r3, [pc, #16]	; (4012c4 <pmc_switch_mainck_to_xtal+0x50>)
  4012b4:	4313      	orrs	r3, r2
		PMC->CKGR_MOR = (PMC->CKGR_MOR & ~CKGR_MOR_MOSCXTEN) |
  4012b6:	620b      	str	r3, [r1, #32]
  4012b8:	4770      	bx	lr
  4012ba:	bf00      	nop
  4012bc:	400e0400 	.word	0x400e0400
  4012c0:	fec8fffc 	.word	0xfec8fffc
  4012c4:	01370002 	.word	0x01370002

004012c8 <pmc_osc_is_ready_mainck>:
 * \retval 1 Xtal is ready.
 * \retval 0 Xtal is not ready.
 */
uint32_t pmc_osc_is_ready_mainck(void)
{
	return PMC->PMC_SR & PMC_SR_MOSCSELS;
  4012c8:	4b02      	ldr	r3, [pc, #8]	; (4012d4 <pmc_osc_is_ready_mainck+0xc>)
  4012ca:	6e98      	ldr	r0, [r3, #104]	; 0x68
}
  4012cc:	f400 3080 	and.w	r0, r0, #65536	; 0x10000
  4012d0:	4770      	bx	lr
  4012d2:	bf00      	nop
  4012d4:	400e0400 	.word	0x400e0400

004012d8 <pmc_disable_pllack>:
void pmc_disable_pllack(void)
{
#if (SAM4C || SAM4CM || SAM4CP || SAMG)
	PMC->CKGR_PLLAR = CKGR_PLLAR_MULA(0);
#else
	PMC->CKGR_PLLAR = CKGR_PLLAR_ONE | CKGR_PLLAR_MULA(0);
  4012d8:	f04f 5200 	mov.w	r2, #536870912	; 0x20000000
  4012dc:	4b01      	ldr	r3, [pc, #4]	; (4012e4 <pmc_disable_pllack+0xc>)
  4012de:	629a      	str	r2, [r3, #40]	; 0x28
  4012e0:	4770      	bx	lr
  4012e2:	bf00      	nop
  4012e4:	400e0400 	.word	0x400e0400

004012e8 <pmc_is_locked_pllack>:
 * \retval 0 Not locked.
 * \retval 1 Locked.
 */
uint32_t pmc_is_locked_pllack(void)
{
	return (PMC->PMC_SR & PMC_SR_LOCKA);
  4012e8:	4b02      	ldr	r3, [pc, #8]	; (4012f4 <pmc_is_locked_pllack+0xc>)
  4012ea:	6e98      	ldr	r0, [r3, #104]	; 0x68
}
  4012ec:	f000 0002 	and.w	r0, r0, #2
  4012f0:	4770      	bx	lr
  4012f2:	bf00      	nop
  4012f4:	400e0400 	.word	0x400e0400

004012f8 <pmc_enable_periph_clk>:
 * \retval 0 Success.
 * \retval 1 Invalid parameter.
 */
uint32_t pmc_enable_periph_clk(uint32_t ul_id)
{
	if (ul_id > MAX_PERIPH_ID) {
  4012f8:	2822      	cmp	r0, #34	; 0x22
  4012fa:	d81e      	bhi.n	40133a <pmc_enable_periph_clk+0x42>
		return 1;
	}

	if (ul_id < 32) {
  4012fc:	281f      	cmp	r0, #31
  4012fe:	d80c      	bhi.n	40131a <pmc_enable_periph_clk+0x22>
		if ((PMC->PMC_PCSR0 & (1u << ul_id)) != (1u << ul_id)) {
  401300:	4b11      	ldr	r3, [pc, #68]	; (401348 <pmc_enable_periph_clk+0x50>)
  401302:	699a      	ldr	r2, [r3, #24]
  401304:	2301      	movs	r3, #1
  401306:	4083      	lsls	r3, r0
  401308:	4393      	bics	r3, r2
  40130a:	d018      	beq.n	40133e <pmc_enable_periph_clk+0x46>
			PMC->PMC_PCER0 = 1 << ul_id;
  40130c:	2301      	movs	r3, #1
  40130e:	fa03 f000 	lsl.w	r0, r3, r0
  401312:	4b0d      	ldr	r3, [pc, #52]	; (401348 <pmc_enable_periph_clk+0x50>)
  401314:	6118      	str	r0, [r3, #16]
			PMC->PMC_PCER1 = 1 << ul_id;
		}
#endif
	}

	return 0;
  401316:	2000      	movs	r0, #0
  401318:	4770      	bx	lr
		ul_id -= 32;
  40131a:	3820      	subs	r0, #32
		if ((PMC->PMC_PCSR1 & (1u << ul_id)) != (1u << ul_id)) {
  40131c:	4b0a      	ldr	r3, [pc, #40]	; (401348 <pmc_enable_periph_clk+0x50>)
  40131e:	f8d3 2108 	ldr.w	r2, [r3, #264]	; 0x108
  401322:	2301      	movs	r3, #1
  401324:	4083      	lsls	r3, r0
  401326:	4393      	bics	r3, r2
  401328:	d00b      	beq.n	401342 <pmc_enable_periph_clk+0x4a>
			PMC->PMC_PCER1 = 1 << ul_id;
  40132a:	2301      	movs	r3, #1
  40132c:	fa03 f000 	lsl.w	r0, r3, r0
  401330:	4b05      	ldr	r3, [pc, #20]	; (401348 <pmc_enable_periph_clk+0x50>)
  401332:	f8c3 0100 	str.w	r0, [r3, #256]	; 0x100
	return 0;
  401336:	2000      	movs	r0, #0
  401338:	4770      	bx	lr
		return 1;
  40133a:	2001      	movs	r0, #1
  40133c:	4770      	bx	lr
	return 0;
  40133e:	2000      	movs	r0, #0
  401340:	4770      	bx	lr
  401342:	2000      	movs	r0, #0
}
  401344:	4770      	bx	lr
  401346:	bf00      	nop
  401348:	400e0400 	.word	0x400e0400

0040134c <uart_init>:
 *
 * \retval 0 Success.
 * \retval 1 Bad baud rate generator value.
 */
uint32_t uart_init(Uart *p_uart, const sam_uart_opt_t *p_uart_opt)
{
  40134c:	b410      	push	{r4}
	uint32_t cd = 0;

	/* Reset and disable receiver & transmitter */
	p_uart->UART_CR = UART_CR_RSTRX | UART_CR_RSTTX
  40134e:	23ac      	movs	r3, #172	; 0xac
  401350:	6003      	str	r3, [r0, #0]
			| UART_CR_RXDIS | UART_CR_TXDIS;

	/* Check and configure baudrate */
	/* Asynchronous, no oversampling */
	cd = (p_uart_opt->ul_mck / p_uart_opt->ul_baudrate) / UART_MCK_DIV;
  401352:	680b      	ldr	r3, [r1, #0]
  401354:	684a      	ldr	r2, [r1, #4]
  401356:	fbb3 f3f2 	udiv	r3, r3, r2
  40135a:	091b      	lsrs	r3, r3, #4
	if (cd < UART_MCK_DIV_MIN_FACTOR || cd > UART_MCK_DIV_MAX_FACTOR)
  40135c:	1e5c      	subs	r4, r3, #1
  40135e:	f64f 72fe 	movw	r2, #65534	; 0xfffe
  401362:	4294      	cmp	r4, r2
  401364:	d80b      	bhi.n	40137e <uart_init+0x32>
		return 1;

	p_uart->UART_BRGR = cd;
  401366:	6203      	str	r3, [r0, #32]
	/* Configure mode */
	p_uart->UART_MR = p_uart_opt->ul_mode;
  401368:	688b      	ldr	r3, [r1, #8]
  40136a:	6043      	str	r3, [r0, #4]

#if (!SAMV71 && !SAMV70 && !SAME70 && !SAMS70)
	/* Disable PDC channel */
	p_uart->UART_PTCR = UART_PTCR_RXTDIS | UART_PTCR_TXTDIS;
  40136c:	f240 2302 	movw	r3, #514	; 0x202
  401370:	f8c0 3120 	str.w	r3, [r0, #288]	; 0x120
#endif

	/* Enable receiver and transmitter */
	p_uart->UART_CR = UART_CR_RXEN | UART_CR_TXEN;
  401374:	2350      	movs	r3, #80	; 0x50
  401376:	6003      	str	r3, [r0, #0]

	return 0;
  401378:	2000      	movs	r0, #0
}
  40137a:	bc10      	pop	{r4}
  40137c:	4770      	bx	lr
		return 1;
  40137e:	2001      	movs	r0, #1
  401380:	e7fb      	b.n	40137a <uart_init+0x2e>

00401382 <uart_write>:
 * \retval 1 I/O Failure, UART is not ready.
 */
uint32_t uart_write(Uart *p_uart, const uint8_t uc_data)
{
	/* Check if the transmitter is ready */
	if (!(p_uart->UART_SR & UART_SR_TXRDY))
  401382:	6943      	ldr	r3, [r0, #20]
  401384:	f013 0f02 	tst.w	r3, #2
		return 1;

	/* Send character */
	p_uart->UART_THR = uc_data;
  401388:	bf1a      	itte	ne
  40138a:	61c1      	strne	r1, [r0, #28]
	return 0;
  40138c:	2000      	movne	r0, #0
		return 1;
  40138e:	2001      	moveq	r0, #1
}
  401390:	4770      	bx	lr

00401392 <uart_read>:
 * \retval 1 I/O Failure, UART is not ready.
 */
uint32_t uart_read(Uart *p_uart, uint8_t *puc_data)
{
	/* Check if the receiver is ready */
	if ((p_uart->UART_SR & UART_SR_RXRDY) == 0)
  401392:	6943      	ldr	r3, [r0, #20]
  401394:	f013 0f01 	tst.w	r3, #1
		return 1;

	/* Read character */
	*puc_data = (uint8_t) p_uart->UART_RHR;
  401398:	bf1d      	ittte	ne
  40139a:	6983      	ldrne	r3, [r0, #24]
  40139c:	700b      	strbne	r3, [r1, #0]
	return 0;
  40139e:	2000      	movne	r0, #0
		return 1;
  4013a0:	2001      	moveq	r0, #1
}
  4013a2:	4770      	bx	lr

004013a4 <usart_write>:
 * \retval 0 on success.
 * \retval 1 on failure.
 */
uint32_t usart_write(Usart *p_usart, uint32_t c)
{
	if (!(p_usart->US_CSR & US_CSR_TXRDY)) {
  4013a4:	6943      	ldr	r3, [r0, #20]
  4013a6:	f013 0f02 	tst.w	r3, #2
		return 1;
	}

	p_usart->US_THR = US_THR_TXCHR(c);
  4013aa:	bf1d      	ittte	ne
  4013ac:	f3c1 0108 	ubfxne	r1, r1, #0, #9
  4013b0:	61c1      	strne	r1, [r0, #28]
	return 0;
  4013b2:	2000      	movne	r0, #0
		return 1;
  4013b4:	2001      	moveq	r0, #1
}
  4013b6:	4770      	bx	lr

004013b8 <usart_read>:
 * \retval 0 on success.
 * \retval 1 if no data is available or errors.
 */
uint32_t usart_read(Usart *p_usart, uint32_t *c)
{
	if (!(p_usart->US_CSR & US_CSR_RXRDY)) {
  4013b8:	6943      	ldr	r3, [r0, #20]
  4013ba:	f013 0f01 	tst.w	r3, #1
  4013be:	d005      	beq.n	4013cc <usart_read+0x14>
		return 1;
	}

	/* Read character */
	*c = p_usart->US_RHR & US_RHR_RXCHR_Msk;
  4013c0:	6983      	ldr	r3, [r0, #24]
  4013c2:	f3c3 0308 	ubfx	r3, r3, #0, #9
  4013c6:	600b      	str	r3, [r1, #0]

	return 0;
  4013c8:	2000      	movs	r0, #0
  4013ca:	4770      	bx	lr
		return 1;
  4013cc:	2001      	movs	r0, #1
}
  4013ce:	4770      	bx	lr

004013d0 <Dummy_Handler>:

/**
 * \brief Default interrupt handler for unused IRQs.
 */
void Dummy_Handler(void)
{
  4013d0:	e7fe      	b.n	4013d0 <Dummy_Handler>
	...

004013d4 <Reset_Handler>:
{
  4013d4:	b508      	push	{r3, lr}
	if (pSrc > pDest) {
  4013d6:	4b21      	ldr	r3, [pc, #132]	; (40145c <Reset_Handler+0x88>)
  4013d8:	4a21      	ldr	r2, [pc, #132]	; (401460 <Reset_Handler+0x8c>)
  4013da:	429a      	cmp	r2, r3
  4013dc:	d928      	bls.n	401430 <Reset_Handler+0x5c>
		for (; pDest < &_erelocate;) {
  4013de:	4b21      	ldr	r3, [pc, #132]	; (401464 <Reset_Handler+0x90>)
  4013e0:	4a1e      	ldr	r2, [pc, #120]	; (40145c <Reset_Handler+0x88>)
  4013e2:	429a      	cmp	r2, r3
  4013e4:	d20c      	bcs.n	401400 <Reset_Handler+0x2c>
  4013e6:	3b01      	subs	r3, #1
  4013e8:	1a9b      	subs	r3, r3, r2
  4013ea:	f023 0303 	bic.w	r3, r3, #3
  4013ee:	3304      	adds	r3, #4
  4013f0:	4413      	add	r3, r2
  4013f2:	491b      	ldr	r1, [pc, #108]	; (401460 <Reset_Handler+0x8c>)
			*pDest++ = *pSrc++;
  4013f4:	f851 0b04 	ldr.w	r0, [r1], #4
  4013f8:	f842 0b04 	str.w	r0, [r2], #4
		for (; pDest < &_erelocate;) {
  4013fc:	429a      	cmp	r2, r3
  4013fe:	d1f9      	bne.n	4013f4 <Reset_Handler+0x20>

    No Operation does nothing. This instruction can be used for code alignment purposes.
 */
__attribute__( ( always_inline ) ) __STATIC_INLINE void __NOP(void)
{
  __ASM volatile ("nop");
  401400:	bf00      	nop
	for (pDest = &_szero; pDest < &_ezero;) {
  401402:	4b19      	ldr	r3, [pc, #100]	; (401468 <Reset_Handler+0x94>)
  401404:	4a19      	ldr	r2, [pc, #100]	; (40146c <Reset_Handler+0x98>)
  401406:	429a      	cmp	r2, r3
  401408:	d20a      	bcs.n	401420 <Reset_Handler+0x4c>
  40140a:	3b01      	subs	r3, #1
  40140c:	1a9b      	subs	r3, r3, r2
  40140e:	f023 0303 	bic.w	r3, r3, #3
  401412:	3304      	adds	r3, #4
  401414:	4413      	add	r3, r2
		*pDest++ = 0;
  401416:	2100      	movs	r1, #0
  401418:	f842 1b04 	str.w	r1, [r2], #4
	for (pDest = &_szero; pDest < &_ezero;) {
  40141c:	429a      	cmp	r2, r3
  40141e:	d1fb      	bne.n	401418 <Reset_Handler+0x44>
	SCB->VTOR = ((uint32_t) pSrc);
  401420:	4b13      	ldr	r3, [pc, #76]	; (401470 <Reset_Handler+0x9c>)
  401422:	4a14      	ldr	r2, [pc, #80]	; (401474 <Reset_Handler+0xa0>)
  401424:	609a      	str	r2, [r3, #8]
	__libc_init_array();
  401426:	4b14      	ldr	r3, [pc, #80]	; (401478 <Reset_Handler+0xa4>)
  401428:	4798      	blx	r3
	main();
  40142a:	4b14      	ldr	r3, [pc, #80]	; (40147c <Reset_Handler+0xa8>)
  40142c:	4798      	blx	r3
  40142e:	e7fe      	b.n	40142e <Reset_Handler+0x5a>
	} else if (pSrc < pDest) {
  401430:	4b0a      	ldr	r3, [pc, #40]	; (40145c <Reset_Handler+0x88>)
  401432:	4a0b      	ldr	r2, [pc, #44]	; (401460 <Reset_Handler+0x8c>)
  401434:	429a      	cmp	r2, r3
  401436:	d2e3      	bcs.n	401400 <Reset_Handler+0x2c>
		uint32_t nb_bytes = (uint32_t)&_erelocate - (uint32_t)&_srelocate;
  401438:	4b0a      	ldr	r3, [pc, #40]	; (401464 <Reset_Handler+0x90>)
  40143a:	4808      	ldr	r0, [pc, #32]	; (40145c <Reset_Handler+0x88>)
  40143c:	1a18      	subs	r0, r3, r0
		pSrc = (uint32_t*)((uint32_t)pSrc + nb_bytes) - 1;
  40143e:	4611      	mov	r1, r2
  401440:	3a04      	subs	r2, #4
  401442:	4402      	add	r2, r0
		for (;nb_bytes;nb_bytes -= 4) {
  401444:	2800      	cmp	r0, #0
  401446:	d0db      	beq.n	401400 <Reset_Handler+0x2c>
  401448:	f1c1 0104 	rsb	r1, r1, #4
			*pDest-- = *pSrc--;
  40144c:	f852 0904 	ldr.w	r0, [r2], #-4
  401450:	f843 0d04 	str.w	r0, [r3, #-4]!
		for (;nb_bytes;nb_bytes -= 4) {
  401454:	42ca      	cmn	r2, r1
  401456:	d1f9      	bne.n	40144c <Reset_Handler+0x78>
  401458:	e7d2      	b.n	401400 <Reset_Handler+0x2c>
  40145a:	bf00      	nop
  40145c:	20000000 	.word	0x20000000
  401460:	00408f4c 	.word	0x00408f4c
  401464:	200009c8 	.word	0x200009c8
  401468:	20000ed4 	.word	0x20000ed4
  40146c:	200009c8 	.word	0x200009c8
  401470:	e000ed00 	.word	0xe000ed00
  401474:	00400000 	.word	0x00400000
  401478:	00401f5d 	.word	0x00401f5d
  40147c:	00401a2d 	.word	0x00401a2d

00401480 <SystemCoreClockUpdate>:
 * \brief Get Core Clock Frequency.
 */
void SystemCoreClockUpdate( void )
{
	/* Determine clock frequency according to clock register values */
	switch ( PMC->PMC_MCKR & (uint32_t) PMC_MCKR_CSS_Msk ) {
  401480:	4b3c      	ldr	r3, [pc, #240]	; (401574 <SystemCoreClockUpdate+0xf4>)
  401482:	6b1b      	ldr	r3, [r3, #48]	; 0x30
  401484:	f003 0303 	and.w	r3, r3, #3
  401488:	2b03      	cmp	r3, #3
  40148a:	d80e      	bhi.n	4014aa <SystemCoreClockUpdate+0x2a>
  40148c:	e8df f003 	tbb	[pc, r3]
  401490:	38381c02 	.word	0x38381c02
	case PMC_MCKR_CSS_SLOW_CLK: /* Slow clock */
			if ( SUPC->SUPC_SR & SUPC_SR_OSCSEL ) {
  401494:	4b38      	ldr	r3, [pc, #224]	; (401578 <SystemCoreClockUpdate+0xf8>)
  401496:	695b      	ldr	r3, [r3, #20]
  401498:	f013 0f80 	tst.w	r3, #128	; 0x80
				SystemCoreClock = CHIP_FREQ_XTAL_32K;
  40149c:	bf14      	ite	ne
  40149e:	f44f 4200 	movne.w	r2, #32768	; 0x8000
			} else {
				SystemCoreClock = CHIP_FREQ_SLCK_RC;
  4014a2:	f44f 42fa 	moveq.w	r2, #32000	; 0x7d00
  4014a6:	4b35      	ldr	r3, [pc, #212]	; (40157c <SystemCoreClockUpdate+0xfc>)
  4014a8:	601a      	str	r2, [r3, #0]
		
	default:
		break;
	}

	if ( (PMC->PMC_MCKR & PMC_MCKR_PRES_Msk) == PMC_MCKR_PRES_CLK_3 ) {
  4014aa:	4b32      	ldr	r3, [pc, #200]	; (401574 <SystemCoreClockUpdate+0xf4>)
  4014ac:	6b1b      	ldr	r3, [r3, #48]	; 0x30
  4014ae:	f003 0370 	and.w	r3, r3, #112	; 0x70
  4014b2:	2b70      	cmp	r3, #112	; 0x70
  4014b4:	d055      	beq.n	401562 <SystemCoreClockUpdate+0xe2>
		SystemCoreClock /= 3U;
	} else {
		SystemCoreClock >>=
			((PMC->PMC_MCKR & PMC_MCKR_PRES_Msk) >> PMC_MCKR_PRES_Pos);
  4014b6:	4b2f      	ldr	r3, [pc, #188]	; (401574 <SystemCoreClockUpdate+0xf4>)
  4014b8:	6b1a      	ldr	r2, [r3, #48]	; 0x30
		SystemCoreClock >>=
  4014ba:	4930      	ldr	r1, [pc, #192]	; (40157c <SystemCoreClockUpdate+0xfc>)
			((PMC->PMC_MCKR & PMC_MCKR_PRES_Msk) >> PMC_MCKR_PRES_Pos);
  4014bc:	f3c2 1202 	ubfx	r2, r2, #4, #3
		SystemCoreClock >>=
  4014c0:	680b      	ldr	r3, [r1, #0]
  4014c2:	40d3      	lsrs	r3, r2
  4014c4:	600b      	str	r3, [r1, #0]
  4014c6:	4770      	bx	lr
		if ( PMC->CKGR_MOR & CKGR_MOR_MOSCSEL ) {
  4014c8:	4b2a      	ldr	r3, [pc, #168]	; (401574 <SystemCoreClockUpdate+0xf4>)
  4014ca:	6a1b      	ldr	r3, [r3, #32]
  4014cc:	f013 7f80 	tst.w	r3, #16777216	; 0x1000000
  4014d0:	d003      	beq.n	4014da <SystemCoreClockUpdate+0x5a>
			SystemCoreClock = CHIP_FREQ_XTAL;
  4014d2:	4a2b      	ldr	r2, [pc, #172]	; (401580 <SystemCoreClockUpdate+0x100>)
  4014d4:	4b29      	ldr	r3, [pc, #164]	; (40157c <SystemCoreClockUpdate+0xfc>)
  4014d6:	601a      	str	r2, [r3, #0]
  4014d8:	e7e7      	b.n	4014aa <SystemCoreClockUpdate+0x2a>
			SystemCoreClock = CHIP_FREQ_MAINCK_RC_4MHZ;
  4014da:	4a2a      	ldr	r2, [pc, #168]	; (401584 <SystemCoreClockUpdate+0x104>)
  4014dc:	4b27      	ldr	r3, [pc, #156]	; (40157c <SystemCoreClockUpdate+0xfc>)
  4014de:	601a      	str	r2, [r3, #0]
			switch ( PMC->CKGR_MOR & CKGR_MOR_MOSCRCF_Msk ) {
  4014e0:	4b24      	ldr	r3, [pc, #144]	; (401574 <SystemCoreClockUpdate+0xf4>)
  4014e2:	6a1b      	ldr	r3, [r3, #32]
  4014e4:	f003 0370 	and.w	r3, r3, #112	; 0x70
  4014e8:	2b10      	cmp	r3, #16
  4014ea:	d005      	beq.n	4014f8 <SystemCoreClockUpdate+0x78>
  4014ec:	2b20      	cmp	r3, #32
  4014ee:	d1dc      	bne.n	4014aa <SystemCoreClockUpdate+0x2a>
				SystemCoreClock = CHIP_FREQ_MAINCK_RC_12MHZ;
  4014f0:	4a23      	ldr	r2, [pc, #140]	; (401580 <SystemCoreClockUpdate+0x100>)
  4014f2:	4b22      	ldr	r3, [pc, #136]	; (40157c <SystemCoreClockUpdate+0xfc>)
  4014f4:	601a      	str	r2, [r3, #0]
			break;
  4014f6:	e7d8      	b.n	4014aa <SystemCoreClockUpdate+0x2a>
				SystemCoreClock = CHIP_FREQ_MAINCK_RC_8MHZ;
  4014f8:	4a23      	ldr	r2, [pc, #140]	; (401588 <SystemCoreClockUpdate+0x108>)
  4014fa:	4b20      	ldr	r3, [pc, #128]	; (40157c <SystemCoreClockUpdate+0xfc>)
  4014fc:	601a      	str	r2, [r3, #0]
			break;
  4014fe:	e7d4      	b.n	4014aa <SystemCoreClockUpdate+0x2a>
			if ( PMC->CKGR_MOR & CKGR_MOR_MOSCSEL ) {
  401500:	4b1c      	ldr	r3, [pc, #112]	; (401574 <SystemCoreClockUpdate+0xf4>)
  401502:	6a1b      	ldr	r3, [r3, #32]
  401504:	f013 7f80 	tst.w	r3, #16777216	; 0x1000000
  401508:	d018      	beq.n	40153c <SystemCoreClockUpdate+0xbc>
				SystemCoreClock = CHIP_FREQ_XTAL;
  40150a:	4a1d      	ldr	r2, [pc, #116]	; (401580 <SystemCoreClockUpdate+0x100>)
  40150c:	4b1b      	ldr	r3, [pc, #108]	; (40157c <SystemCoreClockUpdate+0xfc>)
  40150e:	601a      	str	r2, [r3, #0]
			if ( (uint32_t)(PMC->PMC_MCKR & (uint32_t) PMC_MCKR_CSS_Msk) ==
  401510:	4b18      	ldr	r3, [pc, #96]	; (401574 <SystemCoreClockUpdate+0xf4>)
  401512:	6b1b      	ldr	r3, [r3, #48]	; 0x30
  401514:	f003 0303 	and.w	r3, r3, #3
  401518:	2b02      	cmp	r3, #2
				SystemCoreClock *= ((((PMC->CKGR_PLLAR) & CKGR_PLLAR_MULA_Msk)
  40151a:	4a16      	ldr	r2, [pc, #88]	; (401574 <SystemCoreClockUpdate+0xf4>)
  40151c:	bf07      	ittee	eq
  40151e:	6a91      	ldreq	r1, [r2, #40]	; 0x28
				SystemCoreClock /= ((((PMC->CKGR_PLLAR) & CKGR_PLLAR_DIVA_Msk)
  401520:	6a92      	ldreq	r2, [r2, #40]	; 0x28
				SystemCoreClock *= ((((PMC->CKGR_PLLBR) & CKGR_PLLBR_MULB_Msk)
  401522:	6ad1      	ldrne	r1, [r2, #44]	; 0x2c
				SystemCoreClock /= ((((PMC->CKGR_PLLBR) & CKGR_PLLBR_DIVB_Msk)
  401524:	6ad2      	ldrne	r2, [r2, #44]	; 0x2c
  401526:	4815      	ldr	r0, [pc, #84]	; (40157c <SystemCoreClockUpdate+0xfc>)
						>> CKGR_PLLBR_MULB_Pos) + 1U);
  401528:	f3c1 410a 	ubfx	r1, r1, #16, #11
				SystemCoreClock *= ((((PMC->CKGR_PLLBR) & CKGR_PLLBR_MULB_Msk)
  40152c:	6803      	ldr	r3, [r0, #0]
  40152e:	fb01 3303 	mla	r3, r1, r3, r3
						>> CKGR_PLLBR_DIVB_Pos));
  401532:	b2d2      	uxtb	r2, r2
				SystemCoreClock /= ((((PMC->CKGR_PLLBR) & CKGR_PLLBR_DIVB_Msk)
  401534:	fbb3 f3f2 	udiv	r3, r3, r2
  401538:	6003      	str	r3, [r0, #0]
  40153a:	e7b6      	b.n	4014aa <SystemCoreClockUpdate+0x2a>
				SystemCoreClock = CHIP_FREQ_MAINCK_RC_4MHZ;
  40153c:	4a11      	ldr	r2, [pc, #68]	; (401584 <SystemCoreClockUpdate+0x104>)
  40153e:	4b0f      	ldr	r3, [pc, #60]	; (40157c <SystemCoreClockUpdate+0xfc>)
  401540:	601a      	str	r2, [r3, #0]
				switch ( PMC->CKGR_MOR & CKGR_MOR_MOSCRCF_Msk ) {
  401542:	4b0c      	ldr	r3, [pc, #48]	; (401574 <SystemCoreClockUpdate+0xf4>)
  401544:	6a1b      	ldr	r3, [r3, #32]
  401546:	f003 0370 	and.w	r3, r3, #112	; 0x70
  40154a:	2b10      	cmp	r3, #16
  40154c:	d005      	beq.n	40155a <SystemCoreClockUpdate+0xda>
  40154e:	2b20      	cmp	r3, #32
  401550:	d1de      	bne.n	401510 <SystemCoreClockUpdate+0x90>
					SystemCoreClock = CHIP_FREQ_MAINCK_RC_12MHZ;
  401552:	4a0b      	ldr	r2, [pc, #44]	; (401580 <SystemCoreClockUpdate+0x100>)
  401554:	4b09      	ldr	r3, [pc, #36]	; (40157c <SystemCoreClockUpdate+0xfc>)
  401556:	601a      	str	r2, [r3, #0]
					break;
  401558:	e7da      	b.n	401510 <SystemCoreClockUpdate+0x90>
					SystemCoreClock = CHIP_FREQ_MAINCK_RC_8MHZ;
  40155a:	4a0b      	ldr	r2, [pc, #44]	; (401588 <SystemCoreClockUpdate+0x108>)
  40155c:	4b07      	ldr	r3, [pc, #28]	; (40157c <SystemCoreClockUpdate+0xfc>)
  40155e:	601a      	str	r2, [r3, #0]
					break;
  401560:	e7d6      	b.n	401510 <SystemCoreClockUpdate+0x90>
		SystemCoreClock /= 3U;
  401562:	4a06      	ldr	r2, [pc, #24]	; (40157c <SystemCoreClockUpdate+0xfc>)
  401564:	6813      	ldr	r3, [r2, #0]
  401566:	4909      	ldr	r1, [pc, #36]	; (40158c <SystemCoreClockUpdate+0x10c>)
  401568:	fba1 1303 	umull	r1, r3, r1, r3
  40156c:	085b      	lsrs	r3, r3, #1
  40156e:	6013      	str	r3, [r2, #0]
  401570:	4770      	bx	lr
  401572:	bf00      	nop
  401574:	400e0400 	.word	0x400e0400
  401578:	400e1410 	.word	0x400e1410
  40157c:	20000008 	.word	0x20000008
  401580:	00b71b00 	.word	0x00b71b00
  401584:	003d0900 	.word	0x003d0900
  401588:	007a1200 	.word	0x007a1200
  40158c:	aaaaaaab 	.word	0xaaaaaaab

00401590 <system_init_flash>:
				}
			}
		}
	}
#else
	if ( ul_clk < CHIP_FREQ_FWS_0 ) {
  401590:	4b1a      	ldr	r3, [pc, #104]	; (4015fc <system_init_flash+0x6c>)
  401592:	4298      	cmp	r0, r3
  401594:	d914      	bls.n	4015c0 <system_init_flash+0x30>
		EFC0->EEFC_FMR = EEFC_FMR_FWS(0)|EEFC_FMR_CLOE;
		EFC1->EEFC_FMR = EEFC_FMR_FWS(0)|EEFC_FMR_CLOE;
	} else {
		if ( ul_clk < CHIP_FREQ_FWS_1 ) {
  401596:	4b1a      	ldr	r3, [pc, #104]	; (401600 <system_init_flash+0x70>)
  401598:	4298      	cmp	r0, r3
  40159a:	d919      	bls.n	4015d0 <system_init_flash+0x40>
			EFC0->EEFC_FMR = EEFC_FMR_FWS(1)|EEFC_FMR_CLOE;
			EFC1->EEFC_FMR = EEFC_FMR_FWS(1)|EEFC_FMR_CLOE;
		} else {
			if ( ul_clk < CHIP_FREQ_FWS_2 ) {
  40159c:	4b19      	ldr	r3, [pc, #100]	; (401604 <system_init_flash+0x74>)
  40159e:	4298      	cmp	r0, r3
  4015a0:	d91d      	bls.n	4015de <system_init_flash+0x4e>
				EFC0->EEFC_FMR = EEFC_FMR_FWS(2)|EEFC_FMR_CLOE;
				EFC1->EEFC_FMR = EEFC_FMR_FWS(2)|EEFC_FMR_CLOE;
			} else {
				if ( ul_clk < CHIP_FREQ_FWS_3 ) {
  4015a2:	4b19      	ldr	r3, [pc, #100]	; (401608 <system_init_flash+0x78>)
  4015a4:	4298      	cmp	r0, r3
  4015a6:	d921      	bls.n	4015ec <system_init_flash+0x5c>
					EFC0->EEFC_FMR = EEFC_FMR_FWS(3)|EEFC_FMR_CLOE;
					EFC1->EEFC_FMR = EEFC_FMR_FWS(3)|EEFC_FMR_CLOE;
				} else {
					if ( ul_clk < CHIP_FREQ_FWS_4 ) {
  4015a8:	4b18      	ldr	r3, [pc, #96]	; (40160c <system_init_flash+0x7c>)
  4015aa:	4298      	cmp	r0, r3
						EFC0->EEFC_FMR = EEFC_FMR_FWS(4)|EEFC_FMR_CLOE;
  4015ac:	bf94      	ite	ls
  4015ae:	f04f 2304 	movls.w	r3, #67109888	; 0x4000400
						EFC1->EEFC_FMR = EEFC_FMR_FWS(4)|EEFC_FMR_CLOE;
					} else {
						EFC0->EEFC_FMR = EEFC_FMR_FWS(5)|EEFC_FMR_CLOE;
  4015b2:	4b17      	ldrhi	r3, [pc, #92]	; (401610 <system_init_flash+0x80>)
  4015b4:	4a17      	ldr	r2, [pc, #92]	; (401614 <system_init_flash+0x84>)
  4015b6:	6013      	str	r3, [r2, #0]
						EFC1->EEFC_FMR = EEFC_FMR_FWS(5)|EEFC_FMR_CLOE;
  4015b8:	f502 7200 	add.w	r2, r2, #512	; 0x200
  4015bc:	6013      	str	r3, [r2, #0]
  4015be:	4770      	bx	lr
		EFC0->EEFC_FMR = EEFC_FMR_FWS(0)|EEFC_FMR_CLOE;
  4015c0:	f04f 6380 	mov.w	r3, #67108864	; 0x4000000
  4015c4:	4a13      	ldr	r2, [pc, #76]	; (401614 <system_init_flash+0x84>)
  4015c6:	6013      	str	r3, [r2, #0]
		EFC1->EEFC_FMR = EEFC_FMR_FWS(0)|EEFC_FMR_CLOE;
  4015c8:	f502 7200 	add.w	r2, r2, #512	; 0x200
  4015cc:	6013      	str	r3, [r2, #0]
  4015ce:	4770      	bx	lr
			EFC0->EEFC_FMR = EEFC_FMR_FWS(1)|EEFC_FMR_CLOE;
  4015d0:	4b11      	ldr	r3, [pc, #68]	; (401618 <system_init_flash+0x88>)
  4015d2:	4a10      	ldr	r2, [pc, #64]	; (401614 <system_init_flash+0x84>)
  4015d4:	6013      	str	r3, [r2, #0]
			EFC1->EEFC_FMR = EEFC_FMR_FWS(1)|EEFC_FMR_CLOE;
  4015d6:	f502 7200 	add.w	r2, r2, #512	; 0x200
  4015da:	6013      	str	r3, [r2, #0]
  4015dc:	4770      	bx	lr
				EFC0->EEFC_FMR = EEFC_FMR_FWS(2)|EEFC_FMR_CLOE;
  4015de:	4b0f      	ldr	r3, [pc, #60]	; (40161c <system_init_flash+0x8c>)
  4015e0:	4a0c      	ldr	r2, [pc, #48]	; (401614 <system_init_flash+0x84>)
  4015e2:	6013      	str	r3, [r2, #0]
				EFC1->EEFC_FMR = EEFC_FMR_FWS(2)|EEFC_FMR_CLOE;
  4015e4:	f502 7200 	add.w	r2, r2, #512	; 0x200
  4015e8:	6013      	str	r3, [r2, #0]
  4015ea:	4770      	bx	lr
					EFC0->EEFC_FMR = EEFC_FMR_FWS(3)|EEFC_FMR_CLOE;
  4015ec:	4b0c      	ldr	r3, [pc, #48]	; (401620 <system_init_flash+0x90>)
  4015ee:	4a09      	ldr	r2, [pc, #36]	; (401614 <system_init_flash+0x84>)
  4015f0:	6013      	str	r3, [r2, #0]
					EFC1->EEFC_FMR = EEFC_FMR_FWS(3)|EEFC_FMR_CLOE;
  4015f2:	f502 7200 	add.w	r2, r2, #512	; 0x200
  4015f6:	6013      	str	r3, [r2, #0]
  4015f8:	4770      	bx	lr
  4015fa:	bf00      	nop
  4015fc:	01312cff 	.word	0x01312cff
  401600:	026259ff 	.word	0x026259ff
  401604:	039386ff 	.word	0x039386ff
  401608:	04c4b3ff 	.word	0x04c4b3ff
  40160c:	05f5e0ff 	.word	0x05f5e0ff
  401610:	04000500 	.word	0x04000500
  401614:	400e0a00 	.word	0x400e0a00
  401618:	04000100 	.word	0x04000100
  40161c:	04000200 	.word	0x04000200
  401620:	04000300 	.word	0x04000300

00401624 <_sbrk>:
{
	static unsigned char *heap = NULL;
	unsigned char *prev_heap;
	int ramend = (int)&__ram_end__;

	if (heap == NULL) {
  401624:	4b0a      	ldr	r3, [pc, #40]	; (401650 <_sbrk+0x2c>)
  401626:	681b      	ldr	r3, [r3, #0]
  401628:	b153      	cbz	r3, 401640 <_sbrk+0x1c>
		heap = (unsigned char *)&_end;
	}
	prev_heap = heap;
  40162a:	4b09      	ldr	r3, [pc, #36]	; (401650 <_sbrk+0x2c>)
  40162c:	681b      	ldr	r3, [r3, #0]

	if (((int)prev_heap + incr) > ramend) {
  40162e:	181a      	adds	r2, r3, r0
  401630:	4908      	ldr	r1, [pc, #32]	; (401654 <_sbrk+0x30>)
  401632:	4291      	cmp	r1, r2
  401634:	db08      	blt.n	401648 <_sbrk+0x24>
		return (caddr_t) -1;	
	}

	heap += incr;
  401636:	4610      	mov	r0, r2
  401638:	4a05      	ldr	r2, [pc, #20]	; (401650 <_sbrk+0x2c>)
  40163a:	6010      	str	r0, [r2, #0]

	return (caddr_t) prev_heap;
  40163c:	4618      	mov	r0, r3
  40163e:	4770      	bx	lr
		heap = (unsigned char *)&_end;
  401640:	4a05      	ldr	r2, [pc, #20]	; (401658 <_sbrk+0x34>)
  401642:	4b03      	ldr	r3, [pc, #12]	; (401650 <_sbrk+0x2c>)
  401644:	601a      	str	r2, [r3, #0]
  401646:	e7f0      	b.n	40162a <_sbrk+0x6>
		return (caddr_t) -1;	
  401648:	f04f 30ff 	mov.w	r0, #4294967295
}
  40164c:	4770      	bx	lr
  40164e:	bf00      	nop
  401650:	20000e20 	.word	0x20000e20
  401654:	20027ffc 	.word	0x20027ffc
  401658:	20003ed8 	.word	0x20003ed8

0040165c <_close>:
}

extern int _close(int file)
{
	return -1;
}
  40165c:	f04f 30ff 	mov.w	r0, #4294967295
  401660:	4770      	bx	lr

00401662 <_fstat>:

extern int _fstat(int file, struct stat *st)
{
	st->st_mode = S_IFCHR;
  401662:	f44f 5300 	mov.w	r3, #8192	; 0x2000
  401666:	604b      	str	r3, [r1, #4]

	return 0;
}
  401668:	2000      	movs	r0, #0
  40166a:	4770      	bx	lr

0040166c <_isatty>:

extern int _isatty(int file)
{
	return 1;
}
  40166c:	2001      	movs	r0, #1
  40166e:	4770      	bx	lr

00401670 <_lseek>:

extern int _lseek(int file, int ptr, int dir)
{
	return 0;
}
  401670:	2000      	movs	r0, #0
  401672:	4770      	bx	lr

00401674 <usart_serial_getchar>:
 * \param p_usart   Base address of the USART instance.
 * \param data   Data to read
 *
 */
static inline void usart_serial_getchar(usart_if p_usart, uint8_t *data)
{
  401674:	b5f0      	push	{r4, r5, r6, r7, lr}
  401676:	b083      	sub	sp, #12
  401678:	4605      	mov	r5, r0
  40167a:	460c      	mov	r4, r1
	uint32_t val = 0;
  40167c:	2300      	movs	r3, #0
  40167e:	9301      	str	r3, [sp, #4]
	if (UART == (Uart*)p_usart) {
		while (uart_read((Uart*)p_usart, data));
	}
#else
# ifdef UART0
	if (UART0 == (Uart*)p_usart) {
  401680:	4b18      	ldr	r3, [pc, #96]	; (4016e4 <usart_serial_getchar+0x70>)
  401682:	4298      	cmp	r0, r3
  401684:	d00a      	beq.n	40169c <usart_serial_getchar+0x28>
		while (uart_read((Uart*)p_usart, data));
	}
# endif
# ifdef UART1
	if (UART1 == (Uart*)p_usart) {
  401686:	4b18      	ldr	r3, [pc, #96]	; (4016e8 <usart_serial_getchar+0x74>)
  401688:	4298      	cmp	r0, r3
  40168a:	d00f      	beq.n	4016ac <usart_serial_getchar+0x38>
		while (usart_read(p_usart, &val));
		*data = (uint8_t)(val & 0xFF);
	}
#else
# ifdef USART0
	if (USART0 == p_usart) {
  40168c:	4b17      	ldr	r3, [pc, #92]	; (4016ec <usart_serial_getchar+0x78>)
  40168e:	4298      	cmp	r0, r3
  401690:	d014      	beq.n	4016bc <usart_serial_getchar+0x48>
		while (usart_read(p_usart, &val));
		*data = (uint8_t)(val & 0xFF);
	}
# endif
# ifdef USART1
	if (USART1 == p_usart) {
  401692:	4b17      	ldr	r3, [pc, #92]	; (4016f0 <usart_serial_getchar+0x7c>)
  401694:	429d      	cmp	r5, r3
  401696:	d01b      	beq.n	4016d0 <usart_serial_getchar+0x5c>
		*data = (uint8_t)(val & 0xFF);
	}
# endif
#endif /* ifdef USART */

}
  401698:	b003      	add	sp, #12
  40169a:	bdf0      	pop	{r4, r5, r6, r7, pc}
		while (uart_read((Uart*)p_usart, data));
  40169c:	461f      	mov	r7, r3
  40169e:	4e15      	ldr	r6, [pc, #84]	; (4016f4 <usart_serial_getchar+0x80>)
  4016a0:	4621      	mov	r1, r4
  4016a2:	4638      	mov	r0, r7
  4016a4:	47b0      	blx	r6
  4016a6:	2800      	cmp	r0, #0
  4016a8:	d1fa      	bne.n	4016a0 <usart_serial_getchar+0x2c>
  4016aa:	e7f2      	b.n	401692 <usart_serial_getchar+0x1e>
		while (uart_read((Uart*)p_usart, data));
  4016ac:	461e      	mov	r6, r3
  4016ae:	4d11      	ldr	r5, [pc, #68]	; (4016f4 <usart_serial_getchar+0x80>)
  4016b0:	4621      	mov	r1, r4
  4016b2:	4630      	mov	r0, r6
  4016b4:	47a8      	blx	r5
  4016b6:	2800      	cmp	r0, #0
  4016b8:	d1fa      	bne.n	4016b0 <usart_serial_getchar+0x3c>
  4016ba:	e7ed      	b.n	401698 <usart_serial_getchar+0x24>
		while (usart_read(p_usart, &val));
  4016bc:	461e      	mov	r6, r3
  4016be:	4d0e      	ldr	r5, [pc, #56]	; (4016f8 <usart_serial_getchar+0x84>)
  4016c0:	a901      	add	r1, sp, #4
  4016c2:	4630      	mov	r0, r6
  4016c4:	47a8      	blx	r5
  4016c6:	2800      	cmp	r0, #0
  4016c8:	d1fa      	bne.n	4016c0 <usart_serial_getchar+0x4c>
		*data = (uint8_t)(val & 0xFF);
  4016ca:	9b01      	ldr	r3, [sp, #4]
  4016cc:	7023      	strb	r3, [r4, #0]
  4016ce:	e7e3      	b.n	401698 <usart_serial_getchar+0x24>
		while (usart_read(p_usart, &val));
  4016d0:	461e      	mov	r6, r3
  4016d2:	4d09      	ldr	r5, [pc, #36]	; (4016f8 <usart_serial_getchar+0x84>)
  4016d4:	a901      	add	r1, sp, #4
  4016d6:	4630      	mov	r0, r6
  4016d8:	47a8      	blx	r5
  4016da:	2800      	cmp	r0, #0
  4016dc:	d1fa      	bne.n	4016d4 <usart_serial_getchar+0x60>
		*data = (uint8_t)(val & 0xFF);
  4016de:	9b01      	ldr	r3, [sp, #4]
  4016e0:	7023      	strb	r3, [r4, #0]
}
  4016e2:	e7d9      	b.n	401698 <usart_serial_getchar+0x24>
  4016e4:	400e0600 	.word	0x400e0600
  4016e8:	400e0800 	.word	0x400e0800
  4016ec:	40024000 	.word	0x40024000
  4016f0:	40028000 	.word	0x40028000
  4016f4:	00401393 	.word	0x00401393
  4016f8:	004013b9 	.word	0x004013b9

004016fc <usart_serial_putchar>:
{
  4016fc:	b570      	push	{r4, r5, r6, lr}
  4016fe:	460c      	mov	r4, r1
	if (UART0 == (Uart*)p_usart) {
  401700:	4b18      	ldr	r3, [pc, #96]	; (401764 <usart_serial_putchar+0x68>)
  401702:	4298      	cmp	r0, r3
  401704:	d00a      	beq.n	40171c <usart_serial_putchar+0x20>
	if (UART1 == (Uart*)p_usart) {
  401706:	4b18      	ldr	r3, [pc, #96]	; (401768 <usart_serial_putchar+0x6c>)
  401708:	4298      	cmp	r0, r3
  40170a:	d010      	beq.n	40172e <usart_serial_putchar+0x32>
	if (USART0 == p_usart) {
  40170c:	4b17      	ldr	r3, [pc, #92]	; (40176c <usart_serial_putchar+0x70>)
  40170e:	4298      	cmp	r0, r3
  401710:	d016      	beq.n	401740 <usart_serial_putchar+0x44>
	if (USART1 == p_usart) {
  401712:	4b17      	ldr	r3, [pc, #92]	; (401770 <usart_serial_putchar+0x74>)
  401714:	4298      	cmp	r0, r3
  401716:	d01c      	beq.n	401752 <usart_serial_putchar+0x56>
	return 0;
  401718:	2000      	movs	r0, #0
}
  40171a:	bd70      	pop	{r4, r5, r6, pc}
		while (uart_write((Uart*)p_usart, c)!=0);
  40171c:	461e      	mov	r6, r3
  40171e:	4d15      	ldr	r5, [pc, #84]	; (401774 <usart_serial_putchar+0x78>)
  401720:	4621      	mov	r1, r4
  401722:	4630      	mov	r0, r6
  401724:	47a8      	blx	r5
  401726:	2800      	cmp	r0, #0
  401728:	d1fa      	bne.n	401720 <usart_serial_putchar+0x24>
		return 1;
  40172a:	2001      	movs	r0, #1
  40172c:	bd70      	pop	{r4, r5, r6, pc}
		while (uart_write((Uart*)p_usart, c)!=0);
  40172e:	461e      	mov	r6, r3
  401730:	4d10      	ldr	r5, [pc, #64]	; (401774 <usart_serial_putchar+0x78>)
  401732:	4621      	mov	r1, r4
  401734:	4630      	mov	r0, r6
  401736:	47a8      	blx	r5
  401738:	2800      	cmp	r0, #0
  40173a:	d1fa      	bne.n	401732 <usart_serial_putchar+0x36>
		return 1;
  40173c:	2001      	movs	r0, #1
  40173e:	bd70      	pop	{r4, r5, r6, pc}
		while (usart_write(p_usart, c)!=0);
  401740:	461e      	mov	r6, r3
  401742:	4d0d      	ldr	r5, [pc, #52]	; (401778 <usart_serial_putchar+0x7c>)
  401744:	4621      	mov	r1, r4
  401746:	4630      	mov	r0, r6
  401748:	47a8      	blx	r5
  40174a:	2800      	cmp	r0, #0
  40174c:	d1fa      	bne.n	401744 <usart_serial_putchar+0x48>
		return 1;
  40174e:	2001      	movs	r0, #1
  401750:	bd70      	pop	{r4, r5, r6, pc}
		while (usart_write(p_usart, c)!=0);
  401752:	461e      	mov	r6, r3
  401754:	4d08      	ldr	r5, [pc, #32]	; (401778 <usart_serial_putchar+0x7c>)
  401756:	4621      	mov	r1, r4
  401758:	4630      	mov	r0, r6
  40175a:	47a8      	blx	r5
  40175c:	2800      	cmp	r0, #0
  40175e:	d1fa      	bne.n	401756 <usart_serial_putchar+0x5a>
		return 1;
  401760:	2001      	movs	r0, #1
  401762:	bd70      	pop	{r4, r5, r6, pc}
  401764:	400e0600 	.word	0x400e0600
  401768:	400e0800 	.word	0x400e0800
  40176c:	40024000 	.word	0x40024000
  401770:	40028000 	.word	0x40028000
  401774:	00401383 	.word	0x00401383
  401778:	004013a5 	.word	0x004013a5

0040177c <configure_lcd>:
char sPresence_sts[10];

struct ili93xx_opt_t g_ili93xx_display_opt;

void configure_lcd()
{
  40177c:	e92d 41f0 	stmdb	sp!, {r4, r5, r6, r7, r8, lr}
	/** Enable peripheral clock */
	pmc_enable_periph_clk(ID_SMC);
  401780:	200a      	movs	r0, #10
  401782:	4b1e      	ldr	r3, [pc, #120]	; (4017fc <configure_lcd+0x80>)
  401784:	4798      	blx	r3

	/** Configure SMC interface for Lcd */
	smc_set_setup_timing(SMC, ILI93XX_LCD_CS, SMC_SETUP_NWE_SETUP(2)
  401786:	4c1e      	ldr	r4, [pc, #120]	; (401800 <configure_lcd+0x84>)
  401788:	f04f 3202 	mov.w	r2, #33686018	; 0x2020202
  40178c:	2101      	movs	r1, #1
  40178e:	4620      	mov	r0, r4
  401790:	4b1c      	ldr	r3, [pc, #112]	; (401804 <configure_lcd+0x88>)
  401792:	4798      	blx	r3
	| SMC_SETUP_NCS_WR_SETUP(2)
	| SMC_SETUP_NRD_SETUP(2)
	| SMC_SETUP_NCS_RD_SETUP(2));
	
	smc_set_pulse_timing(SMC, ILI93XX_LCD_CS, SMC_PULSE_NWE_PULSE(4)
  401794:	4a1c      	ldr	r2, [pc, #112]	; (401808 <configure_lcd+0x8c>)
  401796:	2101      	movs	r1, #1
  401798:	4620      	mov	r0, r4
  40179a:	4b1c      	ldr	r3, [pc, #112]	; (40180c <configure_lcd+0x90>)
  40179c:	4798      	blx	r3
	| SMC_PULSE_NCS_WR_PULSE(4)
	| SMC_PULSE_NRD_PULSE(10)
	| SMC_PULSE_NCS_RD_PULSE(10));
	
	smc_set_cycle_timing(SMC, ILI93XX_LCD_CS, SMC_CYCLE_NWE_CYCLE(10)
  40179e:	4a1c      	ldr	r2, [pc, #112]	; (401810 <configure_lcd+0x94>)
  4017a0:	2101      	movs	r1, #1
  4017a2:	4620      	mov	r0, r4
  4017a4:	4b1b      	ldr	r3, [pc, #108]	; (401814 <configure_lcd+0x98>)
  4017a6:	4798      	blx	r3
	| SMC_CYCLE_NRD_CYCLE(22));
	
	smc_set_mode(SMC, ILI93XX_LCD_CS, SMC_MODE_READ_MODE
  4017a8:	2203      	movs	r2, #3
  4017aa:	2101      	movs	r1, #1
  4017ac:	4620      	mov	r0, r4
  4017ae:	4b1a      	ldr	r3, [pc, #104]	; (401818 <configure_lcd+0x9c>)
  4017b0:	4798      	blx	r3
	| SMC_MODE_WRITE_MODE);

	/** Initialize display parameter */
	g_ili93xx_display_opt.ul_width = ILI93XX_LCD_WIDTH;
  4017b2:	4d1a      	ldr	r5, [pc, #104]	; (40181c <configure_lcd+0xa0>)
  4017b4:	26f0      	movs	r6, #240	; 0xf0
  4017b6:	602e      	str	r6, [r5, #0]
	g_ili93xx_display_opt.ul_height = ILI93XX_LCD_HEIGHT;
  4017b8:	f44f 77a0 	mov.w	r7, #320	; 0x140
  4017bc:	606f      	str	r7, [r5, #4]
	g_ili93xx_display_opt.foreground_color = COLOR_BLACK;
  4017be:	2400      	movs	r4, #0
  4017c0:	60ac      	str	r4, [r5, #8]
	g_ili93xx_display_opt.background_color = COLOR_WHITE;
  4017c2:	f06f 487f 	mvn.w	r8, #4278190080	; 0xff000000
  4017c6:	f8c5 800c 	str.w	r8, [r5, #12]

	/** Switch off backlight */
	aat31xx_disable_backlight();
  4017ca:	4b15      	ldr	r3, [pc, #84]	; (401820 <configure_lcd+0xa4>)
  4017cc:	4798      	blx	r3

	/** Initialize LCD */
	ili93xx_init(&g_ili93xx_display_opt);
  4017ce:	4628      	mov	r0, r5
  4017d0:	4b14      	ldr	r3, [pc, #80]	; (401824 <configure_lcd+0xa8>)
  4017d2:	4798      	blx	r3

	/** Set backlight level */
	aat31xx_set_backlight(AAT31XX_AVG_BACKLIGHT_LEVEL);
  4017d4:	2008      	movs	r0, #8
  4017d6:	4b14      	ldr	r3, [pc, #80]	; (401828 <configure_lcd+0xac>)
  4017d8:	4798      	blx	r3

	ili93xx_set_foreground_color(COLOR_WHITE);
  4017da:	4640      	mov	r0, r8
  4017dc:	4b13      	ldr	r3, [pc, #76]	; (40182c <configure_lcd+0xb0>)
  4017de:	4798      	blx	r3
	ili93xx_draw_filled_rectangle(0, 0, ILI93XX_LCD_WIDTH,
  4017e0:	463b      	mov	r3, r7
  4017e2:	4632      	mov	r2, r6
  4017e4:	4621      	mov	r1, r4
  4017e6:	4620      	mov	r0, r4
  4017e8:	4d11      	ldr	r5, [pc, #68]	; (401830 <configure_lcd+0xb4>)
  4017ea:	47a8      	blx	r5
	ILI93XX_LCD_HEIGHT);
	/** Turn on LCD */
	ili93xx_display_on();
  4017ec:	4b11      	ldr	r3, [pc, #68]	; (401834 <configure_lcd+0xb8>)
  4017ee:	4798      	blx	r3
	ili93xx_set_cursor_position(0, 0);
  4017f0:	4621      	mov	r1, r4
  4017f2:	4620      	mov	r0, r4
  4017f4:	4b10      	ldr	r3, [pc, #64]	; (401838 <configure_lcd+0xbc>)
  4017f6:	4798      	blx	r3
  4017f8:	e8bd 81f0 	ldmia.w	sp!, {r4, r5, r6, r7, r8, pc}
  4017fc:	004012f9 	.word	0x004012f9
  401800:	400e0000 	.word	0x400e0000
  401804:	00400ac5 	.word	0x00400ac5
  401808:	0a0a0404 	.word	0x0a0a0404
  40180c:	00400acb 	.word	0x00400acb
  401810:	0016000a 	.word	0x0016000a
  401814:	00400ad3 	.word	0x00400ad3
  401818:	00400adb 	.word	0x00400adb
  40181c:	20000e88 	.word	0x20000e88
  401820:	00400221 	.word	0x00400221
  401824:	00400569 	.word	0x00400569
  401828:	004001c5 	.word	0x004001c5
  40182c:	00400481 	.word	0x00400481
  401830:	004008c9 	.word	0x004008c9
  401834:	0040044d 	.word	0x0040044d
  401838:	00400541 	.word	0x00400541

0040183c <PWM_init>:

/* Rotina de inicializao do PWM */
void PWM_init(void)
{
	// disable the PIO (peripheral controls the pin)
	PIOA->PIO_PDR = PIO_PDR_P19;
  40183c:	4b0f      	ldr	r3, [pc, #60]	; (40187c <PWM_init+0x40>)
  40183e:	f44f 2200 	mov.w	r2, #524288	; 0x80000
  401842:	605a      	str	r2, [r3, #4]
	// select alternate function B (PWML0) for pin PA19
	PIOA->PIO_ABCDSR[0] |= PIO_ABCDSR_P19;
  401844:	6f1a      	ldr	r2, [r3, #112]	; 0x70
  401846:	f442 2200 	orr.w	r2, r2, #524288	; 0x80000
  40184a:	671a      	str	r2, [r3, #112]	; 0x70
	PIOA->PIO_ABCDSR[1] &= ~PIO_ABCDSR_P19;
  40184c:	6f5a      	ldr	r2, [r3, #116]	; 0x74
  40184e:	f422 2200 	bic.w	r2, r2, #524288	; 0x80000
  401852:	675a      	str	r2, [r3, #116]	; 0x74
	// Enable the PWM peripheral from the Power Manger
	PMC->PMC_PCER0 = (1 << ID_PWM);
  401854:	f04f 4200 	mov.w	r2, #2147483648	; 0x80000000
  401858:	f5a3 6320 	sub.w	r3, r3, #2560	; 0xa00
  40185c:	611a      	str	r2, [r3, #16]
	// Select the Clock to run at the MCK (4MHz)
	PWM->PWM_CH_NUM[0].PWM_CMR = PWM_CMR_CPRE_MCK;
  40185e:	4b08      	ldr	r3, [pc, #32]	; (401880 <PWM_init+0x44>)
  401860:	2200      	movs	r2, #0
  401862:	f8c3 2200 	str.w	r2, [r3, #512]	; 0x200
	// select the period 10msec
	PWM->PWM_CH_NUM[0].PWM_CPRD = 4096;// freq em khz
  401866:	f44f 5280 	mov.w	r2, #4096	; 0x1000
  40186a:	f8c3 220c 	str.w	r2, [r3, #524]	; 0x20c
	// select the duty cycle
	PWM->PWM_CH_NUM[0].PWM_CDTY = 3500;
  40186e:	f640 52ac 	movw	r2, #3500	; 0xdac
  401872:	f8c3 2204 	str.w	r2, [r3, #516]	; 0x204
	// enable the channel
	PWM->PWM_ENA = PWM_ENA_CHID0;
  401876:	2201      	movs	r2, #1
  401878:	605a      	str	r2, [r3, #4]
  40187a:	4770      	bx	lr
  40187c:	400e0e00 	.word	0x400e0e00
  401880:	40020000 	.word	0x40020000

00401884 <UART_init>:
}

/* Rotina de inicializao do UART */
void UART_init()
{
  401884:	e92d 41f0 	stmdb	sp!, {r4, r5, r6, r7, r8, lr}
  401888:	b084      	sub	sp, #16
	uart_settings.ul_mck = sysclk_get_peripheral_hz();
  40188a:	f8df 808c 	ldr.w	r8, [pc, #140]	; 401918 <UART_init+0x94>
  40188e:	f8cd 8004 	str.w	r8, [sp, #4]
	uart_settings.ul_baudrate = opt->baudrate;
  401892:	4c16      	ldr	r4, [pc, #88]	; (4018ec <UART_init+0x68>)
  401894:	6823      	ldr	r3, [r4, #0]
  401896:	9302      	str	r3, [sp, #8]
	uart_settings.ul_mode = opt->paritytype;
  401898:	68a3      	ldr	r3, [r4, #8]
  40189a:	9303      	str	r3, [sp, #12]
  40189c:	2008      	movs	r0, #8
  40189e:	4f14      	ldr	r7, [pc, #80]	; (4018f0 <UART_init+0x6c>)
  4018a0:	47b8      	blx	r7
		uart_init((Uart*)p_usart, &uart_settings);
  4018a2:	4d14      	ldr	r5, [pc, #80]	; (4018f4 <UART_init+0x70>)
  4018a4:	a901      	add	r1, sp, #4
  4018a6:	4628      	mov	r0, r5
  4018a8:	4e13      	ldr	r6, [pc, #76]	; (4018f8 <UART_init+0x74>)
  4018aa:	47b0      	blx	r6
 * \param opt         Options needed to set up RS232 communication (see \ref usart_options_t).
 *
 */
static inline void stdio_serial_init(volatile void *usart, const usart_serial_options_t *opt)
{
	stdio_base = (void *)usart;
  4018ac:	4b13      	ldr	r3, [pc, #76]	; (4018fc <UART_init+0x78>)
  4018ae:	601d      	str	r5, [r3, #0]
	ptr_put = (int (*)(void volatile*,char))&usart_serial_putchar;
  4018b0:	4a13      	ldr	r2, [pc, #76]	; (401900 <UART_init+0x7c>)
  4018b2:	4b14      	ldr	r3, [pc, #80]	; (401904 <UART_init+0x80>)
  4018b4:	601a      	str	r2, [r3, #0]
	ptr_get = (void (*)(void volatile*,char*))&usart_serial_getchar;
  4018b6:	4a14      	ldr	r2, [pc, #80]	; (401908 <UART_init+0x84>)
  4018b8:	4b14      	ldr	r3, [pc, #80]	; (40190c <UART_init+0x88>)
  4018ba:	601a      	str	r2, [r3, #0]
	uart_settings.ul_mck = sysclk_get_peripheral_hz();
  4018bc:	f8cd 8004 	str.w	r8, [sp, #4]
	uart_settings.ul_baudrate = opt->baudrate;
  4018c0:	6823      	ldr	r3, [r4, #0]
  4018c2:	9302      	str	r3, [sp, #8]
	uart_settings.ul_mode = opt->paritytype;
  4018c4:	68a3      	ldr	r3, [r4, #8]
  4018c6:	9303      	str	r3, [sp, #12]
  4018c8:	2008      	movs	r0, #8
  4018ca:	47b8      	blx	r7
		uart_init((Uart*)p_usart, &uart_settings);
  4018cc:	a901      	add	r1, sp, #4
  4018ce:	4628      	mov	r0, r5
  4018d0:	47b0      	blx	r6
	fdevopen((int (*)(char, FILE*))(_write),(int (*)(FILE*))(_read));
#  endif
#  if UC3 || SAM
	// For AVR32 and SAM GCC
	// Specify that stdout and stdin should not be buffered.
	setbuf(stdout, NULL);
  4018d2:	4d0f      	ldr	r5, [pc, #60]	; (401910 <UART_init+0x8c>)
  4018d4:	682b      	ldr	r3, [r5, #0]
  4018d6:	2100      	movs	r1, #0
  4018d8:	6898      	ldr	r0, [r3, #8]
  4018da:	4c0e      	ldr	r4, [pc, #56]	; (401914 <UART_init+0x90>)
  4018dc:	47a0      	blx	r4
	setbuf(stdin, NULL);
  4018de:	682b      	ldr	r3, [r5, #0]
  4018e0:	2100      	movs	r1, #0
  4018e2:	6858      	ldr	r0, [r3, #4]
  4018e4:	47a0      	blx	r4
		.paritytype = CONF_UART_PARITY,
		.stopbits = CONF_UART_STOP_BITS
	};
	usart_serial_init(CONF_UART, &usart_options);
	stdio_serial_init((Usart *)CONF_UART, &usart_options);
}
  4018e6:	b004      	add	sp, #16
  4018e8:	e8bd 81f0 	ldmia.w	sp!, {r4, r5, r6, r7, r8, pc}
  4018ec:	2000000c 	.word	0x2000000c
  4018f0:	004012f9 	.word	0x004012f9
  4018f4:	400e0600 	.word	0x400e0600
  4018f8:	0040134d 	.word	0x0040134d
  4018fc:	20000e60 	.word	0x20000e60
  401900:	004016fd 	.word	0x004016fd
  401904:	20000e5c 	.word	0x20000e5c
  401908:	00401675 	.word	0x00401675
  40190c:	20000e58 	.word	0x20000e58
  401910:	2000001c 	.word	0x2000001c
  401914:	00402071 	.word	0x00402071
  401918:	07270e00 	.word	0x07270e00

0040191c <presence_cfg>:

/* Configurao da Interrupo - Sensor de Presena */
void presence_cfg()
{
  40191c:	b530      	push	{r4, r5, lr}
  40191e:	b083      	sub	sp, #12
	pio_set_input(PIOB, PIO_PB3, PIO_PULLUP | PIO_DEBOUNCE);
  401920:	4c0d      	ldr	r4, [pc, #52]	; (401958 <presence_cfg+0x3c>)
  401922:	2209      	movs	r2, #9
  401924:	2108      	movs	r1, #8
  401926:	4620      	mov	r0, r4
  401928:	4b0c      	ldr	r3, [pc, #48]	; (40195c <presence_cfg+0x40>)
  40192a:	4798      	blx	r3
	pio_handler_set(PIOB, ID_PIOB, PIO_PB3, PIO_IT_RISE_EDGE, presence_interrupt);
  40192c:	4b0c      	ldr	r3, [pc, #48]	; (401960 <presence_cfg+0x44>)
  40192e:	9300      	str	r3, [sp, #0]
  401930:	2370      	movs	r3, #112	; 0x70
  401932:	2208      	movs	r2, #8
  401934:	210c      	movs	r1, #12
  401936:	4620      	mov	r0, r4
  401938:	4d0a      	ldr	r5, [pc, #40]	; (401964 <presence_cfg+0x48>)
  40193a:	47a8      	blx	r5
	pio_enable_interrupt(PIOB, PIO_PB3);
  40193c:	2108      	movs	r1, #8
  40193e:	4620      	mov	r0, r4
  401940:	4b09      	ldr	r3, [pc, #36]	; (401968 <presence_cfg+0x4c>)
  401942:	4798      	blx	r3
__STATIC_INLINE void NVIC_SetPriority(IRQn_Type IRQn, uint32_t priority)
{
  if(IRQn < 0) {
    SCB->SHP[((uint32_t)(IRQn) & 0xF)-4] = ((priority << (8 - __NVIC_PRIO_BITS)) & 0xff); } /* set Priority for Cortex-M  System Interrupts */
  else {
    NVIC->IP[(uint32_t)(IRQn)] = ((priority << (8 - __NVIC_PRIO_BITS)) & 0xff);    }        /* set Priority for device specific Interrupts  */
  401944:	4b09      	ldr	r3, [pc, #36]	; (40196c <presence_cfg+0x50>)
  401946:	22e0      	movs	r2, #224	; 0xe0
  401948:	f883 230c 	strb.w	r2, [r3, #780]	; 0x30c
  NVIC->ISER[(uint32_t)((int32_t)IRQn) >> 5] = (uint32_t)(1 << ((uint32_t)((int32_t)IRQn) & (uint32_t)0x1F)); /* enable interrupt */
  40194c:	f44f 5280 	mov.w	r2, #4096	; 0x1000
  401950:	601a      	str	r2, [r3, #0]
	NVIC_SetPriority (PIOB_IRQn,14);
	NVIC_EnableIRQ(PIOB_IRQn);
}
  401952:	b003      	add	sp, #12
  401954:	bd30      	pop	{r4, r5, pc}
  401956:	bf00      	nop
  401958:	400e1000 	.word	0x400e1000
  40195c:	00400e3d 	.word	0x00400e3d
  401960:	00401ced 	.word	0x00401ced
  401964:	00401165 	.word	0x00401165
  401968:	00400ec3 	.word	0x00400ec3
  40196c:	e000e100 	.word	0xe000e100

00401970 <configure_adc>:

void configure_adc(void)
{
  401970:	b538      	push	{r3, r4, r5, lr}
	pmc_enable_periph_clk(ID_ADC);
  401972:	201d      	movs	r0, #29
  401974:	4b1b      	ldr	r3, [pc, #108]	; (4019e4 <configure_adc+0x74>)
  401976:	4798      	blx	r3
	adc_init(ADC, sysclk_get_cpu_hz(), 6400000, STARTUP_TIME);
  401978:	4c1b      	ldr	r4, [pc, #108]	; (4019e8 <configure_adc+0x78>)
  40197a:	f44f 2380 	mov.w	r3, #262144	; 0x40000
  40197e:	4a1b      	ldr	r2, [pc, #108]	; (4019ec <configure_adc+0x7c>)
  401980:	491b      	ldr	r1, [pc, #108]	; (4019f0 <configure_adc+0x80>)
  401982:	4620      	mov	r0, r4
  401984:	4d1b      	ldr	r5, [pc, #108]	; (4019f4 <configure_adc+0x84>)
  401986:	47a8      	blx	r5
	adc_configure_timing(ADC, TRACKING_TIME	, ADC_SETTLING_TIME_3, TRANSFER_PERIOD);
  401988:	2302      	movs	r3, #2
  40198a:	f44f 1240 	mov.w	r2, #3145728	; 0x300000
  40198e:	210f      	movs	r1, #15
  401990:	4620      	mov	r0, r4
  401992:	4d19      	ldr	r5, [pc, #100]	; (4019f8 <configure_adc+0x88>)
  401994:	47a8      	blx	r5
	adc_configure_trigger(ADC, ADC_TRIG_SW, 0);
  401996:	2200      	movs	r2, #0
  401998:	4611      	mov	r1, r2
  40199a:	4620      	mov	r0, r4
  40199c:	4b17      	ldr	r3, [pc, #92]	; (4019fc <configure_adc+0x8c>)
  40199e:	4798      	blx	r3
	adc_enable_channel(ADC, ADC_CHANNEL);
  4019a0:	2105      	movs	r1, #5
  4019a2:	4620      	mov	r0, r4
  4019a4:	4d16      	ldr	r5, [pc, #88]	; (401a00 <configure_adc+0x90>)
  4019a6:	47a8      	blx	r5
	adc_enable_channel(ADC, ADC_CHANNEL_L);
  4019a8:	210c      	movs	r1, #12
  4019aa:	4620      	mov	r0, r4
  4019ac:	47a8      	blx	r5
	ADC->ADC_ACR = TSON;	//Habilita Sensor Interno de Temperatura
  4019ae:	2310      	movs	r3, #16
  4019b0:	f8c4 3094 	str.w	r3, [r4, #148]	; 0x94
	adc_enable_channel(ADC, ADC_TEMPERATURE_SENSOR);	
  4019b4:	210f      	movs	r1, #15
  4019b6:	4620      	mov	r0, r4
  4019b8:	47a8      	blx	r5
    NVIC->IP[(uint32_t)(IRQn)] = ((priority << (8 - __NVIC_PRIO_BITS)) & 0xff);    }        /* set Priority for device specific Interrupts  */
  4019ba:	4b12      	ldr	r3, [pc, #72]	; (401a04 <configure_adc+0x94>)
  4019bc:	2200      	movs	r2, #0
  4019be:	f883 231d 	strb.w	r2, [r3, #797]	; 0x31d
  NVIC->ISER[(uint32_t)((int32_t)IRQn) >> 5] = (uint32_t)(1 << ((uint32_t)((int32_t)IRQn) & (uint32_t)0x1F)); /* enable interrupt */
  4019c2:	f04f 5200 	mov.w	r2, #536870912	; 0x20000000
  4019c6:	601a      	str	r2, [r3, #0]
	NVIC_SetPriority(ADC_IRQn, 16);	//16
	NVIC_EnableIRQ(ADC_IRQn);
//	adc_enable_interrupt(ADC, ADC_IER_DRDY);
	adc_enable_interrupt(ADC, ADC_ISR_EOC12);
  4019c8:	f44f 5180 	mov.w	r1, #4096	; 0x1000
  4019cc:	4620      	mov	r0, r4
  4019ce:	4d0e      	ldr	r5, [pc, #56]	; (401a08 <configure_adc+0x98>)
  4019d0:	47a8      	blx	r5
 	adc_enable_interrupt(ADC, ADC_ISR_EOC5);
  4019d2:	2120      	movs	r1, #32
  4019d4:	4620      	mov	r0, r4
  4019d6:	47a8      	blx	r5
	adc_enable_interrupt(ADC, ADC_ISR_EOC15);
  4019d8:	f44f 4100 	mov.w	r1, #32768	; 0x8000
  4019dc:	4620      	mov	r0, r4
  4019de:	47a8      	blx	r5
  4019e0:	bd38      	pop	{r3, r4, r5, pc}
  4019e2:	bf00      	nop
  4019e4:	004012f9 	.word	0x004012f9
  4019e8:	40038000 	.word	0x40038000
  4019ec:	0061a800 	.word	0x0061a800
  4019f0:	07270e00 	.word	0x07270e00
  4019f4:	00400a41 	.word	0x00400a41
  4019f8:	00400a83 	.word	0x00400a83
  4019fc:	00400a75 	.word	0x00400a75
  401a00:	00400aa5 	.word	0x00400aa5
  401a04:	e000e100 	.word	0xe000e100
  401a08:	00400abd 	.word	0x00400abd

00401a0c <pio_init>:
		else if (adc_get_status(ADC) & ADC_ISR_EOC15)	Actual_Temperature = adc_get_channel_value(ADC, ADC_TEMPERATURE_SENSOR)/*/100*/;
}

void pio_init(void)
{
	PIOB->PIO_PER |= LED_ILUM;
  401a0c:	4b06      	ldr	r3, [pc, #24]	; (401a28 <pio_init+0x1c>)
  401a0e:	681a      	ldr	r2, [r3, #0]
  401a10:	f442 4280 	orr.w	r2, r2, #16384	; 0x4000
  401a14:	601a      	str	r2, [r3, #0]
	PIOB->PIO_OER |= LED_ILUM;
  401a16:	691a      	ldr	r2, [r3, #16]
  401a18:	f442 4280 	orr.w	r2, r2, #16384	; 0x4000
  401a1c:	611a      	str	r2, [r3, #16]
	PIOB->PIO_SODR |= LED_ILUM;
  401a1e:	6b1a      	ldr	r2, [r3, #48]	; 0x30
  401a20:	f442 4280 	orr.w	r2, r2, #16384	; 0x4000
  401a24:	631a      	str	r2, [r3, #48]	; 0x30
  401a26:	4770      	bx	lr
  401a28:	400e1000 	.word	0x400e1000

00401a2c <main>:
}

int main (void)
{
  401a2c:	b500      	push	{lr}
  401a2e:	b085      	sub	sp, #20
	unsigned char key_input;
	/* Chamada de rotinas de inicializao */
	sysclk_init();
  401a30:	4b30      	ldr	r3, [pc, #192]	; (401af4 <main+0xc8>)
  401a32:	4798      	blx	r3
	board_init();
  401a34:	4b30      	ldr	r3, [pc, #192]	; (401af8 <main+0xcc>)
  401a36:	4798      	blx	r3
	pio_init();
  401a38:	4b30      	ldr	r3, [pc, #192]	; (401afc <main+0xd0>)
  401a3a:	4798      	blx	r3
	configure_lcd();
  401a3c:	4b30      	ldr	r3, [pc, #192]	; (401b00 <main+0xd4>)
  401a3e:	4798      	blx	r3
	configure_adc();
  401a40:	4b30      	ldr	r3, [pc, #192]	; (401b04 <main+0xd8>)
  401a42:	4798      	blx	r3
	PWM_init();
  401a44:	4b30      	ldr	r3, [pc, #192]	; (401b08 <main+0xdc>)
  401a46:	4798      	blx	r3
	UART_init();
  401a48:	4b30      	ldr	r3, [pc, #192]	; (401b0c <main+0xe0>)
  401a4a:	4798      	blx	r3
	presence_cfg();
  401a4c:	4b30      	ldr	r3, [pc, #192]	; (401b10 <main+0xe4>)
  401a4e:	4798      	blx	r3
	pmc_enable_periph_clk(ID_TC);
  401a50:	2017      	movs	r0, #23
  401a52:	4b30      	ldr	r3, [pc, #192]	; (401b14 <main+0xe8>)
  401a54:	4798      	blx	r3
	tc_find_mck_divisor( freq_desejada, ul_sysclk, &ul_div, &ul_tcclks,	BOARD_MCK);
  401a56:	4d30      	ldr	r5, [pc, #192]	; (401b18 <main+0xec>)
  401a58:	9500      	str	r5, [sp, #0]
  401a5a:	ab03      	add	r3, sp, #12
  401a5c:	aa02      	add	r2, sp, #8
  401a5e:	4629      	mov	r1, r5
  401a60:	2001      	movs	r0, #1
  401a62:	4c2e      	ldr	r4, [pc, #184]	; (401b1c <main+0xf0>)
  401a64:	47a0      	blx	r4
	tc_init(TC, CHANNEL, ul_tcclks | TC_CMR_CPCTRG);
  401a66:	4c2e      	ldr	r4, [pc, #184]	; (401b20 <main+0xf4>)
  401a68:	9a03      	ldr	r2, [sp, #12]
  401a6a:	f442 4280 	orr.w	r2, r2, #16384	; 0x4000
  401a6e:	2100      	movs	r1, #0
  401a70:	4620      	mov	r0, r4
  401a72:	4b2c      	ldr	r3, [pc, #176]	; (401b24 <main+0xf8>)
  401a74:	4798      	blx	r3
	tc_write_rc(TC, CHANNEL, counts);
  401a76:	9a02      	ldr	r2, [sp, #8]
  401a78:	fbb5 f2f2 	udiv	r2, r5, r2
  401a7c:	2100      	movs	r1, #0
  401a7e:	4620      	mov	r0, r4
  401a80:	4b29      	ldr	r3, [pc, #164]	; (401b28 <main+0xfc>)
  401a82:	4798      	blx	r3
  NVIC->ICPR[((uint32_t)(IRQn) >> 5)] = (1 << ((uint32_t)(IRQn) & 0x1F)); /* Clear pending interrupt */
  401a84:	4b29      	ldr	r3, [pc, #164]	; (401b2c <main+0x100>)
  401a86:	f44f 0200 	mov.w	r2, #8388608	; 0x800000
  401a8a:	f8c3 2180 	str.w	r2, [r3, #384]	; 0x180
    NVIC->IP[(uint32_t)(IRQn)] = ((priority << (8 - __NVIC_PRIO_BITS)) & 0xff);    }        /* set Priority for device specific Interrupts  */
  401a8e:	2550      	movs	r5, #80	; 0x50
  401a90:	f883 5317 	strb.w	r5, [r3, #791]	; 0x317
  NVIC->ISER[(uint32_t)((int32_t)IRQn) >> 5] = (uint32_t)(1 << ((uint32_t)((int32_t)IRQn) & (uint32_t)0x1F)); /* enable interrupt */
  401a94:	601a      	str	r2, [r3, #0]
	tc_enable_interrupt(TC,	CHANNEL, TC_IER_CPCS);
  401a96:	2210      	movs	r2, #16
  401a98:	2100      	movs	r1, #0
  401a9a:	4620      	mov	r0, r4
  401a9c:	4b24      	ldr	r3, [pc, #144]	; (401b30 <main+0x104>)
  401a9e:	4798      	blx	r3
	tc_start(TC, CHANNEL);
  401aa0:	2100      	movs	r1, #0
  401aa2:	4620      	mov	r0, r4
  401aa4:	4b23      	ldr	r3, [pc, #140]	; (401b34 <main+0x108>)
  401aa6:	4798      	blx	r3
	tc_config(1);
	
	/* Draw text on the LCD */
	ili93xx_set_foreground_color(COLOR_BLACK);
  401aa8:	2000      	movs	r0, #0
  401aaa:	4b23      	ldr	r3, [pc, #140]	; (401b38 <main+0x10c>)
  401aac:	4798      	blx	r3
	ili93xx_draw_string(10,  20, (uint8_t *)" Duty  Cycle: ");
  401aae:	4a23      	ldr	r2, [pc, #140]	; (401b3c <main+0x110>)
  401ab0:	2114      	movs	r1, #20
  401ab2:	200a      	movs	r0, #10
  401ab4:	4c22      	ldr	r4, [pc, #136]	; (401b40 <main+0x114>)
  401ab6:	47a0      	blx	r4
	ili93xx_draw_string(10,  50, (uint8_t *)" Temperature: ");
  401ab8:	4a22      	ldr	r2, [pc, #136]	; (401b44 <main+0x118>)
  401aba:	2132      	movs	r1, #50	; 0x32
  401abc:	200a      	movs	r0, #10
  401abe:	47a0      	blx	r4
	ili93xx_draw_string(10,  80, (uint8_t *)"    Humidity: ");
  401ac0:	4a21      	ldr	r2, [pc, #132]	; (401b48 <main+0x11c>)
  401ac2:	4629      	mov	r1, r5
  401ac4:	200a      	movs	r0, #10
  401ac6:	47a0      	blx	r4
	ili93xx_draw_string(10, 110, (uint8_t *)"     G. Hum.: ");
  401ac8:	4a20      	ldr	r2, [pc, #128]	; (401b4c <main+0x120>)
  401aca:	216e      	movs	r1, #110	; 0x6e
  401acc:	200a      	movs	r0, #10
  401ace:	47a0      	blx	r4
	ili93xx_draw_string(10, 140, (uint8_t *)"    Stand-By: ");
  401ad0:	4a1f      	ldr	r2, [pc, #124]	; (401b50 <main+0x124>)
  401ad2:	218c      	movs	r1, #140	; 0x8c
  401ad4:	200a      	movs	r0, #10
  401ad6:	47a0      	blx	r4
	ili93xx_draw_string(10, 170, (uint8_t *)"Luminosidade: ");
  401ad8:	4a1e      	ldr	r2, [pc, #120]	; (401b54 <main+0x128>)
  401ada:	21aa      	movs	r1, #170	; 0xaa
  401adc:	200a      	movs	r0, #10
  401ade:	47a0      	blx	r4
	ili93xx_draw_string(10, 200, (uint8_t *)"  Sts. Bomba: ");
  401ae0:	4a1d      	ldr	r2, [pc, #116]	; (401b58 <main+0x12c>)
  401ae2:	21c8      	movs	r1, #200	; 0xc8
  401ae4:	200a      	movs	r0, #10
  401ae6:	47a0      	blx	r4
	ili93xx_draw_string(10, 230, (uint8_t *)"    Presence: ");
  401ae8:	4a1c      	ldr	r2, [pc, #112]	; (401b5c <main+0x130>)
  401aea:	21e6      	movs	r1, #230	; 0xe6
  401aec:	200a      	movs	r0, #10
  401aee:	47a0      	blx	r4
  401af0:	e7fe      	b.n	401af0 <main+0xc4>
  401af2:	bf00      	nop
  401af4:	00400b8d 	.word	0x00400b8d
  401af8:	00400bf1 	.word	0x00400bf1
  401afc:	00401a0d 	.word	0x00401a0d
  401b00:	0040177d 	.word	0x0040177d
  401b04:	00401971 	.word	0x00401971
  401b08:	0040183d 	.word	0x0040183d
  401b0c:	00401885 	.word	0x00401885
  401b10:	0040191d 	.word	0x0040191d
  401b14:	004012f9 	.word	0x004012f9
  401b18:	07270e00 	.word	0x07270e00
  401b1c:	00400b1b 	.word	0x00400b1b
  401b20:	40010000 	.word	0x40010000
  401b24:	00400ae3 	.word	0x00400ae3
  401b28:	00400b03 	.word	0x00400b03
  401b2c:	e000e100 	.word	0xe000e100
  401b30:	00400b0b 	.word	0x00400b0b
  401b34:	00400afb 	.word	0x00400afb
  401b38:	00400481 	.word	0x00400481
  401b3c:	00408bf8 	.word	0x00408bf8
  401b40:	00400991 	.word	0x00400991
  401b44:	00408c08 	.word	0x00408c08
  401b48:	00408c18 	.word	0x00408c18
  401b4c:	00408c28 	.word	0x00408c28
  401b50:	00408c38 	.word	0x00408c38
  401b54:	00408c48 	.word	0x00408c48
  401b58:	00408c58 	.word	0x00408c58
  401b5c:	00408c68 	.word	0x00408c68

00401b60 <bomba_control>:
	bluetooth_update();
}

void bomba_control(void)
{
	if (Actual_Humidity > TERRA_MAX)
  401b60:	4b11      	ldr	r3, [pc, #68]	; (401ba8 <bomba_control+0x48>)
  401b62:	681b      	ldr	r3, [r3, #0]
  401b64:	2b5f      	cmp	r3, #95	; 0x5f
  401b66:	d907      	bls.n	401b78 <bomba_control+0x18>
	{
		PWM->PWM_CH_NUM[0].PWM_CDTYUPD = BOMBA_Off;
  401b68:	f640 71ff 	movw	r1, #4095	; 0xfff
  401b6c:	4a0f      	ldr	r2, [pc, #60]	; (401bac <bomba_control+0x4c>)
  401b6e:	f8c2 1208 	str.w	r1, [r2, #520]	; 0x208
		uCNTbmb = 0;
  401b72:	2100      	movs	r1, #0
  401b74:	4a0e      	ldr	r2, [pc, #56]	; (401bb0 <bomba_control+0x50>)
  401b76:	8011      	strh	r1, [r2, #0]
	}
	if ((Actual_Humidity >= TERRA_ENX) && (Actual_Humidity < TERRA_MAX))	PWM->PWM_CH_NUM[0].PWM_CDTYUPD = BOMBA_Low;
  401b78:	f1a3 0250 	sub.w	r2, r3, #80	; 0x50
  401b7c:	2a0e      	cmp	r2, #14
  401b7e:	d804      	bhi.n	401b8a <bomba_control+0x2a>
  401b80:	f640 21ab 	movw	r1, #2731	; 0xaab
  401b84:	4a09      	ldr	r2, [pc, #36]	; (401bac <bomba_control+0x4c>)
  401b86:	f8c2 1208 	str.w	r1, [r2, #520]	; 0x208
	if (Actual_Humidity < TERRA_UMID)	PWM->PWM_CH_NUM[0].PWM_CDTYUPD = BOMBA_Med;
  401b8a:	2b27      	cmp	r3, #39	; 0x27
  401b8c:	d804      	bhi.n	401b98 <bomba_control+0x38>
  401b8e:	f240 5155 	movw	r1, #1365	; 0x555
  401b92:	4a06      	ldr	r2, [pc, #24]	; (401bac <bomba_control+0x4c>)
  401b94:	f8c2 1208 	str.w	r1, [r2, #520]	; 0x208
	if (Actual_Humidity < TERRA_SECA)	PWM->PWM_CH_NUM[0].PWM_CDTYUPD = BOMBA_Max;
  401b98:	2b13      	cmp	r3, #19
  401b9a:	d803      	bhi.n	401ba4 <bomba_control+0x44>
  401b9c:	2200      	movs	r2, #0
  401b9e:	4b03      	ldr	r3, [pc, #12]	; (401bac <bomba_control+0x4c>)
  401ba0:	f8c3 2208 	str.w	r2, [r3, #520]	; 0x208
  401ba4:	4770      	bx	lr
  401ba6:	bf00      	nop
  401ba8:	20000ea8 	.word	0x20000ea8
  401bac:	40020000 	.word	0x40020000
  401bb0:	20000ea0 	.word	0x20000ea0

00401bb4 <ADC_Handler>:
{	
  401bb4:	b508      	push	{r3, lr}
    	if (adc_get_status(ADC) & ADC_ISR_EOC5)
  401bb6:	481d      	ldr	r0, [pc, #116]	; (401c2c <ADC_Handler+0x78>)
  401bb8:	4b1d      	ldr	r3, [pc, #116]	; (401c30 <ADC_Handler+0x7c>)
  401bba:	4798      	blx	r3
  401bbc:	f010 0f20 	tst.w	r0, #32
  401bc0:	d01a      	beq.n	401bf8 <ADC_Handler+0x44>
    		Actual_Humidity = (MAX_DIGITAL_AD - adc_get_channel_value(ADC, ADC_CHANNEL))/10;
  401bc2:	2105      	movs	r1, #5
  401bc4:	4819      	ldr	r0, [pc, #100]	; (401c2c <ADC_Handler+0x78>)
  401bc6:	4b1b      	ldr	r3, [pc, #108]	; (401c34 <ADC_Handler+0x80>)
  401bc8:	4798      	blx	r3
  401bca:	f5c0 607f 	rsb	r0, r0, #4080	; 0xff0
  401bce:	300f      	adds	r0, #15
  401bd0:	4b19      	ldr	r3, [pc, #100]	; (401c38 <ADC_Handler+0x84>)
  401bd2:	fba3 3000 	umull	r3, r0, r3, r0
  401bd6:	08c0      	lsrs	r0, r0, #3
    		if (Actual_Humidity>100)			Actual_Humidity = 100;
  401bd8:	2864      	cmp	r0, #100	; 0x64
  401bda:	d806      	bhi.n	401bea <ADC_Handler+0x36>
    		Actual_Humidity = (MAX_DIGITAL_AD - adc_get_channel_value(ADC, ADC_CHANNEL))/10;
  401bdc:	4b17      	ldr	r3, [pc, #92]	; (401c3c <ADC_Handler+0x88>)
  401bde:	6018      	str	r0, [r3, #0]
    		if (uCNTsampl>TEMPO_AMOSTRAGEM)		bomba_control();	//Chama Controle da Bomba
  401be0:	4b17      	ldr	r3, [pc, #92]	; (401c40 <ADC_Handler+0x8c>)
  401be2:	881b      	ldrh	r3, [r3, #0]
  401be4:	2b0a      	cmp	r3, #10
  401be6:	d804      	bhi.n	401bf2 <ADC_Handler+0x3e>
  401be8:	bd08      	pop	{r3, pc}
    		if (Actual_Humidity>100)			Actual_Humidity = 100;
  401bea:	2264      	movs	r2, #100	; 0x64
  401bec:	4b13      	ldr	r3, [pc, #76]	; (401c3c <ADC_Handler+0x88>)
  401bee:	601a      	str	r2, [r3, #0]
  401bf0:	e7f6      	b.n	401be0 <ADC_Handler+0x2c>
    		if (uCNTsampl>TEMPO_AMOSTRAGEM)		bomba_control();	//Chama Controle da Bomba
  401bf2:	4b14      	ldr	r3, [pc, #80]	; (401c44 <ADC_Handler+0x90>)
  401bf4:	4798      	blx	r3
  401bf6:	bd08      	pop	{r3, pc}
    	else if (adc_get_status(ADC) & ADC_ISR_EOC12)	Actual_Luminosity = adc_get_channel_value(ADC, ADC_CHANNEL_L);
  401bf8:	480c      	ldr	r0, [pc, #48]	; (401c2c <ADC_Handler+0x78>)
  401bfa:	4b0d      	ldr	r3, [pc, #52]	; (401c30 <ADC_Handler+0x7c>)
  401bfc:	4798      	blx	r3
  401bfe:	f410 5f80 	tst.w	r0, #4096	; 0x1000
  401c02:	d10c      	bne.n	401c1e <ADC_Handler+0x6a>
		else if (adc_get_status(ADC) & ADC_ISR_EOC15)	Actual_Temperature = adc_get_channel_value(ADC, ADC_TEMPERATURE_SENSOR)/*/100*/;
  401c04:	4809      	ldr	r0, [pc, #36]	; (401c2c <ADC_Handler+0x78>)
  401c06:	4b0a      	ldr	r3, [pc, #40]	; (401c30 <ADC_Handler+0x7c>)
  401c08:	4798      	blx	r3
  401c0a:	f410 4f00 	tst.w	r0, #32768	; 0x8000
  401c0e:	d0eb      	beq.n	401be8 <ADC_Handler+0x34>
  401c10:	210f      	movs	r1, #15
  401c12:	4806      	ldr	r0, [pc, #24]	; (401c2c <ADC_Handler+0x78>)
  401c14:	4b07      	ldr	r3, [pc, #28]	; (401c34 <ADC_Handler+0x80>)
  401c16:	4798      	blx	r3
  401c18:	4b0b      	ldr	r3, [pc, #44]	; (401c48 <ADC_Handler+0x94>)
  401c1a:	6018      	str	r0, [r3, #0]
}
  401c1c:	e7e4      	b.n	401be8 <ADC_Handler+0x34>
    	else if (adc_get_status(ADC) & ADC_ISR_EOC12)	Actual_Luminosity = adc_get_channel_value(ADC, ADC_CHANNEL_L);
  401c1e:	210c      	movs	r1, #12
  401c20:	4802      	ldr	r0, [pc, #8]	; (401c2c <ADC_Handler+0x78>)
  401c22:	4b04      	ldr	r3, [pc, #16]	; (401c34 <ADC_Handler+0x80>)
  401c24:	4798      	blx	r3
  401c26:	4b09      	ldr	r3, [pc, #36]	; (401c4c <ADC_Handler+0x98>)
  401c28:	6018      	str	r0, [r3, #0]
  401c2a:	bd08      	pop	{r3, pc}
  401c2c:	40038000 	.word	0x40038000
  401c30:	00400ac1 	.word	0x00400ac1
  401c34:	00400aaf 	.word	0x00400aaf
  401c38:	cccccccd 	.word	0xcccccccd
  401c3c:	20000ea8 	.word	0x20000ea8
  401c40:	20000ea2 	.word	0x20000ea2
  401c44:	00401b61 	.word	0x00401b61
  401c48:	20000e80 	.word	0x20000e80
  401c4c:	20000e9c 	.word	0x20000e9c

00401c50 <bluetooth_update>:
}

/* Envia dados via Bluetooth */
/* Peridicamente ou quando detectada presena */
void bluetooth_update(void)
{
  401c50:	b510      	push	{r4, lr}
	printf("Duty Cycle: %d%%\n", Actual_Duty_Cycle);
  401c52:	4b15      	ldr	r3, [pc, #84]	; (401ca8 <bluetooth_update+0x58>)
  401c54:	6819      	ldr	r1, [r3, #0]
  401c56:	4815      	ldr	r0, [pc, #84]	; (401cac <bluetooth_update+0x5c>)
  401c58:	4c15      	ldr	r4, [pc, #84]	; (401cb0 <bluetooth_update+0x60>)
  401c5a:	47a0      	blx	r4
	printf("Temperatura: %d\n", Actual_Temperature);
  401c5c:	4b15      	ldr	r3, [pc, #84]	; (401cb4 <bluetooth_update+0x64>)
  401c5e:	6819      	ldr	r1, [r3, #0]
  401c60:	4815      	ldr	r0, [pc, #84]	; (401cb8 <bluetooth_update+0x68>)
  401c62:	47a0      	blx	r4
	printf("Umidade: \n");
  401c64:	4815      	ldr	r0, [pc, #84]	; (401cbc <bluetooth_update+0x6c>)
  401c66:	47a0      	blx	r4
	printf("Umidade (Solo): %i%%\n", Actual_Humidity);
  401c68:	4b15      	ldr	r3, [pc, #84]	; (401cc0 <bluetooth_update+0x70>)
  401c6a:	6819      	ldr	r1, [r3, #0]
  401c6c:	4815      	ldr	r0, [pc, #84]	; (401cc4 <bluetooth_update+0x74>)
  401c6e:	47a0      	blx	r4
	printf("Stand-By: %ds\n", AuxStandBy);
  401c70:	4b15      	ldr	r3, [pc, #84]	; (401cc8 <bluetooth_update+0x78>)
  401c72:	8819      	ldrh	r1, [r3, #0]
  401c74:	4815      	ldr	r0, [pc, #84]	; (401ccc <bluetooth_update+0x7c>)
  401c76:	47a0      	blx	r4
	printf("Luminosidade: %d\n", Actual_Luminosity);
  401c78:	4b15      	ldr	r3, [pc, #84]	; (401cd0 <bluetooth_update+0x80>)
  401c7a:	6819      	ldr	r1, [r3, #0]
  401c7c:	4815      	ldr	r0, [pc, #84]	; (401cd4 <bluetooth_update+0x84>)
  401c7e:	47a0      	blx	r4
	if (uBomba_Status == TRUE) printf("BOMBA LIGADA!\n");
  401c80:	4b15      	ldr	r3, [pc, #84]	; (401cd8 <bluetooth_update+0x88>)
  401c82:	881b      	ldrh	r3, [r3, #0]
  401c84:	2b01      	cmp	r3, #1
  401c86:	d007      	beq.n	401c98 <bluetooth_update+0x48>
	if (uPresence_sts == TRUE) printf("PRESENCA DETECTADA!\n");
  401c88:	4b14      	ldr	r3, [pc, #80]	; (401cdc <bluetooth_update+0x8c>)
  401c8a:	881b      	ldrh	r3, [r3, #0]
  401c8c:	2b01      	cmp	r3, #1
  401c8e:	d006      	beq.n	401c9e <bluetooth_update+0x4e>
	printf("\n");
  401c90:	4813      	ldr	r0, [pc, #76]	; (401ce0 <bluetooth_update+0x90>)
  401c92:	4b07      	ldr	r3, [pc, #28]	; (401cb0 <bluetooth_update+0x60>)
  401c94:	4798      	blx	r3
  401c96:	bd10      	pop	{r4, pc}
	if (uBomba_Status == TRUE) printf("BOMBA LIGADA!\n");
  401c98:	4812      	ldr	r0, [pc, #72]	; (401ce4 <bluetooth_update+0x94>)
  401c9a:	47a0      	blx	r4
  401c9c:	e7f4      	b.n	401c88 <bluetooth_update+0x38>
	if (uPresence_sts == TRUE) printf("PRESENCA DETECTADA!\n");
  401c9e:	4812      	ldr	r0, [pc, #72]	; (401ce8 <bluetooth_update+0x98>)
  401ca0:	4b03      	ldr	r3, [pc, #12]	; (401cb0 <bluetooth_update+0x60>)
  401ca2:	4798      	blx	r3
  401ca4:	e7f4      	b.n	401c90 <bluetooth_update+0x40>
  401ca6:	bf00      	nop
  401ca8:	20000e98 	.word	0x20000e98
  401cac:	00408b40 	.word	0x00408b40
  401cb0:	00401fad 	.word	0x00401fad
  401cb4:	20000e80 	.word	0x20000e80
  401cb8:	00408b54 	.word	0x00408b54
  401cbc:	00408b68 	.word	0x00408b68
  401cc0:	20000ea8 	.word	0x20000ea8
  401cc4:	00408b74 	.word	0x00408b74
  401cc8:	20000e7c 	.word	0x20000e7c
  401ccc:	00408b8c 	.word	0x00408b8c
  401cd0:	20000e9c 	.word	0x20000e9c
  401cd4:	00408b9c 	.word	0x00408b9c
  401cd8:	20000e6c 	.word	0x20000e6c
  401cdc:	20000e7e 	.word	0x20000e7e
  401ce0:	00408b50 	.word	0x00408b50
  401ce4:	00408bb0 	.word	0x00408bb0
  401ce8:	00408bc0 	.word	0x00408bc0

00401cec <presence_interrupt>:
{
  401cec:	b508      	push	{r3, lr}
	uPresence_sts = TRUE;
  401cee:	2201      	movs	r2, #1
  401cf0:	4b03      	ldr	r3, [pc, #12]	; (401d00 <presence_interrupt+0x14>)
  401cf2:	801a      	strh	r2, [r3, #0]
	aat31xx_set_backlight(AAT31XX_AVG_BACKLIGHT_LEVEL);
  401cf4:	2008      	movs	r0, #8
  401cf6:	4b03      	ldr	r3, [pc, #12]	; (401d04 <presence_interrupt+0x18>)
  401cf8:	4798      	blx	r3
	bluetooth_update();
  401cfa:	4b03      	ldr	r3, [pc, #12]	; (401d08 <presence_interrupt+0x1c>)
  401cfc:	4798      	blx	r3
  401cfe:	bd08      	pop	{r3, pc}
  401d00:	20000e7e 	.word	0x20000e7e
  401d04:	004001c5 	.word	0x004001c5
  401d08:	00401c51 	.word	0x00401c51

00401d0c <display_update>:
}

void display_update(void)
{	
  401d0c:	b570      	push	{r4, r5, r6, lr}
  401d0e:	b090      	sub	sp, #64	; 0x40
	Actual_Duty_Cycle = (PWM->PWM_CH_NUM[0].PWM_CDTY);
  401d10:	4b37      	ldr	r3, [pc, #220]	; (401df0 <display_update+0xe4>)
  401d12:	f8d3 2204 	ldr.w	r2, [r3, #516]	; 0x204
	Actual_Duty_Cycle = 100 - (Actual_Duty_Cycle * 100)/MAX_DIGITAL_DC;
  401d16:	2364      	movs	r3, #100	; 0x64
  401d18:	fb03 f302 	mul.w	r3, r3, r2
  401d1c:	4a35      	ldr	r2, [pc, #212]	; (401df4 <display_update+0xe8>)
  401d1e:	fba2 1203 	umull	r1, r2, r2, r3
  401d22:	1a9b      	subs	r3, r3, r2
  401d24:	eb02 0253 	add.w	r2, r2, r3, lsr #1
  401d28:	0ad2      	lsrs	r2, r2, #11
  401d2a:	f1c2 0264 	rsb	r2, r2, #100	; 0x64
  401d2e:	4b32      	ldr	r3, [pc, #200]	; (401df8 <display_update+0xec>)
  401d30:	601a      	str	r2, [r3, #0]
	if (Actual_Duty_Cycle == 0)	uBomba_Status = FALSE;
  401d32:	2a00      	cmp	r2, #0
  401d34:	d152      	bne.n	401ddc <display_update+0xd0>
  401d36:	2100      	movs	r1, #0
  401d38:	4b30      	ldr	r3, [pc, #192]	; (401dfc <display_update+0xf0>)
  401d3a:	8019      	strh	r1, [r3, #0]
	else						uBomba_Status = TRUE;
		
	char buffer1[10], buffer2[10], buffer3[10], buffer4[10], buffer5[10], buffer6[10];
	sprintf (buffer1, "%d%%", Actual_Duty_Cycle);	//DC
  401d3c:	4e30      	ldr	r6, [pc, #192]	; (401e00 <display_update+0xf4>)
  401d3e:	4631      	mov	r1, r6
  401d40:	a80d      	add	r0, sp, #52	; 0x34
  401d42:	4c30      	ldr	r4, [pc, #192]	; (401e04 <display_update+0xf8>)
  401d44:	47a0      	blx	r4
// 	sprintf (buffer2, "%2.2f *C", Actual_Temperature);	//Temperatura
	sprintf (buffer2, "%d", Actual_Temperature);	//Temperatura
  401d46:	4d30      	ldr	r5, [pc, #192]	; (401e08 <display_update+0xfc>)
  401d48:	4b30      	ldr	r3, [pc, #192]	; (401e0c <display_update+0x100>)
  401d4a:	681a      	ldr	r2, [r3, #0]
  401d4c:	4629      	mov	r1, r5
  401d4e:	a80a      	add	r0, sp, #40	; 0x28
  401d50:	47a0      	blx	r4
// 	sprintf (buffer3, "%d%%", Actual_Humidity);		//Umidade
 	sprintf (buffer4, "%d%%", Actual_Humidity);		//Umidade-Solo
  401d52:	4b2f      	ldr	r3, [pc, #188]	; (401e10 <display_update+0x104>)
  401d54:	681a      	ldr	r2, [r3, #0]
  401d56:	4631      	mov	r1, r6
  401d58:	a807      	add	r0, sp, #28
  401d5a:	47a0      	blx	r4
	sprintf (buffer5, "%ds", AuxStandBy);			//Stand-By at prxima ao
  401d5c:	4b2d      	ldr	r3, [pc, #180]	; (401e14 <display_update+0x108>)
  401d5e:	881a      	ldrh	r2, [r3, #0]
  401d60:	492d      	ldr	r1, [pc, #180]	; (401e18 <display_update+0x10c>)
  401d62:	a804      	add	r0, sp, #16
  401d64:	47a0      	blx	r4
	sprintf (buffer6, "%d", Actual_Luminosity);		//Luminosidade
  401d66:	4b2d      	ldr	r3, [pc, #180]	; (401e1c <display_update+0x110>)
  401d68:	681a      	ldr	r2, [r3, #0]
  401d6a:	4629      	mov	r1, r5
  401d6c:	a801      	add	r0, sp, #4
  401d6e:	47a0      	blx	r4
 	
		
	// Desenha retngulo
	ili93xx_set_foreground_color(COLOR_SKYBLUE);
  401d70:	482b      	ldr	r0, [pc, #172]	; (401e20 <display_update+0x114>)
  401d72:	4c2c      	ldr	r4, [pc, #176]	; (401e24 <display_update+0x118>)
  401d74:	47a0      	blx	r4
	ili93xx_draw_filled_rectangle(170, 0, 240, 320);
  401d76:	f44f 73a0 	mov.w	r3, #320	; 0x140
  401d7a:	22f0      	movs	r2, #240	; 0xf0
  401d7c:	2100      	movs	r1, #0
  401d7e:	20aa      	movs	r0, #170	; 0xaa
  401d80:	4d29      	ldr	r5, [pc, #164]	; (401e28 <display_update+0x11c>)
  401d82:	47a8      	blx	r5
	
	// Escreve uma String no LCD na posio 140, 180
	ili93xx_set_foreground_color(COLOR_BLACK);
  401d84:	2000      	movs	r0, #0
  401d86:	47a0      	blx	r4
	ili93xx_draw_string(180, 20, (uint8_t*) buffer1);	//(x32, y32, string) DC
  401d88:	aa0d      	add	r2, sp, #52	; 0x34
  401d8a:	2114      	movs	r1, #20
  401d8c:	20b4      	movs	r0, #180	; 0xb4
  401d8e:	4c27      	ldr	r4, [pc, #156]	; (401e2c <display_update+0x120>)
  401d90:	47a0      	blx	r4
	ili93xx_draw_string(180, 50, (uint8_t*) buffer2);	//(x32, y32, string) Temperatura
  401d92:	aa0a      	add	r2, sp, #40	; 0x28
  401d94:	2132      	movs	r1, #50	; 0x32
  401d96:	20b4      	movs	r0, #180	; 0xb4
  401d98:	47a0      	blx	r4
// 	ili93xx_draw_string(180, 80, (uint8_t*) buffer3);	//(x32, y32, string) Umidade
 	ili93xx_draw_string(180, 110, (uint8_t*) buffer4);	//(x32, y32, string) Umidade-Solo
  401d9a:	aa07      	add	r2, sp, #28
  401d9c:	216e      	movs	r1, #110	; 0x6e
  401d9e:	20b4      	movs	r0, #180	; 0xb4
  401da0:	47a0      	blx	r4
 	ili93xx_draw_string(180, 140, (uint8_t*) buffer5);	//(x32, y32, string) Luminosidade
  401da2:	aa04      	add	r2, sp, #16
  401da4:	218c      	movs	r1, #140	; 0x8c
  401da6:	20b4      	movs	r0, #180	; 0xb4
  401da8:	47a0      	blx	r4
	ili93xx_draw_string(180, 170, (uint8_t*) buffer6);	//(x32, y32, string) Tempo Display 
  401daa:	aa01      	add	r2, sp, #4
  401dac:	21aa      	movs	r1, #170	; 0xaa
  401dae:	20b4      	movs	r0, #180	; 0xb4
  401db0:	47a0      	blx	r4
	if (uBomba_Status == TRUE)	ili93xx_draw_string(180, 200,"ON");
  401db2:	4b12      	ldr	r3, [pc, #72]	; (401dfc <display_update+0xf0>)
  401db4:	881b      	ldrh	r3, [r3, #0]
  401db6:	2b01      	cmp	r3, #1
  401db8:	d014      	beq.n	401de4 <display_update+0xd8>
	else						ili93xx_draw_string(180, 200,"OFF");
  401dba:	4a1d      	ldr	r2, [pc, #116]	; (401e30 <display_update+0x124>)
  401dbc:	21c8      	movs	r1, #200	; 0xc8
  401dbe:	20b4      	movs	r0, #180	; 0xb4
  401dc0:	4b1a      	ldr	r3, [pc, #104]	; (401e2c <display_update+0x120>)
  401dc2:	4798      	blx	r3
 	if (uPresence_sts == TRUE)	ili93xx_draw_string(180, 230,"YES");	//(x32, y32, string)
  401dc4:	4b1b      	ldr	r3, [pc, #108]	; (401e34 <display_update+0x128>)
  401dc6:	881b      	ldrh	r3, [r3, #0]
  401dc8:	2b01      	cmp	r3, #1
  401dca:	bf0c      	ite	eq
  401dcc:	4a1a      	ldreq	r2, [pc, #104]	; (401e38 <display_update+0x12c>)
 	else						ili93xx_draw_string(180, 230,"NO ");	//(x32, y32, string)
  401dce:	4a1b      	ldrne	r2, [pc, #108]	; (401e3c <display_update+0x130>)
  401dd0:	21e6      	movs	r1, #230	; 0xe6
  401dd2:	20b4      	movs	r0, #180	; 0xb4
  401dd4:	4b15      	ldr	r3, [pc, #84]	; (401e2c <display_update+0x120>)
  401dd6:	4798      	blx	r3
  401dd8:	b010      	add	sp, #64	; 0x40
  401dda:	bd70      	pop	{r4, r5, r6, pc}
	else						uBomba_Status = TRUE;
  401ddc:	2101      	movs	r1, #1
  401dde:	4b07      	ldr	r3, [pc, #28]	; (401dfc <display_update+0xf0>)
  401de0:	8019      	strh	r1, [r3, #0]
  401de2:	e7ab      	b.n	401d3c <display_update+0x30>
	if (uBomba_Status == TRUE)	ili93xx_draw_string(180, 200,"ON");
  401de4:	4a16      	ldr	r2, [pc, #88]	; (401e40 <display_update+0x134>)
  401de6:	21c8      	movs	r1, #200	; 0xc8
  401de8:	20b4      	movs	r0, #180	; 0xb4
  401dea:	47a0      	blx	r4
  401dec:	e7ea      	b.n	401dc4 <display_update+0xb8>
  401dee:	bf00      	nop
  401df0:	40020000 	.word	0x40020000
  401df4:	00100101 	.word	0x00100101
  401df8:	20000e98 	.word	0x20000e98
  401dfc:	20000e6c 	.word	0x20000e6c
  401e00:	00408bd8 	.word	0x00408bd8
  401e04:	00402211 	.word	0x00402211
  401e08:	00408be0 	.word	0x00408be0
  401e0c:	20000e80 	.word	0x20000e80
  401e10:	20000ea8 	.word	0x20000ea8
  401e14:	20000e7c 	.word	0x20000e7c
  401e18:	00408be4 	.word	0x00408be4
  401e1c:	20000e9c 	.word	0x20000e9c
  401e20:	0087ceeb 	.word	0x0087ceeb
  401e24:	00400481 	.word	0x00400481
  401e28:	004008c9 	.word	0x004008c9
  401e2c:	00400991 	.word	0x00400991
  401e30:	00408bec 	.word	0x00408bec
  401e34:	20000e7e 	.word	0x20000e7e
  401e38:	00408bf0 	.word	0x00408bf0
  401e3c:	00408bf4 	.word	0x00408bf4
  401e40:	00408be8 	.word	0x00408be8

00401e44 <TC0_Handler>:
{
  401e44:	b508      	push	{r3, lr}
	uCNTbmb++;
  401e46:	4a34      	ldr	r2, [pc, #208]	; (401f18 <TC0_Handler+0xd4>)
  401e48:	8813      	ldrh	r3, [r2, #0]
  401e4a:	3301      	adds	r3, #1
  401e4c:	b29b      	uxth	r3, r3
  401e4e:	8013      	strh	r3, [r2, #0]
	if ((TEMPO_AMOSTRAGEM-uCNTbmb) > 0)	AuxStandBy = (TEMPO_AMOSTRAGEM-uCNTbmb);
  401e50:	f1c3 020a 	rsb	r2, r3, #10
  401e54:	2a00      	cmp	r2, #0
  401e56:	dd2b      	ble.n	401eb0 <TC0_Handler+0x6c>
  401e58:	4613      	mov	r3, r2
  401e5a:	4a30      	ldr	r2, [pc, #192]	; (401f1c <TC0_Handler+0xd8>)
  401e5c:	8013      	strh	r3, [r2, #0]
	tc_get_status(TC,CHANNEL);
  401e5e:	2100      	movs	r1, #0
  401e60:	482f      	ldr	r0, [pc, #188]	; (401f20 <TC0_Handler+0xdc>)
  401e62:	4b30      	ldr	r3, [pc, #192]	; (401f24 <TC0_Handler+0xe0>)
  401e64:	4798      	blx	r3
	adc_start(ADC);		//Inicia converso A/D	
  401e66:	4830      	ldr	r0, [pc, #192]	; (401f28 <TC0_Handler+0xe4>)
  401e68:	4b30      	ldr	r3, [pc, #192]	; (401f2c <TC0_Handler+0xe8>)
  401e6a:	4798      	blx	r3
	if (uPresence_sts == TRUE)
  401e6c:	4b30      	ldr	r3, [pc, #192]	; (401f30 <TC0_Handler+0xec>)
  401e6e:	881b      	ldrh	r3, [r3, #0]
  401e70:	2b01      	cmp	r3, #1
  401e72:	d021      	beq.n	401eb8 <TC0_Handler+0x74>
		uPresence_sts = 0;
  401e74:	2300      	movs	r3, #0
  401e76:	4a2e      	ldr	r2, [pc, #184]	; (401f30 <TC0_Handler+0xec>)
  401e78:	8013      	strh	r3, [r2, #0]
		uTimePresence = 0;
  401e7a:	4a2e      	ldr	r2, [pc, #184]	; (401f34 <TC0_Handler+0xf0>)
  401e7c:	8013      	strh	r3, [r2, #0]
		aat31xx_disable_backlight();
  401e7e:	4b2e      	ldr	r3, [pc, #184]	; (401f38 <TC0_Handler+0xf4>)
  401e80:	4798      	blx	r3
		PIOB->PIO_CODR |= LED_ILUM; 
  401e82:	4a2e      	ldr	r2, [pc, #184]	; (401f3c <TC0_Handler+0xf8>)
  401e84:	6b53      	ldr	r3, [r2, #52]	; 0x34
  401e86:	f443 4380 	orr.w	r3, r3, #16384	; 0x4000
  401e8a:	6353      	str	r3, [r2, #52]	; 0x34
		LED_Off(LED1_GPIO);
  401e8c:	2014      	movs	r0, #20
  401e8e:	4b2c      	ldr	r3, [pc, #176]	; (401f40 <TC0_Handler+0xfc>)
  401e90:	4798      	blx	r3
	uTimeSendBluetooth++;
  401e92:	4b2c      	ldr	r3, [pc, #176]	; (401f44 <TC0_Handler+0x100>)
  401e94:	881b      	ldrh	r3, [r3, #0]
  401e96:	3301      	adds	r3, #1
  401e98:	b29b      	uxth	r3, r3
	if (uTimeSendBluetooth>BLUETOOTH_TIME)
  401e9a:	2b14      	cmp	r3, #20
  401e9c:	d833      	bhi.n	401f06 <TC0_Handler+0xc2>
	uTimeSendBluetooth++;
  401e9e:	4a29      	ldr	r2, [pc, #164]	; (401f44 <TC0_Handler+0x100>)
  401ea0:	8013      	strh	r3, [r2, #0]
	if (uCNTbmb>TEMPO_AMOSTRAGEM)	bomba_control();	//Chama Controle da Bomba
  401ea2:	4b1d      	ldr	r3, [pc, #116]	; (401f18 <TC0_Handler+0xd4>)
  401ea4:	881b      	ldrh	r3, [r3, #0]
  401ea6:	2b0a      	cmp	r3, #10
  401ea8:	d833      	bhi.n	401f12 <TC0_Handler+0xce>
	display_update();	//Atualiza Display
  401eaa:	4b27      	ldr	r3, [pc, #156]	; (401f48 <TC0_Handler+0x104>)
  401eac:	4798      	blx	r3
  401eae:	bd08      	pop	{r3, pc}
	else	AuxStandBy = 0;
  401eb0:	2200      	movs	r2, #0
  401eb2:	4b1a      	ldr	r3, [pc, #104]	; (401f1c <TC0_Handler+0xd8>)
  401eb4:	801a      	strh	r2, [r3, #0]
  401eb6:	e7d2      	b.n	401e5e <TC0_Handler+0x1a>
		if (Actual_Luminosity < LUM_MIN) PIOB->PIO_SODR |= LED_ILUM;
  401eb8:	4b24      	ldr	r3, [pc, #144]	; (401f4c <TC0_Handler+0x108>)
  401eba:	681b      	ldr	r3, [r3, #0]
  401ebc:	f5b3 6fe1 	cmp.w	r3, #1800	; 0x708
  401ec0:	d210      	bcs.n	401ee4 <TC0_Handler+0xa0>
  401ec2:	4a1e      	ldr	r2, [pc, #120]	; (401f3c <TC0_Handler+0xf8>)
  401ec4:	6b13      	ldr	r3, [r2, #48]	; 0x30
  401ec6:	f443 4380 	orr.w	r3, r3, #16384	; 0x4000
  401eca:	6313      	str	r3, [r2, #48]	; 0x30
		LED_On(LED1_GPIO);
  401ecc:	2014      	movs	r0, #20
  401ece:	4b20      	ldr	r3, [pc, #128]	; (401f50 <TC0_Handler+0x10c>)
  401ed0:	4798      	blx	r3
		if (uTimePresence>BACKLIGHT_TIME)
  401ed2:	4b18      	ldr	r3, [pc, #96]	; (401f34 <TC0_Handler+0xf0>)
  401ed4:	881b      	ldrh	r3, [r3, #0]
  401ed6:	2b3c      	cmp	r3, #60	; 0x3c
  401ed8:	d80a      	bhi.n	401ef0 <TC0_Handler+0xac>
		uTimePresence++;
  401eda:	4a16      	ldr	r2, [pc, #88]	; (401f34 <TC0_Handler+0xf0>)
  401edc:	8813      	ldrh	r3, [r2, #0]
  401ede:	3301      	adds	r3, #1
  401ee0:	8013      	strh	r3, [r2, #0]
  401ee2:	e7d6      	b.n	401e92 <TC0_Handler+0x4e>
		else	PIOB->PIO_CODR |= LED_ILUM;
  401ee4:	4a15      	ldr	r2, [pc, #84]	; (401f3c <TC0_Handler+0xf8>)
  401ee6:	6b53      	ldr	r3, [r2, #52]	; 0x34
  401ee8:	f443 4380 	orr.w	r3, r3, #16384	; 0x4000
  401eec:	6353      	str	r3, [r2, #52]	; 0x34
  401eee:	e7ed      	b.n	401ecc <TC0_Handler+0x88>
			uPresence_sts = 0;
  401ef0:	2300      	movs	r3, #0
  401ef2:	4a0f      	ldr	r2, [pc, #60]	; (401f30 <TC0_Handler+0xec>)
  401ef4:	8013      	strh	r3, [r2, #0]
			uTimePresence = 0;
  401ef6:	4a0f      	ldr	r2, [pc, #60]	; (401f34 <TC0_Handler+0xf0>)
  401ef8:	8013      	strh	r3, [r2, #0]
			aat31xx_disable_backlight();
  401efa:	4b0f      	ldr	r3, [pc, #60]	; (401f38 <TC0_Handler+0xf4>)
  401efc:	4798      	blx	r3
			LED_Off(LED1_GPIO);
  401efe:	2014      	movs	r0, #20
  401f00:	4b0f      	ldr	r3, [pc, #60]	; (401f40 <TC0_Handler+0xfc>)
  401f02:	4798      	blx	r3
  401f04:	e7e9      	b.n	401eda <TC0_Handler+0x96>
		uTimeSendBluetooth = 0;
  401f06:	2200      	movs	r2, #0
  401f08:	4b0e      	ldr	r3, [pc, #56]	; (401f44 <TC0_Handler+0x100>)
  401f0a:	801a      	strh	r2, [r3, #0]
		bluetooth_update();
  401f0c:	4b11      	ldr	r3, [pc, #68]	; (401f54 <TC0_Handler+0x110>)
  401f0e:	4798      	blx	r3
  401f10:	e7c7      	b.n	401ea2 <TC0_Handler+0x5e>
	if (uCNTbmb>TEMPO_AMOSTRAGEM)	bomba_control();	//Chama Controle da Bomba
  401f12:	4b11      	ldr	r3, [pc, #68]	; (401f58 <TC0_Handler+0x114>)
  401f14:	4798      	blx	r3
  401f16:	e7c8      	b.n	401eaa <TC0_Handler+0x66>
  401f18:	20000ea0 	.word	0x20000ea0
  401f1c:	20000e7c 	.word	0x20000e7c
  401f20:	40010000 	.word	0x40010000
  401f24:	00400b13 	.word	0x00400b13
  401f28:	40038000 	.word	0x40038000
  401f2c:	00400a9f 	.word	0x00400a9f
  401f30:	20000e7e 	.word	0x20000e7e
  401f34:	20000ea4 	.word	0x20000ea4
  401f38:	00400221 	.word	0x00400221
  401f3c:	400e1000 	.word	0x400e1000
  401f40:	00400d35 	.word	0x00400d35
  401f44:	20000e68 	.word	0x20000e68
  401f48:	00401d0d 	.word	0x00401d0d
  401f4c:	20000e9c 	.word	0x20000e9c
  401f50:	00400d71 	.word	0x00400d71
  401f54:	00401c51 	.word	0x00401c51
  401f58:	00401b61 	.word	0x00401b61

00401f5c <__libc_init_array>:
  401f5c:	b570      	push	{r4, r5, r6, lr}
  401f5e:	4e0f      	ldr	r6, [pc, #60]	; (401f9c <__libc_init_array+0x40>)
  401f60:	4d0f      	ldr	r5, [pc, #60]	; (401fa0 <__libc_init_array+0x44>)
  401f62:	1b76      	subs	r6, r6, r5
  401f64:	10b6      	asrs	r6, r6, #2
  401f66:	bf18      	it	ne
  401f68:	2400      	movne	r4, #0
  401f6a:	d005      	beq.n	401f78 <__libc_init_array+0x1c>
  401f6c:	3401      	adds	r4, #1
  401f6e:	f855 3b04 	ldr.w	r3, [r5], #4
  401f72:	4798      	blx	r3
  401f74:	42a6      	cmp	r6, r4
  401f76:	d1f9      	bne.n	401f6c <__libc_init_array+0x10>
  401f78:	4e0a      	ldr	r6, [pc, #40]	; (401fa4 <__libc_init_array+0x48>)
  401f7a:	4d0b      	ldr	r5, [pc, #44]	; (401fa8 <__libc_init_array+0x4c>)
  401f7c:	1b76      	subs	r6, r6, r5
  401f7e:	f006 ffcf 	bl	408f20 <_init>
  401f82:	10b6      	asrs	r6, r6, #2
  401f84:	bf18      	it	ne
  401f86:	2400      	movne	r4, #0
  401f88:	d006      	beq.n	401f98 <__libc_init_array+0x3c>
  401f8a:	3401      	adds	r4, #1
  401f8c:	f855 3b04 	ldr.w	r3, [r5], #4
  401f90:	4798      	blx	r3
  401f92:	42a6      	cmp	r6, r4
  401f94:	d1f9      	bne.n	401f8a <__libc_init_array+0x2e>
  401f96:	bd70      	pop	{r4, r5, r6, pc}
  401f98:	bd70      	pop	{r4, r5, r6, pc}
  401f9a:	bf00      	nop
  401f9c:	00408f2c 	.word	0x00408f2c
  401fa0:	00408f2c 	.word	0x00408f2c
  401fa4:	00408f34 	.word	0x00408f34
  401fa8:	00408f2c 	.word	0x00408f2c

00401fac <iprintf>:
  401fac:	b40f      	push	{r0, r1, r2, r3}
  401fae:	b500      	push	{lr}
  401fb0:	4907      	ldr	r1, [pc, #28]	; (401fd0 <iprintf+0x24>)
  401fb2:	b083      	sub	sp, #12
  401fb4:	ab04      	add	r3, sp, #16
  401fb6:	6808      	ldr	r0, [r1, #0]
  401fb8:	f853 2b04 	ldr.w	r2, [r3], #4
  401fbc:	6881      	ldr	r1, [r0, #8]
  401fbe:	9301      	str	r3, [sp, #4]
  401fc0:	f001 fc3a 	bl	403838 <_vfiprintf_r>
  401fc4:	b003      	add	sp, #12
  401fc6:	f85d eb04 	ldr.w	lr, [sp], #4
  401fca:	b004      	add	sp, #16
  401fcc:	4770      	bx	lr
  401fce:	bf00      	nop
  401fd0:	2000001c 	.word	0x2000001c

00401fd4 <memset>:
  401fd4:	b470      	push	{r4, r5, r6}
  401fd6:	0786      	lsls	r6, r0, #30
  401fd8:	d046      	beq.n	402068 <memset+0x94>
  401fda:	1e54      	subs	r4, r2, #1
  401fdc:	2a00      	cmp	r2, #0
  401fde:	d041      	beq.n	402064 <memset+0x90>
  401fe0:	b2ca      	uxtb	r2, r1
  401fe2:	4603      	mov	r3, r0
  401fe4:	e002      	b.n	401fec <memset+0x18>
  401fe6:	f114 34ff 	adds.w	r4, r4, #4294967295
  401fea:	d33b      	bcc.n	402064 <memset+0x90>
  401fec:	f803 2b01 	strb.w	r2, [r3], #1
  401ff0:	079d      	lsls	r5, r3, #30
  401ff2:	d1f8      	bne.n	401fe6 <memset+0x12>
  401ff4:	2c03      	cmp	r4, #3
  401ff6:	d92e      	bls.n	402056 <memset+0x82>
  401ff8:	b2cd      	uxtb	r5, r1
  401ffa:	ea45 2505 	orr.w	r5, r5, r5, lsl #8
  401ffe:	2c0f      	cmp	r4, #15
  402000:	ea45 4505 	orr.w	r5, r5, r5, lsl #16
  402004:	d919      	bls.n	40203a <memset+0x66>
  402006:	f103 0210 	add.w	r2, r3, #16
  40200a:	4626      	mov	r6, r4
  40200c:	3e10      	subs	r6, #16
  40200e:	2e0f      	cmp	r6, #15
  402010:	f842 5c10 	str.w	r5, [r2, #-16]
  402014:	f842 5c0c 	str.w	r5, [r2, #-12]
  402018:	f842 5c08 	str.w	r5, [r2, #-8]
  40201c:	f842 5c04 	str.w	r5, [r2, #-4]
  402020:	f102 0210 	add.w	r2, r2, #16
  402024:	d8f2      	bhi.n	40200c <memset+0x38>
  402026:	f1a4 0210 	sub.w	r2, r4, #16
  40202a:	f022 020f 	bic.w	r2, r2, #15
  40202e:	f004 040f 	and.w	r4, r4, #15
  402032:	3210      	adds	r2, #16
  402034:	2c03      	cmp	r4, #3
  402036:	4413      	add	r3, r2
  402038:	d90d      	bls.n	402056 <memset+0x82>
  40203a:	461e      	mov	r6, r3
  40203c:	4622      	mov	r2, r4
  40203e:	3a04      	subs	r2, #4
  402040:	2a03      	cmp	r2, #3
  402042:	f846 5b04 	str.w	r5, [r6], #4
  402046:	d8fa      	bhi.n	40203e <memset+0x6a>
  402048:	1f22      	subs	r2, r4, #4
  40204a:	f022 0203 	bic.w	r2, r2, #3
  40204e:	3204      	adds	r2, #4
  402050:	4413      	add	r3, r2
  402052:	f004 0403 	and.w	r4, r4, #3
  402056:	b12c      	cbz	r4, 402064 <memset+0x90>
  402058:	b2c9      	uxtb	r1, r1
  40205a:	441c      	add	r4, r3
  40205c:	f803 1b01 	strb.w	r1, [r3], #1
  402060:	429c      	cmp	r4, r3
  402062:	d1fb      	bne.n	40205c <memset+0x88>
  402064:	bc70      	pop	{r4, r5, r6}
  402066:	4770      	bx	lr
  402068:	4614      	mov	r4, r2
  40206a:	4603      	mov	r3, r0
  40206c:	e7c2      	b.n	401ff4 <memset+0x20>
  40206e:	bf00      	nop

00402070 <setbuf>:
  402070:	2900      	cmp	r1, #0
  402072:	bf0c      	ite	eq
  402074:	2202      	moveq	r2, #2
  402076:	2200      	movne	r2, #0
  402078:	f44f 6380 	mov.w	r3, #1024	; 0x400
  40207c:	f000 b800 	b.w	402080 <setvbuf>

00402080 <setvbuf>:
  402080:	e92d 43f0 	stmdb	sp!, {r4, r5, r6, r7, r8, r9, lr}
  402084:	4c61      	ldr	r4, [pc, #388]	; (40220c <setvbuf+0x18c>)
  402086:	6825      	ldr	r5, [r4, #0]
  402088:	b083      	sub	sp, #12
  40208a:	4604      	mov	r4, r0
  40208c:	460f      	mov	r7, r1
  40208e:	4690      	mov	r8, r2
  402090:	461e      	mov	r6, r3
  402092:	b115      	cbz	r5, 40209a <setvbuf+0x1a>
  402094:	6bab      	ldr	r3, [r5, #56]	; 0x38
  402096:	2b00      	cmp	r3, #0
  402098:	d064      	beq.n	402164 <setvbuf+0xe4>
  40209a:	f1b8 0f02 	cmp.w	r8, #2
  40209e:	d006      	beq.n	4020ae <setvbuf+0x2e>
  4020a0:	f1b8 0f01 	cmp.w	r8, #1
  4020a4:	f200 809f 	bhi.w	4021e6 <setvbuf+0x166>
  4020a8:	2e00      	cmp	r6, #0
  4020aa:	f2c0 809c 	blt.w	4021e6 <setvbuf+0x166>
  4020ae:	6e63      	ldr	r3, [r4, #100]	; 0x64
  4020b0:	07d8      	lsls	r0, r3, #31
  4020b2:	d534      	bpl.n	40211e <setvbuf+0x9e>
  4020b4:	4621      	mov	r1, r4
  4020b6:	4628      	mov	r0, r5
  4020b8:	f003 fb1c 	bl	4056f4 <_fflush_r>
  4020bc:	6b21      	ldr	r1, [r4, #48]	; 0x30
  4020be:	b141      	cbz	r1, 4020d2 <setvbuf+0x52>
  4020c0:	f104 0340 	add.w	r3, r4, #64	; 0x40
  4020c4:	4299      	cmp	r1, r3
  4020c6:	d002      	beq.n	4020ce <setvbuf+0x4e>
  4020c8:	4628      	mov	r0, r5
  4020ca:	f003 fc91 	bl	4059f0 <_free_r>
  4020ce:	2300      	movs	r3, #0
  4020d0:	6323      	str	r3, [r4, #48]	; 0x30
  4020d2:	f9b4 300c 	ldrsh.w	r3, [r4, #12]
  4020d6:	2200      	movs	r2, #0
  4020d8:	61a2      	str	r2, [r4, #24]
  4020da:	6062      	str	r2, [r4, #4]
  4020dc:	061a      	lsls	r2, r3, #24
  4020de:	d43a      	bmi.n	402156 <setvbuf+0xd6>
  4020e0:	f423 634a 	bic.w	r3, r3, #3232	; 0xca0
  4020e4:	f023 0303 	bic.w	r3, r3, #3
  4020e8:	f1b8 0f02 	cmp.w	r8, #2
  4020ec:	81a3      	strh	r3, [r4, #12]
  4020ee:	d01d      	beq.n	40212c <setvbuf+0xac>
  4020f0:	ab01      	add	r3, sp, #4
  4020f2:	466a      	mov	r2, sp
  4020f4:	4621      	mov	r1, r4
  4020f6:	4628      	mov	r0, r5
  4020f8:	f003 ff26 	bl	405f48 <__swhatbuf_r>
  4020fc:	89a3      	ldrh	r3, [r4, #12]
  4020fe:	4318      	orrs	r0, r3
  402100:	81a0      	strh	r0, [r4, #12]
  402102:	2e00      	cmp	r6, #0
  402104:	d132      	bne.n	40216c <setvbuf+0xec>
  402106:	9e00      	ldr	r6, [sp, #0]
  402108:	4630      	mov	r0, r6
  40210a:	f003 ff95 	bl	406038 <malloc>
  40210e:	4607      	mov	r7, r0
  402110:	2800      	cmp	r0, #0
  402112:	d06b      	beq.n	4021ec <setvbuf+0x16c>
  402114:	89a3      	ldrh	r3, [r4, #12]
  402116:	f043 0380 	orr.w	r3, r3, #128	; 0x80
  40211a:	81a3      	strh	r3, [r4, #12]
  40211c:	e028      	b.n	402170 <setvbuf+0xf0>
  40211e:	89a3      	ldrh	r3, [r4, #12]
  402120:	0599      	lsls	r1, r3, #22
  402122:	d4c7      	bmi.n	4020b4 <setvbuf+0x34>
  402124:	6da0      	ldr	r0, [r4, #88]	; 0x58
  402126:	f003 ff0b 	bl	405f40 <__retarget_lock_acquire_recursive>
  40212a:	e7c3      	b.n	4020b4 <setvbuf+0x34>
  40212c:	2500      	movs	r5, #0
  40212e:	6e61      	ldr	r1, [r4, #100]	; 0x64
  402130:	2600      	movs	r6, #0
  402132:	f104 0243 	add.w	r2, r4, #67	; 0x43
  402136:	f043 0302 	orr.w	r3, r3, #2
  40213a:	2001      	movs	r0, #1
  40213c:	60a6      	str	r6, [r4, #8]
  40213e:	07ce      	lsls	r6, r1, #31
  402140:	81a3      	strh	r3, [r4, #12]
  402142:	6022      	str	r2, [r4, #0]
  402144:	6122      	str	r2, [r4, #16]
  402146:	6160      	str	r0, [r4, #20]
  402148:	d401      	bmi.n	40214e <setvbuf+0xce>
  40214a:	0598      	lsls	r0, r3, #22
  40214c:	d53e      	bpl.n	4021cc <setvbuf+0x14c>
  40214e:	4628      	mov	r0, r5
  402150:	b003      	add	sp, #12
  402152:	e8bd 83f0 	ldmia.w	sp!, {r4, r5, r6, r7, r8, r9, pc}
  402156:	6921      	ldr	r1, [r4, #16]
  402158:	4628      	mov	r0, r5
  40215a:	f003 fc49 	bl	4059f0 <_free_r>
  40215e:	f9b4 300c 	ldrsh.w	r3, [r4, #12]
  402162:	e7bd      	b.n	4020e0 <setvbuf+0x60>
  402164:	4628      	mov	r0, r5
  402166:	f003 fb1d 	bl	4057a4 <__sinit>
  40216a:	e796      	b.n	40209a <setvbuf+0x1a>
  40216c:	2f00      	cmp	r7, #0
  40216e:	d0cb      	beq.n	402108 <setvbuf+0x88>
  402170:	6bab      	ldr	r3, [r5, #56]	; 0x38
  402172:	2b00      	cmp	r3, #0
  402174:	d033      	beq.n	4021de <setvbuf+0x15e>
  402176:	9b00      	ldr	r3, [sp, #0]
  402178:	f9b4 200c 	ldrsh.w	r2, [r4, #12]
  40217c:	6027      	str	r7, [r4, #0]
  40217e:	429e      	cmp	r6, r3
  402180:	bf1c      	itt	ne
  402182:	f442 6200 	orrne.w	r2, r2, #2048	; 0x800
  402186:	81a2      	strhne	r2, [r4, #12]
  402188:	f1b8 0f01 	cmp.w	r8, #1
  40218c:	bf04      	itt	eq
  40218e:	f042 0201 	orreq.w	r2, r2, #1
  402192:	81a2      	strheq	r2, [r4, #12]
  402194:	b292      	uxth	r2, r2
  402196:	f012 0308 	ands.w	r3, r2, #8
  40219a:	6127      	str	r7, [r4, #16]
  40219c:	6166      	str	r6, [r4, #20]
  40219e:	d00e      	beq.n	4021be <setvbuf+0x13e>
  4021a0:	07d1      	lsls	r1, r2, #31
  4021a2:	d51a      	bpl.n	4021da <setvbuf+0x15a>
  4021a4:	6e65      	ldr	r5, [r4, #100]	; 0x64
  4021a6:	4276      	negs	r6, r6
  4021a8:	2300      	movs	r3, #0
  4021aa:	f015 0501 	ands.w	r5, r5, #1
  4021ae:	61a6      	str	r6, [r4, #24]
  4021b0:	60a3      	str	r3, [r4, #8]
  4021b2:	d009      	beq.n	4021c8 <setvbuf+0x148>
  4021b4:	2500      	movs	r5, #0
  4021b6:	4628      	mov	r0, r5
  4021b8:	b003      	add	sp, #12
  4021ba:	e8bd 83f0 	ldmia.w	sp!, {r4, r5, r6, r7, r8, r9, pc}
  4021be:	60a3      	str	r3, [r4, #8]
  4021c0:	6e65      	ldr	r5, [r4, #100]	; 0x64
  4021c2:	f015 0501 	ands.w	r5, r5, #1
  4021c6:	d1f5      	bne.n	4021b4 <setvbuf+0x134>
  4021c8:	0593      	lsls	r3, r2, #22
  4021ca:	d4c0      	bmi.n	40214e <setvbuf+0xce>
  4021cc:	6da0      	ldr	r0, [r4, #88]	; 0x58
  4021ce:	f003 feb9 	bl	405f44 <__retarget_lock_release_recursive>
  4021d2:	4628      	mov	r0, r5
  4021d4:	b003      	add	sp, #12
  4021d6:	e8bd 83f0 	ldmia.w	sp!, {r4, r5, r6, r7, r8, r9, pc}
  4021da:	60a6      	str	r6, [r4, #8]
  4021dc:	e7f0      	b.n	4021c0 <setvbuf+0x140>
  4021de:	4628      	mov	r0, r5
  4021e0:	f003 fae0 	bl	4057a4 <__sinit>
  4021e4:	e7c7      	b.n	402176 <setvbuf+0xf6>
  4021e6:	f04f 35ff 	mov.w	r5, #4294967295
  4021ea:	e7b0      	b.n	40214e <setvbuf+0xce>
  4021ec:	f8dd 9000 	ldr.w	r9, [sp]
  4021f0:	45b1      	cmp	r9, r6
  4021f2:	d004      	beq.n	4021fe <setvbuf+0x17e>
  4021f4:	4648      	mov	r0, r9
  4021f6:	f003 ff1f 	bl	406038 <malloc>
  4021fa:	4607      	mov	r7, r0
  4021fc:	b920      	cbnz	r0, 402208 <setvbuf+0x188>
  4021fe:	f9b4 300c 	ldrsh.w	r3, [r4, #12]
  402202:	f04f 35ff 	mov.w	r5, #4294967295
  402206:	e792      	b.n	40212e <setvbuf+0xae>
  402208:	464e      	mov	r6, r9
  40220a:	e783      	b.n	402114 <setvbuf+0x94>
  40220c:	2000001c 	.word	0x2000001c

00402210 <sprintf>:
  402210:	b40e      	push	{r1, r2, r3}
  402212:	b5f0      	push	{r4, r5, r6, r7, lr}
  402214:	b09c      	sub	sp, #112	; 0x70
  402216:	ab21      	add	r3, sp, #132	; 0x84
  402218:	490f      	ldr	r1, [pc, #60]	; (402258 <sprintf+0x48>)
  40221a:	f853 2b04 	ldr.w	r2, [r3], #4
  40221e:	9301      	str	r3, [sp, #4]
  402220:	4605      	mov	r5, r0
  402222:	f06f 4400 	mvn.w	r4, #2147483648	; 0x80000000
  402226:	6808      	ldr	r0, [r1, #0]
  402228:	9502      	str	r5, [sp, #8]
  40222a:	f44f 7702 	mov.w	r7, #520	; 0x208
  40222e:	f64f 76ff 	movw	r6, #65535	; 0xffff
  402232:	a902      	add	r1, sp, #8
  402234:	9506      	str	r5, [sp, #24]
  402236:	f8ad 7014 	strh.w	r7, [sp, #20]
  40223a:	9404      	str	r4, [sp, #16]
  40223c:	9407      	str	r4, [sp, #28]
  40223e:	f8ad 6016 	strh.w	r6, [sp, #22]
  402242:	f000 f88b 	bl	40235c <_svfprintf_r>
  402246:	9b02      	ldr	r3, [sp, #8]
  402248:	2200      	movs	r2, #0
  40224a:	701a      	strb	r2, [r3, #0]
  40224c:	b01c      	add	sp, #112	; 0x70
  40224e:	e8bd 40f0 	ldmia.w	sp!, {r4, r5, r6, r7, lr}
  402252:	b003      	add	sp, #12
  402254:	4770      	bx	lr
  402256:	bf00      	nop
  402258:	2000001c 	.word	0x2000001c
	...

00402280 <strlen>:
  402280:	f890 f000 	pld	[r0]
  402284:	e96d 4502 	strd	r4, r5, [sp, #-8]!
  402288:	f020 0107 	bic.w	r1, r0, #7
  40228c:	f06f 0c00 	mvn.w	ip, #0
  402290:	f010 0407 	ands.w	r4, r0, #7
  402294:	f891 f020 	pld	[r1, #32]
  402298:	f040 8049 	bne.w	40232e <strlen+0xae>
  40229c:	f04f 0400 	mov.w	r4, #0
  4022a0:	f06f 0007 	mvn.w	r0, #7
  4022a4:	e9d1 2300 	ldrd	r2, r3, [r1]
  4022a8:	f891 f040 	pld	[r1, #64]	; 0x40
  4022ac:	f100 0008 	add.w	r0, r0, #8
  4022b0:	fa82 f24c 	uadd8	r2, r2, ip
  4022b4:	faa4 f28c 	sel	r2, r4, ip
  4022b8:	fa83 f34c 	uadd8	r3, r3, ip
  4022bc:	faa2 f38c 	sel	r3, r2, ip
  4022c0:	bb4b      	cbnz	r3, 402316 <strlen+0x96>
  4022c2:	e9d1 2302 	ldrd	r2, r3, [r1, #8]
  4022c6:	fa82 f24c 	uadd8	r2, r2, ip
  4022ca:	f100 0008 	add.w	r0, r0, #8
  4022ce:	faa4 f28c 	sel	r2, r4, ip
  4022d2:	fa83 f34c 	uadd8	r3, r3, ip
  4022d6:	faa2 f38c 	sel	r3, r2, ip
  4022da:	b9e3      	cbnz	r3, 402316 <strlen+0x96>
  4022dc:	e9d1 2304 	ldrd	r2, r3, [r1, #16]
  4022e0:	fa82 f24c 	uadd8	r2, r2, ip
  4022e4:	f100 0008 	add.w	r0, r0, #8
  4022e8:	faa4 f28c 	sel	r2, r4, ip
  4022ec:	fa83 f34c 	uadd8	r3, r3, ip
  4022f0:	faa2 f38c 	sel	r3, r2, ip
  4022f4:	b97b      	cbnz	r3, 402316 <strlen+0x96>
  4022f6:	e9d1 2306 	ldrd	r2, r3, [r1, #24]
  4022fa:	f101 0120 	add.w	r1, r1, #32
  4022fe:	fa82 f24c 	uadd8	r2, r2, ip
  402302:	f100 0008 	add.w	r0, r0, #8
  402306:	faa4 f28c 	sel	r2, r4, ip
  40230a:	fa83 f34c 	uadd8	r3, r3, ip
  40230e:	faa2 f38c 	sel	r3, r2, ip
  402312:	2b00      	cmp	r3, #0
  402314:	d0c6      	beq.n	4022a4 <strlen+0x24>
  402316:	2a00      	cmp	r2, #0
  402318:	bf04      	itt	eq
  40231a:	3004      	addeq	r0, #4
  40231c:	461a      	moveq	r2, r3
  40231e:	ba12      	rev	r2, r2
  402320:	fab2 f282 	clz	r2, r2
  402324:	e8fd 4502 	ldrd	r4, r5, [sp], #8
  402328:	eb00 00d2 	add.w	r0, r0, r2, lsr #3
  40232c:	4770      	bx	lr
  40232e:	e9d1 2300 	ldrd	r2, r3, [r1]
  402332:	f004 0503 	and.w	r5, r4, #3
  402336:	f1c4 0000 	rsb	r0, r4, #0
  40233a:	ea4f 05c5 	mov.w	r5, r5, lsl #3
  40233e:	f014 0f04 	tst.w	r4, #4
  402342:	f891 f040 	pld	[r1, #64]	; 0x40
  402346:	fa0c f505 	lsl.w	r5, ip, r5
  40234a:	ea62 0205 	orn	r2, r2, r5
  40234e:	bf1c      	itt	ne
  402350:	ea63 0305 	ornne	r3, r3, r5
  402354:	4662      	movne	r2, ip
  402356:	f04f 0400 	mov.w	r4, #0
  40235a:	e7a9      	b.n	4022b0 <strlen+0x30>

0040235c <_svfprintf_r>:
  40235c:	e92d 4ff0 	stmdb	sp!, {r4, r5, r6, r7, r8, r9, sl, fp, lr}
  402360:	b0c3      	sub	sp, #268	; 0x10c
  402362:	460c      	mov	r4, r1
  402364:	910b      	str	r1, [sp, #44]	; 0x2c
  402366:	4692      	mov	sl, r2
  402368:	930f      	str	r3, [sp, #60]	; 0x3c
  40236a:	900c      	str	r0, [sp, #48]	; 0x30
  40236c:	f003 fdd6 	bl	405f1c <_localeconv_r>
  402370:	6803      	ldr	r3, [r0, #0]
  402372:	931a      	str	r3, [sp, #104]	; 0x68
  402374:	4618      	mov	r0, r3
  402376:	f7ff ff83 	bl	402280 <strlen>
  40237a:	89a3      	ldrh	r3, [r4, #12]
  40237c:	9019      	str	r0, [sp, #100]	; 0x64
  40237e:	0619      	lsls	r1, r3, #24
  402380:	d503      	bpl.n	40238a <_svfprintf_r+0x2e>
  402382:	6923      	ldr	r3, [r4, #16]
  402384:	2b00      	cmp	r3, #0
  402386:	f001 8003 	beq.w	403390 <_svfprintf_r+0x1034>
  40238a:	2300      	movs	r3, #0
  40238c:	f10d 09c8 	add.w	r9, sp, #200	; 0xc8
  402390:	9313      	str	r3, [sp, #76]	; 0x4c
  402392:	9315      	str	r3, [sp, #84]	; 0x54
  402394:	9314      	str	r3, [sp, #80]	; 0x50
  402396:	9327      	str	r3, [sp, #156]	; 0x9c
  402398:	9326      	str	r3, [sp, #152]	; 0x98
  40239a:	9318      	str	r3, [sp, #96]	; 0x60
  40239c:	931b      	str	r3, [sp, #108]	; 0x6c
  40239e:	9309      	str	r3, [sp, #36]	; 0x24
  4023a0:	f8cd 9094 	str.w	r9, [sp, #148]	; 0x94
  4023a4:	46c8      	mov	r8, r9
  4023a6:	9316      	str	r3, [sp, #88]	; 0x58
  4023a8:	9317      	str	r3, [sp, #92]	; 0x5c
  4023aa:	f89a 3000 	ldrb.w	r3, [sl]
  4023ae:	4654      	mov	r4, sl
  4023b0:	b1e3      	cbz	r3, 4023ec <_svfprintf_r+0x90>
  4023b2:	2b25      	cmp	r3, #37	; 0x25
  4023b4:	d102      	bne.n	4023bc <_svfprintf_r+0x60>
  4023b6:	e019      	b.n	4023ec <_svfprintf_r+0x90>
  4023b8:	2b25      	cmp	r3, #37	; 0x25
  4023ba:	d003      	beq.n	4023c4 <_svfprintf_r+0x68>
  4023bc:	f814 3f01 	ldrb.w	r3, [r4, #1]!
  4023c0:	2b00      	cmp	r3, #0
  4023c2:	d1f9      	bne.n	4023b8 <_svfprintf_r+0x5c>
  4023c4:	eba4 050a 	sub.w	r5, r4, sl
  4023c8:	b185      	cbz	r5, 4023ec <_svfprintf_r+0x90>
  4023ca:	9b26      	ldr	r3, [sp, #152]	; 0x98
  4023cc:	9a27      	ldr	r2, [sp, #156]	; 0x9c
  4023ce:	f8c8 a000 	str.w	sl, [r8]
  4023d2:	3301      	adds	r3, #1
  4023d4:	442a      	add	r2, r5
  4023d6:	2b07      	cmp	r3, #7
  4023d8:	f8c8 5004 	str.w	r5, [r8, #4]
  4023dc:	9227      	str	r2, [sp, #156]	; 0x9c
  4023de:	9326      	str	r3, [sp, #152]	; 0x98
  4023e0:	dc7f      	bgt.n	4024e2 <_svfprintf_r+0x186>
  4023e2:	f108 0808 	add.w	r8, r8, #8
  4023e6:	9b09      	ldr	r3, [sp, #36]	; 0x24
  4023e8:	442b      	add	r3, r5
  4023ea:	9309      	str	r3, [sp, #36]	; 0x24
  4023ec:	7823      	ldrb	r3, [r4, #0]
  4023ee:	2b00      	cmp	r3, #0
  4023f0:	d07f      	beq.n	4024f2 <_svfprintf_r+0x196>
  4023f2:	2300      	movs	r3, #0
  4023f4:	461a      	mov	r2, r3
  4023f6:	f88d 3077 	strb.w	r3, [sp, #119]	; 0x77
  4023fa:	4619      	mov	r1, r3
  4023fc:	930d      	str	r3, [sp, #52]	; 0x34
  4023fe:	469b      	mov	fp, r3
  402400:	f04f 30ff 	mov.w	r0, #4294967295
  402404:	7863      	ldrb	r3, [r4, #1]
  402406:	900a      	str	r0, [sp, #40]	; 0x28
  402408:	f104 0a01 	add.w	sl, r4, #1
  40240c:	f10a 0a01 	add.w	sl, sl, #1
  402410:	f1a3 0020 	sub.w	r0, r3, #32
  402414:	2858      	cmp	r0, #88	; 0x58
  402416:	f200 83c1 	bhi.w	402b9c <_svfprintf_r+0x840>
  40241a:	e8df f010 	tbh	[pc, r0, lsl #1]
  40241e:	0238      	.short	0x0238
  402420:	03bf03bf 	.word	0x03bf03bf
  402424:	03bf0240 	.word	0x03bf0240
  402428:	03bf03bf 	.word	0x03bf03bf
  40242c:	03bf03bf 	.word	0x03bf03bf
  402430:	024503bf 	.word	0x024503bf
  402434:	03bf0203 	.word	0x03bf0203
  402438:	026b005d 	.word	0x026b005d
  40243c:	028603bf 	.word	0x028603bf
  402440:	039d039d 	.word	0x039d039d
  402444:	039d039d 	.word	0x039d039d
  402448:	039d039d 	.word	0x039d039d
  40244c:	039d039d 	.word	0x039d039d
  402450:	03bf039d 	.word	0x03bf039d
  402454:	03bf03bf 	.word	0x03bf03bf
  402458:	03bf03bf 	.word	0x03bf03bf
  40245c:	03bf03bf 	.word	0x03bf03bf
  402460:	03bf03bf 	.word	0x03bf03bf
  402464:	033703bf 	.word	0x033703bf
  402468:	03bf0357 	.word	0x03bf0357
  40246c:	03bf0357 	.word	0x03bf0357
  402470:	03bf03bf 	.word	0x03bf03bf
  402474:	039803bf 	.word	0x039803bf
  402478:	03bf03bf 	.word	0x03bf03bf
  40247c:	03bf03ad 	.word	0x03bf03ad
  402480:	03bf03bf 	.word	0x03bf03bf
  402484:	03bf03bf 	.word	0x03bf03bf
  402488:	03bf0259 	.word	0x03bf0259
  40248c:	031e03bf 	.word	0x031e03bf
  402490:	03bf03bf 	.word	0x03bf03bf
  402494:	03bf03bf 	.word	0x03bf03bf
  402498:	03bf03bf 	.word	0x03bf03bf
  40249c:	03bf03bf 	.word	0x03bf03bf
  4024a0:	03bf03bf 	.word	0x03bf03bf
  4024a4:	02db02c6 	.word	0x02db02c6
  4024a8:	03570357 	.word	0x03570357
  4024ac:	028b0357 	.word	0x028b0357
  4024b0:	03bf02db 	.word	0x03bf02db
  4024b4:	029003bf 	.word	0x029003bf
  4024b8:	029d03bf 	.word	0x029d03bf
  4024bc:	02b401cc 	.word	0x02b401cc
  4024c0:	03bf0208 	.word	0x03bf0208
  4024c4:	03bf01e1 	.word	0x03bf01e1
  4024c8:	03bf007e 	.word	0x03bf007e
  4024cc:	020d03bf 	.word	0x020d03bf
  4024d0:	980d      	ldr	r0, [sp, #52]	; 0x34
  4024d2:	930f      	str	r3, [sp, #60]	; 0x3c
  4024d4:	4240      	negs	r0, r0
  4024d6:	900d      	str	r0, [sp, #52]	; 0x34
  4024d8:	f04b 0b04 	orr.w	fp, fp, #4
  4024dc:	f89a 3000 	ldrb.w	r3, [sl]
  4024e0:	e794      	b.n	40240c <_svfprintf_r+0xb0>
  4024e2:	aa25      	add	r2, sp, #148	; 0x94
  4024e4:	990b      	ldr	r1, [sp, #44]	; 0x2c
  4024e6:	980c      	ldr	r0, [sp, #48]	; 0x30
  4024e8:	f004 feca 	bl	407280 <__ssprint_r>
  4024ec:	b940      	cbnz	r0, 402500 <_svfprintf_r+0x1a4>
  4024ee:	46c8      	mov	r8, r9
  4024f0:	e779      	b.n	4023e6 <_svfprintf_r+0x8a>
  4024f2:	9b27      	ldr	r3, [sp, #156]	; 0x9c
  4024f4:	b123      	cbz	r3, 402500 <_svfprintf_r+0x1a4>
  4024f6:	980c      	ldr	r0, [sp, #48]	; 0x30
  4024f8:	990b      	ldr	r1, [sp, #44]	; 0x2c
  4024fa:	aa25      	add	r2, sp, #148	; 0x94
  4024fc:	f004 fec0 	bl	407280 <__ssprint_r>
  402500:	9b0b      	ldr	r3, [sp, #44]	; 0x2c
  402502:	899b      	ldrh	r3, [r3, #12]
  402504:	f013 0f40 	tst.w	r3, #64	; 0x40
  402508:	9b09      	ldr	r3, [sp, #36]	; 0x24
  40250a:	bf18      	it	ne
  40250c:	f04f 33ff 	movne.w	r3, #4294967295
  402510:	9309      	str	r3, [sp, #36]	; 0x24
  402512:	9809      	ldr	r0, [sp, #36]	; 0x24
  402514:	b043      	add	sp, #268	; 0x10c
  402516:	e8bd 8ff0 	ldmia.w	sp!, {r4, r5, r6, r7, r8, r9, sl, fp, pc}
  40251a:	f01b 0f20 	tst.w	fp, #32
  40251e:	9311      	str	r3, [sp, #68]	; 0x44
  402520:	f040 81dd 	bne.w	4028de <_svfprintf_r+0x582>
  402524:	9a0f      	ldr	r2, [sp, #60]	; 0x3c
  402526:	f01b 0f10 	tst.w	fp, #16
  40252a:	4613      	mov	r3, r2
  40252c:	f040 856e 	bne.w	40300c <_svfprintf_r+0xcb0>
  402530:	f01b 0f40 	tst.w	fp, #64	; 0x40
  402534:	f000 856a 	beq.w	40300c <_svfprintf_r+0xcb0>
  402538:	8814      	ldrh	r4, [r2, #0]
  40253a:	3204      	adds	r2, #4
  40253c:	2500      	movs	r5, #0
  40253e:	2301      	movs	r3, #1
  402540:	920f      	str	r2, [sp, #60]	; 0x3c
  402542:	2700      	movs	r7, #0
  402544:	f88d 7077 	strb.w	r7, [sp, #119]	; 0x77
  402548:	990a      	ldr	r1, [sp, #40]	; 0x28
  40254a:	1c4a      	adds	r2, r1, #1
  40254c:	f000 8265 	beq.w	402a1a <_svfprintf_r+0x6be>
  402550:	f02b 0280 	bic.w	r2, fp, #128	; 0x80
  402554:	9207      	str	r2, [sp, #28]
  402556:	ea54 0205 	orrs.w	r2, r4, r5
  40255a:	f040 8264 	bne.w	402a26 <_svfprintf_r+0x6ca>
  40255e:	2900      	cmp	r1, #0
  402560:	f040 843c 	bne.w	402ddc <_svfprintf_r+0xa80>
  402564:	2b00      	cmp	r3, #0
  402566:	f040 84d7 	bne.w	402f18 <_svfprintf_r+0xbbc>
  40256a:	f01b 0301 	ands.w	r3, fp, #1
  40256e:	930e      	str	r3, [sp, #56]	; 0x38
  402570:	f000 8604 	beq.w	40317c <_svfprintf_r+0xe20>
  402574:	ae42      	add	r6, sp, #264	; 0x108
  402576:	2330      	movs	r3, #48	; 0x30
  402578:	f806 3d41 	strb.w	r3, [r6, #-65]!
  40257c:	9b0a      	ldr	r3, [sp, #40]	; 0x28
  40257e:	9a0e      	ldr	r2, [sp, #56]	; 0x38
  402580:	4293      	cmp	r3, r2
  402582:	bfb8      	it	lt
  402584:	4613      	movlt	r3, r2
  402586:	9308      	str	r3, [sp, #32]
  402588:	2300      	movs	r3, #0
  40258a:	9312      	str	r3, [sp, #72]	; 0x48
  40258c:	b117      	cbz	r7, 402594 <_svfprintf_r+0x238>
  40258e:	9b08      	ldr	r3, [sp, #32]
  402590:	3301      	adds	r3, #1
  402592:	9308      	str	r3, [sp, #32]
  402594:	9b07      	ldr	r3, [sp, #28]
  402596:	f013 0302 	ands.w	r3, r3, #2
  40259a:	9310      	str	r3, [sp, #64]	; 0x40
  40259c:	d002      	beq.n	4025a4 <_svfprintf_r+0x248>
  40259e:	9b08      	ldr	r3, [sp, #32]
  4025a0:	3302      	adds	r3, #2
  4025a2:	9308      	str	r3, [sp, #32]
  4025a4:	9b07      	ldr	r3, [sp, #28]
  4025a6:	f013 0584 	ands.w	r5, r3, #132	; 0x84
  4025aa:	f040 830e 	bne.w	402bca <_svfprintf_r+0x86e>
  4025ae:	9b0d      	ldr	r3, [sp, #52]	; 0x34
  4025b0:	9a08      	ldr	r2, [sp, #32]
  4025b2:	eba3 0b02 	sub.w	fp, r3, r2
  4025b6:	f1bb 0f00 	cmp.w	fp, #0
  4025ba:	f340 8306 	ble.w	402bca <_svfprintf_r+0x86e>
  4025be:	f1bb 0f10 	cmp.w	fp, #16
  4025c2:	9c27      	ldr	r4, [sp, #156]	; 0x9c
  4025c4:	9a26      	ldr	r2, [sp, #152]	; 0x98
  4025c6:	dd29      	ble.n	40261c <_svfprintf_r+0x2c0>
  4025c8:	4643      	mov	r3, r8
  4025ca:	4621      	mov	r1, r4
  4025cc:	46a8      	mov	r8, r5
  4025ce:	2710      	movs	r7, #16
  4025d0:	9c0c      	ldr	r4, [sp, #48]	; 0x30
  4025d2:	9d0b      	ldr	r5, [sp, #44]	; 0x2c
  4025d4:	e006      	b.n	4025e4 <_svfprintf_r+0x288>
  4025d6:	f1ab 0b10 	sub.w	fp, fp, #16
  4025da:	f1bb 0f10 	cmp.w	fp, #16
  4025de:	f103 0308 	add.w	r3, r3, #8
  4025e2:	dd18      	ble.n	402616 <_svfprintf_r+0x2ba>
  4025e4:	3201      	adds	r2, #1
  4025e6:	48b7      	ldr	r0, [pc, #732]	; (4028c4 <_svfprintf_r+0x568>)
  4025e8:	9226      	str	r2, [sp, #152]	; 0x98
  4025ea:	3110      	adds	r1, #16
  4025ec:	2a07      	cmp	r2, #7
  4025ee:	9127      	str	r1, [sp, #156]	; 0x9c
  4025f0:	e883 0081 	stmia.w	r3, {r0, r7}
  4025f4:	ddef      	ble.n	4025d6 <_svfprintf_r+0x27a>
  4025f6:	aa25      	add	r2, sp, #148	; 0x94
  4025f8:	4629      	mov	r1, r5
  4025fa:	4620      	mov	r0, r4
  4025fc:	f004 fe40 	bl	407280 <__ssprint_r>
  402600:	2800      	cmp	r0, #0
  402602:	f47f af7d 	bne.w	402500 <_svfprintf_r+0x1a4>
  402606:	f1ab 0b10 	sub.w	fp, fp, #16
  40260a:	f1bb 0f10 	cmp.w	fp, #16
  40260e:	9927      	ldr	r1, [sp, #156]	; 0x9c
  402610:	9a26      	ldr	r2, [sp, #152]	; 0x98
  402612:	464b      	mov	r3, r9
  402614:	dce6      	bgt.n	4025e4 <_svfprintf_r+0x288>
  402616:	4645      	mov	r5, r8
  402618:	460c      	mov	r4, r1
  40261a:	4698      	mov	r8, r3
  40261c:	3201      	adds	r2, #1
  40261e:	4ba9      	ldr	r3, [pc, #676]	; (4028c4 <_svfprintf_r+0x568>)
  402620:	9226      	str	r2, [sp, #152]	; 0x98
  402622:	445c      	add	r4, fp
  402624:	2a07      	cmp	r2, #7
  402626:	9427      	str	r4, [sp, #156]	; 0x9c
  402628:	e888 0808 	stmia.w	r8, {r3, fp}
  40262c:	f300 8498 	bgt.w	402f60 <_svfprintf_r+0xc04>
  402630:	f89d 7077 	ldrb.w	r7, [sp, #119]	; 0x77
  402634:	f108 0808 	add.w	r8, r8, #8
  402638:	b177      	cbz	r7, 402658 <_svfprintf_r+0x2fc>
  40263a:	9b26      	ldr	r3, [sp, #152]	; 0x98
  40263c:	3301      	adds	r3, #1
  40263e:	3401      	adds	r4, #1
  402640:	f10d 0177 	add.w	r1, sp, #119	; 0x77
  402644:	2201      	movs	r2, #1
  402646:	2b07      	cmp	r3, #7
  402648:	9427      	str	r4, [sp, #156]	; 0x9c
  40264a:	9326      	str	r3, [sp, #152]	; 0x98
  40264c:	e888 0006 	stmia.w	r8, {r1, r2}
  402650:	f300 83db 	bgt.w	402e0a <_svfprintf_r+0xaae>
  402654:	f108 0808 	add.w	r8, r8, #8
  402658:	9b10      	ldr	r3, [sp, #64]	; 0x40
  40265a:	b16b      	cbz	r3, 402678 <_svfprintf_r+0x31c>
  40265c:	9b26      	ldr	r3, [sp, #152]	; 0x98
  40265e:	3301      	adds	r3, #1
  402660:	3402      	adds	r4, #2
  402662:	a91e      	add	r1, sp, #120	; 0x78
  402664:	2202      	movs	r2, #2
  402666:	2b07      	cmp	r3, #7
  402668:	9427      	str	r4, [sp, #156]	; 0x9c
  40266a:	9326      	str	r3, [sp, #152]	; 0x98
  40266c:	e888 0006 	stmia.w	r8, {r1, r2}
  402670:	f300 83d6 	bgt.w	402e20 <_svfprintf_r+0xac4>
  402674:	f108 0808 	add.w	r8, r8, #8
  402678:	2d80      	cmp	r5, #128	; 0x80
  40267a:	f000 8315 	beq.w	402ca8 <_svfprintf_r+0x94c>
  40267e:	9b0a      	ldr	r3, [sp, #40]	; 0x28
  402680:	9a0e      	ldr	r2, [sp, #56]	; 0x38
  402682:	1a9f      	subs	r7, r3, r2
  402684:	2f00      	cmp	r7, #0
  402686:	dd36      	ble.n	4026f6 <_svfprintf_r+0x39a>
  402688:	2f10      	cmp	r7, #16
  40268a:	9b26      	ldr	r3, [sp, #152]	; 0x98
  40268c:	4d8e      	ldr	r5, [pc, #568]	; (4028c8 <_svfprintf_r+0x56c>)
  40268e:	dd27      	ble.n	4026e0 <_svfprintf_r+0x384>
  402690:	4642      	mov	r2, r8
  402692:	4621      	mov	r1, r4
  402694:	46b0      	mov	r8, r6
  402696:	f04f 0b10 	mov.w	fp, #16
  40269a:	462e      	mov	r6, r5
  40269c:	9c0c      	ldr	r4, [sp, #48]	; 0x30
  40269e:	9d0b      	ldr	r5, [sp, #44]	; 0x2c
  4026a0:	e004      	b.n	4026ac <_svfprintf_r+0x350>
  4026a2:	3f10      	subs	r7, #16
  4026a4:	2f10      	cmp	r7, #16
  4026a6:	f102 0208 	add.w	r2, r2, #8
  4026aa:	dd15      	ble.n	4026d8 <_svfprintf_r+0x37c>
  4026ac:	3301      	adds	r3, #1
  4026ae:	3110      	adds	r1, #16
  4026b0:	2b07      	cmp	r3, #7
  4026b2:	9127      	str	r1, [sp, #156]	; 0x9c
  4026b4:	9326      	str	r3, [sp, #152]	; 0x98
  4026b6:	e882 0840 	stmia.w	r2, {r6, fp}
  4026ba:	ddf2      	ble.n	4026a2 <_svfprintf_r+0x346>
  4026bc:	aa25      	add	r2, sp, #148	; 0x94
  4026be:	4629      	mov	r1, r5
  4026c0:	4620      	mov	r0, r4
  4026c2:	f004 fddd 	bl	407280 <__ssprint_r>
  4026c6:	2800      	cmp	r0, #0
  4026c8:	f47f af1a 	bne.w	402500 <_svfprintf_r+0x1a4>
  4026cc:	3f10      	subs	r7, #16
  4026ce:	2f10      	cmp	r7, #16
  4026d0:	9927      	ldr	r1, [sp, #156]	; 0x9c
  4026d2:	9b26      	ldr	r3, [sp, #152]	; 0x98
  4026d4:	464a      	mov	r2, r9
  4026d6:	dce9      	bgt.n	4026ac <_svfprintf_r+0x350>
  4026d8:	4635      	mov	r5, r6
  4026da:	460c      	mov	r4, r1
  4026dc:	4646      	mov	r6, r8
  4026de:	4690      	mov	r8, r2
  4026e0:	3301      	adds	r3, #1
  4026e2:	443c      	add	r4, r7
  4026e4:	2b07      	cmp	r3, #7
  4026e6:	9427      	str	r4, [sp, #156]	; 0x9c
  4026e8:	9326      	str	r3, [sp, #152]	; 0x98
  4026ea:	e888 00a0 	stmia.w	r8, {r5, r7}
  4026ee:	f300 8381 	bgt.w	402df4 <_svfprintf_r+0xa98>
  4026f2:	f108 0808 	add.w	r8, r8, #8
  4026f6:	9b07      	ldr	r3, [sp, #28]
  4026f8:	05df      	lsls	r7, r3, #23
  4026fa:	f100 8268 	bmi.w	402bce <_svfprintf_r+0x872>
  4026fe:	9b26      	ldr	r3, [sp, #152]	; 0x98
  402700:	990e      	ldr	r1, [sp, #56]	; 0x38
  402702:	f8c8 6000 	str.w	r6, [r8]
  402706:	3301      	adds	r3, #1
  402708:	440c      	add	r4, r1
  40270a:	2b07      	cmp	r3, #7
  40270c:	9427      	str	r4, [sp, #156]	; 0x9c
  40270e:	f8c8 1004 	str.w	r1, [r8, #4]
  402712:	9326      	str	r3, [sp, #152]	; 0x98
  402714:	f300 834d 	bgt.w	402db2 <_svfprintf_r+0xa56>
  402718:	f108 0808 	add.w	r8, r8, #8
  40271c:	9b07      	ldr	r3, [sp, #28]
  40271e:	075b      	lsls	r3, r3, #29
  402720:	d53a      	bpl.n	402798 <_svfprintf_r+0x43c>
  402722:	9b0d      	ldr	r3, [sp, #52]	; 0x34
  402724:	9a08      	ldr	r2, [sp, #32]
  402726:	1a9d      	subs	r5, r3, r2
  402728:	2d00      	cmp	r5, #0
  40272a:	dd35      	ble.n	402798 <_svfprintf_r+0x43c>
  40272c:	2d10      	cmp	r5, #16
  40272e:	9b26      	ldr	r3, [sp, #152]	; 0x98
  402730:	dd20      	ble.n	402774 <_svfprintf_r+0x418>
  402732:	2610      	movs	r6, #16
  402734:	9f0c      	ldr	r7, [sp, #48]	; 0x30
  402736:	f8dd b02c 	ldr.w	fp, [sp, #44]	; 0x2c
  40273a:	e004      	b.n	402746 <_svfprintf_r+0x3ea>
  40273c:	3d10      	subs	r5, #16
  40273e:	2d10      	cmp	r5, #16
  402740:	f108 0808 	add.w	r8, r8, #8
  402744:	dd16      	ble.n	402774 <_svfprintf_r+0x418>
  402746:	3301      	adds	r3, #1
  402748:	4a5e      	ldr	r2, [pc, #376]	; (4028c4 <_svfprintf_r+0x568>)
  40274a:	9326      	str	r3, [sp, #152]	; 0x98
  40274c:	3410      	adds	r4, #16
  40274e:	2b07      	cmp	r3, #7
  402750:	9427      	str	r4, [sp, #156]	; 0x9c
  402752:	e888 0044 	stmia.w	r8, {r2, r6}
  402756:	ddf1      	ble.n	40273c <_svfprintf_r+0x3e0>
  402758:	aa25      	add	r2, sp, #148	; 0x94
  40275a:	4659      	mov	r1, fp
  40275c:	4638      	mov	r0, r7
  40275e:	f004 fd8f 	bl	407280 <__ssprint_r>
  402762:	2800      	cmp	r0, #0
  402764:	f47f aecc 	bne.w	402500 <_svfprintf_r+0x1a4>
  402768:	3d10      	subs	r5, #16
  40276a:	2d10      	cmp	r5, #16
  40276c:	9c27      	ldr	r4, [sp, #156]	; 0x9c
  40276e:	9b26      	ldr	r3, [sp, #152]	; 0x98
  402770:	46c8      	mov	r8, r9
  402772:	dce8      	bgt.n	402746 <_svfprintf_r+0x3ea>
  402774:	3301      	adds	r3, #1
  402776:	4a53      	ldr	r2, [pc, #332]	; (4028c4 <_svfprintf_r+0x568>)
  402778:	9326      	str	r3, [sp, #152]	; 0x98
  40277a:	442c      	add	r4, r5
  40277c:	2b07      	cmp	r3, #7
  40277e:	9427      	str	r4, [sp, #156]	; 0x9c
  402780:	e888 0024 	stmia.w	r8, {r2, r5}
  402784:	dd08      	ble.n	402798 <_svfprintf_r+0x43c>
  402786:	aa25      	add	r2, sp, #148	; 0x94
  402788:	990b      	ldr	r1, [sp, #44]	; 0x2c
  40278a:	980c      	ldr	r0, [sp, #48]	; 0x30
  40278c:	f004 fd78 	bl	407280 <__ssprint_r>
  402790:	2800      	cmp	r0, #0
  402792:	f47f aeb5 	bne.w	402500 <_svfprintf_r+0x1a4>
  402796:	9c27      	ldr	r4, [sp, #156]	; 0x9c
  402798:	9b09      	ldr	r3, [sp, #36]	; 0x24
  40279a:	9a0d      	ldr	r2, [sp, #52]	; 0x34
  40279c:	9908      	ldr	r1, [sp, #32]
  40279e:	428a      	cmp	r2, r1
  4027a0:	bfac      	ite	ge
  4027a2:	189b      	addge	r3, r3, r2
  4027a4:	185b      	addlt	r3, r3, r1
  4027a6:	9309      	str	r3, [sp, #36]	; 0x24
  4027a8:	2c00      	cmp	r4, #0
  4027aa:	f040 830d 	bne.w	402dc8 <_svfprintf_r+0xa6c>
  4027ae:	2300      	movs	r3, #0
  4027b0:	9326      	str	r3, [sp, #152]	; 0x98
  4027b2:	46c8      	mov	r8, r9
  4027b4:	e5f9      	b.n	4023aa <_svfprintf_r+0x4e>
  4027b6:	9311      	str	r3, [sp, #68]	; 0x44
  4027b8:	f01b 0320 	ands.w	r3, fp, #32
  4027bc:	f040 81e3 	bne.w	402b86 <_svfprintf_r+0x82a>
  4027c0:	f01b 0210 	ands.w	r2, fp, #16
  4027c4:	f040 842e 	bne.w	403024 <_svfprintf_r+0xcc8>
  4027c8:	f01b 0340 	ands.w	r3, fp, #64	; 0x40
  4027cc:	f000 842a 	beq.w	403024 <_svfprintf_r+0xcc8>
  4027d0:	990f      	ldr	r1, [sp, #60]	; 0x3c
  4027d2:	4613      	mov	r3, r2
  4027d4:	460a      	mov	r2, r1
  4027d6:	3204      	adds	r2, #4
  4027d8:	880c      	ldrh	r4, [r1, #0]
  4027da:	920f      	str	r2, [sp, #60]	; 0x3c
  4027dc:	2500      	movs	r5, #0
  4027de:	e6b0      	b.n	402542 <_svfprintf_r+0x1e6>
  4027e0:	9a0f      	ldr	r2, [sp, #60]	; 0x3c
  4027e2:	9311      	str	r3, [sp, #68]	; 0x44
  4027e4:	6816      	ldr	r6, [r2, #0]
  4027e6:	2400      	movs	r4, #0
  4027e8:	f88d 4077 	strb.w	r4, [sp, #119]	; 0x77
  4027ec:	1d15      	adds	r5, r2, #4
  4027ee:	2e00      	cmp	r6, #0
  4027f0:	f000 86a7 	beq.w	403542 <_svfprintf_r+0x11e6>
  4027f4:	9a0a      	ldr	r2, [sp, #40]	; 0x28
  4027f6:	1c53      	adds	r3, r2, #1
  4027f8:	f000 8609 	beq.w	40340e <_svfprintf_r+0x10b2>
  4027fc:	4621      	mov	r1, r4
  4027fe:	4630      	mov	r0, r6
  402800:	f003 feee 	bl	4065e0 <memchr>
  402804:	2800      	cmp	r0, #0
  402806:	f000 86e1 	beq.w	4035cc <_svfprintf_r+0x1270>
  40280a:	1b83      	subs	r3, r0, r6
  40280c:	930e      	str	r3, [sp, #56]	; 0x38
  40280e:	940a      	str	r4, [sp, #40]	; 0x28
  402810:	950f      	str	r5, [sp, #60]	; 0x3c
  402812:	f8cd b01c 	str.w	fp, [sp, #28]
  402816:	ea23 73e3 	bic.w	r3, r3, r3, asr #31
  40281a:	9308      	str	r3, [sp, #32]
  40281c:	9412      	str	r4, [sp, #72]	; 0x48
  40281e:	f89d 7077 	ldrb.w	r7, [sp, #119]	; 0x77
  402822:	e6b3      	b.n	40258c <_svfprintf_r+0x230>
  402824:	f89a 3000 	ldrb.w	r3, [sl]
  402828:	2201      	movs	r2, #1
  40282a:	212b      	movs	r1, #43	; 0x2b
  40282c:	e5ee      	b.n	40240c <_svfprintf_r+0xb0>
  40282e:	f04b 0b20 	orr.w	fp, fp, #32
  402832:	f89a 3000 	ldrb.w	r3, [sl]
  402836:	e5e9      	b.n	40240c <_svfprintf_r+0xb0>
  402838:	9311      	str	r3, [sp, #68]	; 0x44
  40283a:	2a00      	cmp	r2, #0
  40283c:	f040 8795 	bne.w	40376a <_svfprintf_r+0x140e>
  402840:	4b22      	ldr	r3, [pc, #136]	; (4028cc <_svfprintf_r+0x570>)
  402842:	9318      	str	r3, [sp, #96]	; 0x60
  402844:	f01b 0f20 	tst.w	fp, #32
  402848:	f040 8111 	bne.w	402a6e <_svfprintf_r+0x712>
  40284c:	9a0f      	ldr	r2, [sp, #60]	; 0x3c
  40284e:	f01b 0f10 	tst.w	fp, #16
  402852:	4613      	mov	r3, r2
  402854:	f040 83e1 	bne.w	40301a <_svfprintf_r+0xcbe>
  402858:	f01b 0f40 	tst.w	fp, #64	; 0x40
  40285c:	f000 83dd 	beq.w	40301a <_svfprintf_r+0xcbe>
  402860:	3304      	adds	r3, #4
  402862:	8814      	ldrh	r4, [r2, #0]
  402864:	930f      	str	r3, [sp, #60]	; 0x3c
  402866:	2500      	movs	r5, #0
  402868:	f01b 0f01 	tst.w	fp, #1
  40286c:	f000 810c 	beq.w	402a88 <_svfprintf_r+0x72c>
  402870:	ea54 0305 	orrs.w	r3, r4, r5
  402874:	f000 8108 	beq.w	402a88 <_svfprintf_r+0x72c>
  402878:	2330      	movs	r3, #48	; 0x30
  40287a:	f89d 2044 	ldrb.w	r2, [sp, #68]	; 0x44
  40287e:	f88d 3078 	strb.w	r3, [sp, #120]	; 0x78
  402882:	f88d 2079 	strb.w	r2, [sp, #121]	; 0x79
  402886:	f04b 0b02 	orr.w	fp, fp, #2
  40288a:	2302      	movs	r3, #2
  40288c:	e659      	b.n	402542 <_svfprintf_r+0x1e6>
  40288e:	f89a 3000 	ldrb.w	r3, [sl]
  402892:	2900      	cmp	r1, #0
  402894:	f47f adba 	bne.w	40240c <_svfprintf_r+0xb0>
  402898:	2201      	movs	r2, #1
  40289a:	2120      	movs	r1, #32
  40289c:	e5b6      	b.n	40240c <_svfprintf_r+0xb0>
  40289e:	f04b 0b01 	orr.w	fp, fp, #1
  4028a2:	f89a 3000 	ldrb.w	r3, [sl]
  4028a6:	e5b1      	b.n	40240c <_svfprintf_r+0xb0>
  4028a8:	9c0f      	ldr	r4, [sp, #60]	; 0x3c
  4028aa:	6823      	ldr	r3, [r4, #0]
  4028ac:	930d      	str	r3, [sp, #52]	; 0x34
  4028ae:	4618      	mov	r0, r3
  4028b0:	2800      	cmp	r0, #0
  4028b2:	4623      	mov	r3, r4
  4028b4:	f103 0304 	add.w	r3, r3, #4
  4028b8:	f6ff ae0a 	blt.w	4024d0 <_svfprintf_r+0x174>
  4028bc:	930f      	str	r3, [sp, #60]	; 0x3c
  4028be:	f89a 3000 	ldrb.w	r3, [sl]
  4028c2:	e5a3      	b.n	40240c <_svfprintf_r+0xb0>
  4028c4:	00408cc0 	.word	0x00408cc0
  4028c8:	00408cd0 	.word	0x00408cd0
  4028cc:	00408ca0 	.word	0x00408ca0
  4028d0:	f04b 0b10 	orr.w	fp, fp, #16
  4028d4:	f01b 0f20 	tst.w	fp, #32
  4028d8:	9311      	str	r3, [sp, #68]	; 0x44
  4028da:	f43f ae23 	beq.w	402524 <_svfprintf_r+0x1c8>
  4028de:	9d0f      	ldr	r5, [sp, #60]	; 0x3c
  4028e0:	3507      	adds	r5, #7
  4028e2:	f025 0307 	bic.w	r3, r5, #7
  4028e6:	f103 0208 	add.w	r2, r3, #8
  4028ea:	e9d3 4500 	ldrd	r4, r5, [r3]
  4028ee:	920f      	str	r2, [sp, #60]	; 0x3c
  4028f0:	2301      	movs	r3, #1
  4028f2:	e626      	b.n	402542 <_svfprintf_r+0x1e6>
  4028f4:	f89a 3000 	ldrb.w	r3, [sl]
  4028f8:	2b2a      	cmp	r3, #42	; 0x2a
  4028fa:	f10a 0401 	add.w	r4, sl, #1
  4028fe:	f000 8727 	beq.w	403750 <_svfprintf_r+0x13f4>
  402902:	f1a3 0030 	sub.w	r0, r3, #48	; 0x30
  402906:	2809      	cmp	r0, #9
  402908:	46a2      	mov	sl, r4
  40290a:	f200 86ad 	bhi.w	403668 <_svfprintf_r+0x130c>
  40290e:	2300      	movs	r3, #0
  402910:	461c      	mov	r4, r3
  402912:	f81a 3b01 	ldrb.w	r3, [sl], #1
  402916:	eb04 0484 	add.w	r4, r4, r4, lsl #2
  40291a:	eb00 0444 	add.w	r4, r0, r4, lsl #1
  40291e:	f1a3 0030 	sub.w	r0, r3, #48	; 0x30
  402922:	2809      	cmp	r0, #9
  402924:	d9f5      	bls.n	402912 <_svfprintf_r+0x5b6>
  402926:	940a      	str	r4, [sp, #40]	; 0x28
  402928:	e572      	b.n	402410 <_svfprintf_r+0xb4>
  40292a:	f04b 0b80 	orr.w	fp, fp, #128	; 0x80
  40292e:	f89a 3000 	ldrb.w	r3, [sl]
  402932:	e56b      	b.n	40240c <_svfprintf_r+0xb0>
  402934:	f04b 0b40 	orr.w	fp, fp, #64	; 0x40
  402938:	f89a 3000 	ldrb.w	r3, [sl]
  40293c:	e566      	b.n	40240c <_svfprintf_r+0xb0>
  40293e:	f89a 3000 	ldrb.w	r3, [sl]
  402942:	2b6c      	cmp	r3, #108	; 0x6c
  402944:	bf03      	ittte	eq
  402946:	f89a 3001 	ldrbeq.w	r3, [sl, #1]
  40294a:	f04b 0b20 	orreq.w	fp, fp, #32
  40294e:	f10a 0a01 	addeq.w	sl, sl, #1
  402952:	f04b 0b10 	orrne.w	fp, fp, #16
  402956:	e559      	b.n	40240c <_svfprintf_r+0xb0>
  402958:	2a00      	cmp	r2, #0
  40295a:	f040 8711 	bne.w	403780 <_svfprintf_r+0x1424>
  40295e:	f01b 0f20 	tst.w	fp, #32
  402962:	f040 84f9 	bne.w	403358 <_svfprintf_r+0xffc>
  402966:	f01b 0f10 	tst.w	fp, #16
  40296a:	f040 84ac 	bne.w	4032c6 <_svfprintf_r+0xf6a>
  40296e:	f01b 0f40 	tst.w	fp, #64	; 0x40
  402972:	f000 84a8 	beq.w	4032c6 <_svfprintf_r+0xf6a>
  402976:	9a0f      	ldr	r2, [sp, #60]	; 0x3c
  402978:	6813      	ldr	r3, [r2, #0]
  40297a:	3204      	adds	r2, #4
  40297c:	920f      	str	r2, [sp, #60]	; 0x3c
  40297e:	f8bd 2024 	ldrh.w	r2, [sp, #36]	; 0x24
  402982:	801a      	strh	r2, [r3, #0]
  402984:	e511      	b.n	4023aa <_svfprintf_r+0x4e>
  402986:	990f      	ldr	r1, [sp, #60]	; 0x3c
  402988:	4bb3      	ldr	r3, [pc, #716]	; (402c58 <_svfprintf_r+0x8fc>)
  40298a:	680c      	ldr	r4, [r1, #0]
  40298c:	9318      	str	r3, [sp, #96]	; 0x60
  40298e:	2230      	movs	r2, #48	; 0x30
  402990:	2378      	movs	r3, #120	; 0x78
  402992:	3104      	adds	r1, #4
  402994:	f88d 3079 	strb.w	r3, [sp, #121]	; 0x79
  402998:	9311      	str	r3, [sp, #68]	; 0x44
  40299a:	f04b 0b02 	orr.w	fp, fp, #2
  40299e:	910f      	str	r1, [sp, #60]	; 0x3c
  4029a0:	2500      	movs	r5, #0
  4029a2:	f88d 2078 	strb.w	r2, [sp, #120]	; 0x78
  4029a6:	2302      	movs	r3, #2
  4029a8:	e5cb      	b.n	402542 <_svfprintf_r+0x1e6>
  4029aa:	990f      	ldr	r1, [sp, #60]	; 0x3c
  4029ac:	9311      	str	r3, [sp, #68]	; 0x44
  4029ae:	680a      	ldr	r2, [r1, #0]
  4029b0:	f88d 20a0 	strb.w	r2, [sp, #160]	; 0xa0
  4029b4:	2300      	movs	r3, #0
  4029b6:	460a      	mov	r2, r1
  4029b8:	461f      	mov	r7, r3
  4029ba:	f88d 3077 	strb.w	r3, [sp, #119]	; 0x77
  4029be:	3204      	adds	r2, #4
  4029c0:	2301      	movs	r3, #1
  4029c2:	9308      	str	r3, [sp, #32]
  4029c4:	f8cd b01c 	str.w	fp, [sp, #28]
  4029c8:	970a      	str	r7, [sp, #40]	; 0x28
  4029ca:	9712      	str	r7, [sp, #72]	; 0x48
  4029cc:	920f      	str	r2, [sp, #60]	; 0x3c
  4029ce:	930e      	str	r3, [sp, #56]	; 0x38
  4029d0:	ae28      	add	r6, sp, #160	; 0xa0
  4029d2:	e5df      	b.n	402594 <_svfprintf_r+0x238>
  4029d4:	9311      	str	r3, [sp, #68]	; 0x44
  4029d6:	2a00      	cmp	r2, #0
  4029d8:	f040 86ea 	bne.w	4037b0 <_svfprintf_r+0x1454>
  4029dc:	f01b 0f20 	tst.w	fp, #32
  4029e0:	d15d      	bne.n	402a9e <_svfprintf_r+0x742>
  4029e2:	f01b 0f10 	tst.w	fp, #16
  4029e6:	f040 8308 	bne.w	402ffa <_svfprintf_r+0xc9e>
  4029ea:	f01b 0f40 	tst.w	fp, #64	; 0x40
  4029ee:	f000 8304 	beq.w	402ffa <_svfprintf_r+0xc9e>
  4029f2:	990f      	ldr	r1, [sp, #60]	; 0x3c
  4029f4:	f9b1 4000 	ldrsh.w	r4, [r1]
  4029f8:	3104      	adds	r1, #4
  4029fa:	17e5      	asrs	r5, r4, #31
  4029fc:	4622      	mov	r2, r4
  4029fe:	462b      	mov	r3, r5
  402a00:	910f      	str	r1, [sp, #60]	; 0x3c
  402a02:	2a00      	cmp	r2, #0
  402a04:	f173 0300 	sbcs.w	r3, r3, #0
  402a08:	db58      	blt.n	402abc <_svfprintf_r+0x760>
  402a0a:	990a      	ldr	r1, [sp, #40]	; 0x28
  402a0c:	f89d 7077 	ldrb.w	r7, [sp, #119]	; 0x77
  402a10:	1c4a      	adds	r2, r1, #1
  402a12:	f04f 0301 	mov.w	r3, #1
  402a16:	f47f ad9b 	bne.w	402550 <_svfprintf_r+0x1f4>
  402a1a:	ea54 0205 	orrs.w	r2, r4, r5
  402a1e:	f000 81df 	beq.w	402de0 <_svfprintf_r+0xa84>
  402a22:	f8cd b01c 	str.w	fp, [sp, #28]
  402a26:	2b01      	cmp	r3, #1
  402a28:	f000 827b 	beq.w	402f22 <_svfprintf_r+0xbc6>
  402a2c:	2b02      	cmp	r3, #2
  402a2e:	f040 8206 	bne.w	402e3e <_svfprintf_r+0xae2>
  402a32:	9818      	ldr	r0, [sp, #96]	; 0x60
  402a34:	464e      	mov	r6, r9
  402a36:	0923      	lsrs	r3, r4, #4
  402a38:	f004 010f 	and.w	r1, r4, #15
  402a3c:	ea43 7305 	orr.w	r3, r3, r5, lsl #28
  402a40:	092a      	lsrs	r2, r5, #4
  402a42:	461c      	mov	r4, r3
  402a44:	4615      	mov	r5, r2
  402a46:	5c43      	ldrb	r3, [r0, r1]
  402a48:	f806 3d01 	strb.w	r3, [r6, #-1]!
  402a4c:	ea54 0305 	orrs.w	r3, r4, r5
  402a50:	d1f1      	bne.n	402a36 <_svfprintf_r+0x6da>
  402a52:	eba9 0306 	sub.w	r3, r9, r6
  402a56:	930e      	str	r3, [sp, #56]	; 0x38
  402a58:	e590      	b.n	40257c <_svfprintf_r+0x220>
  402a5a:	9311      	str	r3, [sp, #68]	; 0x44
  402a5c:	2a00      	cmp	r2, #0
  402a5e:	f040 86a3 	bne.w	4037a8 <_svfprintf_r+0x144c>
  402a62:	4b7e      	ldr	r3, [pc, #504]	; (402c5c <_svfprintf_r+0x900>)
  402a64:	9318      	str	r3, [sp, #96]	; 0x60
  402a66:	f01b 0f20 	tst.w	fp, #32
  402a6a:	f43f aeef 	beq.w	40284c <_svfprintf_r+0x4f0>
  402a6e:	9d0f      	ldr	r5, [sp, #60]	; 0x3c
  402a70:	3507      	adds	r5, #7
  402a72:	f025 0307 	bic.w	r3, r5, #7
  402a76:	f103 0208 	add.w	r2, r3, #8
  402a7a:	f01b 0f01 	tst.w	fp, #1
  402a7e:	920f      	str	r2, [sp, #60]	; 0x3c
  402a80:	e9d3 4500 	ldrd	r4, r5, [r3]
  402a84:	f47f aef4 	bne.w	402870 <_svfprintf_r+0x514>
  402a88:	2302      	movs	r3, #2
  402a8a:	e55a      	b.n	402542 <_svfprintf_r+0x1e6>
  402a8c:	9311      	str	r3, [sp, #68]	; 0x44
  402a8e:	2a00      	cmp	r2, #0
  402a90:	f040 8686 	bne.w	4037a0 <_svfprintf_r+0x1444>
  402a94:	f04b 0b10 	orr.w	fp, fp, #16
  402a98:	f01b 0f20 	tst.w	fp, #32
  402a9c:	d0a1      	beq.n	4029e2 <_svfprintf_r+0x686>
  402a9e:	9d0f      	ldr	r5, [sp, #60]	; 0x3c
  402aa0:	3507      	adds	r5, #7
  402aa2:	f025 0507 	bic.w	r5, r5, #7
  402aa6:	e9d5 2300 	ldrd	r2, r3, [r5]
  402aaa:	2a00      	cmp	r2, #0
  402aac:	f105 0108 	add.w	r1, r5, #8
  402ab0:	461d      	mov	r5, r3
  402ab2:	f173 0300 	sbcs.w	r3, r3, #0
  402ab6:	910f      	str	r1, [sp, #60]	; 0x3c
  402ab8:	4614      	mov	r4, r2
  402aba:	daa6      	bge.n	402a0a <_svfprintf_r+0x6ae>
  402abc:	272d      	movs	r7, #45	; 0x2d
  402abe:	4264      	negs	r4, r4
  402ac0:	eb65 0545 	sbc.w	r5, r5, r5, lsl #1
  402ac4:	f88d 7077 	strb.w	r7, [sp, #119]	; 0x77
  402ac8:	2301      	movs	r3, #1
  402aca:	e53d      	b.n	402548 <_svfprintf_r+0x1ec>
  402acc:	9311      	str	r3, [sp, #68]	; 0x44
  402ace:	2a00      	cmp	r2, #0
  402ad0:	f040 8662 	bne.w	403798 <_svfprintf_r+0x143c>
  402ad4:	9d0f      	ldr	r5, [sp, #60]	; 0x3c
  402ad6:	3507      	adds	r5, #7
  402ad8:	f025 0307 	bic.w	r3, r5, #7
  402adc:	f103 0208 	add.w	r2, r3, #8
  402ae0:	920f      	str	r2, [sp, #60]	; 0x3c
  402ae2:	681a      	ldr	r2, [r3, #0]
  402ae4:	9215      	str	r2, [sp, #84]	; 0x54
  402ae6:	685b      	ldr	r3, [r3, #4]
  402ae8:	9314      	str	r3, [sp, #80]	; 0x50
  402aea:	9b14      	ldr	r3, [sp, #80]	; 0x50
  402aec:	9d15      	ldr	r5, [sp, #84]	; 0x54
  402aee:	f023 4400 	bic.w	r4, r3, #2147483648	; 0x80000000
  402af2:	4628      	mov	r0, r5
  402af4:	4621      	mov	r1, r4
  402af6:	f04f 32ff 	mov.w	r2, #4294967295
  402afa:	4b59      	ldr	r3, [pc, #356]	; (402c60 <_svfprintf_r+0x904>)
  402afc:	f005 fa8e 	bl	40801c <__aeabi_dcmpun>
  402b00:	2800      	cmp	r0, #0
  402b02:	f040 834a 	bne.w	40319a <_svfprintf_r+0xe3e>
  402b06:	4628      	mov	r0, r5
  402b08:	4621      	mov	r1, r4
  402b0a:	f04f 32ff 	mov.w	r2, #4294967295
  402b0e:	4b54      	ldr	r3, [pc, #336]	; (402c60 <_svfprintf_r+0x904>)
  402b10:	f005 fa66 	bl	407fe0 <__aeabi_dcmple>
  402b14:	2800      	cmp	r0, #0
  402b16:	f040 8340 	bne.w	40319a <_svfprintf_r+0xe3e>
  402b1a:	a815      	add	r0, sp, #84	; 0x54
  402b1c:	c80d      	ldmia	r0, {r0, r2, r3}
  402b1e:	9914      	ldr	r1, [sp, #80]	; 0x50
  402b20:	f005 fa54 	bl	407fcc <__aeabi_dcmplt>
  402b24:	2800      	cmp	r0, #0
  402b26:	f040 8530 	bne.w	40358a <_svfprintf_r+0x122e>
  402b2a:	f89d 7077 	ldrb.w	r7, [sp, #119]	; 0x77
  402b2e:	4e4d      	ldr	r6, [pc, #308]	; (402c64 <_svfprintf_r+0x908>)
  402b30:	4b4d      	ldr	r3, [pc, #308]	; (402c68 <_svfprintf_r+0x90c>)
  402b32:	f02b 0080 	bic.w	r0, fp, #128	; 0x80
  402b36:	9007      	str	r0, [sp, #28]
  402b38:	9811      	ldr	r0, [sp, #68]	; 0x44
  402b3a:	2203      	movs	r2, #3
  402b3c:	2100      	movs	r1, #0
  402b3e:	9208      	str	r2, [sp, #32]
  402b40:	910a      	str	r1, [sp, #40]	; 0x28
  402b42:	2847      	cmp	r0, #71	; 0x47
  402b44:	bfd8      	it	le
  402b46:	461e      	movle	r6, r3
  402b48:	920e      	str	r2, [sp, #56]	; 0x38
  402b4a:	9112      	str	r1, [sp, #72]	; 0x48
  402b4c:	e51e      	b.n	40258c <_svfprintf_r+0x230>
  402b4e:	f04b 0b08 	orr.w	fp, fp, #8
  402b52:	f89a 3000 	ldrb.w	r3, [sl]
  402b56:	e459      	b.n	40240c <_svfprintf_r+0xb0>
  402b58:	f1a3 0030 	sub.w	r0, r3, #48	; 0x30
  402b5c:	2300      	movs	r3, #0
  402b5e:	461c      	mov	r4, r3
  402b60:	f81a 3b01 	ldrb.w	r3, [sl], #1
  402b64:	eb04 0484 	add.w	r4, r4, r4, lsl #2
  402b68:	eb00 0444 	add.w	r4, r0, r4, lsl #1
  402b6c:	f1a3 0030 	sub.w	r0, r3, #48	; 0x30
  402b70:	2809      	cmp	r0, #9
  402b72:	d9f5      	bls.n	402b60 <_svfprintf_r+0x804>
  402b74:	940d      	str	r4, [sp, #52]	; 0x34
  402b76:	e44b      	b.n	402410 <_svfprintf_r+0xb4>
  402b78:	f04b 0b10 	orr.w	fp, fp, #16
  402b7c:	9311      	str	r3, [sp, #68]	; 0x44
  402b7e:	f01b 0320 	ands.w	r3, fp, #32
  402b82:	f43f ae1d 	beq.w	4027c0 <_svfprintf_r+0x464>
  402b86:	9d0f      	ldr	r5, [sp, #60]	; 0x3c
  402b88:	3507      	adds	r5, #7
  402b8a:	f025 0307 	bic.w	r3, r5, #7
  402b8e:	f103 0208 	add.w	r2, r3, #8
  402b92:	e9d3 4500 	ldrd	r4, r5, [r3]
  402b96:	920f      	str	r2, [sp, #60]	; 0x3c
  402b98:	2300      	movs	r3, #0
  402b9a:	e4d2      	b.n	402542 <_svfprintf_r+0x1e6>
  402b9c:	9311      	str	r3, [sp, #68]	; 0x44
  402b9e:	2a00      	cmp	r2, #0
  402ba0:	f040 85e7 	bne.w	403772 <_svfprintf_r+0x1416>
  402ba4:	9a11      	ldr	r2, [sp, #68]	; 0x44
  402ba6:	2a00      	cmp	r2, #0
  402ba8:	f43f aca3 	beq.w	4024f2 <_svfprintf_r+0x196>
  402bac:	2300      	movs	r3, #0
  402bae:	2101      	movs	r1, #1
  402bb0:	461f      	mov	r7, r3
  402bb2:	9108      	str	r1, [sp, #32]
  402bb4:	f88d 20a0 	strb.w	r2, [sp, #160]	; 0xa0
  402bb8:	f8cd b01c 	str.w	fp, [sp, #28]
  402bbc:	f88d 3077 	strb.w	r3, [sp, #119]	; 0x77
  402bc0:	930a      	str	r3, [sp, #40]	; 0x28
  402bc2:	9312      	str	r3, [sp, #72]	; 0x48
  402bc4:	910e      	str	r1, [sp, #56]	; 0x38
  402bc6:	ae28      	add	r6, sp, #160	; 0xa0
  402bc8:	e4e4      	b.n	402594 <_svfprintf_r+0x238>
  402bca:	9c27      	ldr	r4, [sp, #156]	; 0x9c
  402bcc:	e534      	b.n	402638 <_svfprintf_r+0x2dc>
  402bce:	9b11      	ldr	r3, [sp, #68]	; 0x44
  402bd0:	2b65      	cmp	r3, #101	; 0x65
  402bd2:	f340 80a7 	ble.w	402d24 <_svfprintf_r+0x9c8>
  402bd6:	a815      	add	r0, sp, #84	; 0x54
  402bd8:	c80d      	ldmia	r0, {r0, r2, r3}
  402bda:	9914      	ldr	r1, [sp, #80]	; 0x50
  402bdc:	f005 f9ec 	bl	407fb8 <__aeabi_dcmpeq>
  402be0:	2800      	cmp	r0, #0
  402be2:	f000 8150 	beq.w	402e86 <_svfprintf_r+0xb2a>
  402be6:	9b26      	ldr	r3, [sp, #152]	; 0x98
  402be8:	4a20      	ldr	r2, [pc, #128]	; (402c6c <_svfprintf_r+0x910>)
  402bea:	f8c8 2000 	str.w	r2, [r8]
  402bee:	3301      	adds	r3, #1
  402bf0:	3401      	adds	r4, #1
  402bf2:	2201      	movs	r2, #1
  402bf4:	2b07      	cmp	r3, #7
  402bf6:	9427      	str	r4, [sp, #156]	; 0x9c
  402bf8:	9326      	str	r3, [sp, #152]	; 0x98
  402bfa:	f8c8 2004 	str.w	r2, [r8, #4]
  402bfe:	f300 836a 	bgt.w	4032d6 <_svfprintf_r+0xf7a>
  402c02:	f108 0808 	add.w	r8, r8, #8
  402c06:	9b1f      	ldr	r3, [sp, #124]	; 0x7c
  402c08:	9a13      	ldr	r2, [sp, #76]	; 0x4c
  402c0a:	9c27      	ldr	r4, [sp, #156]	; 0x9c
  402c0c:	4293      	cmp	r3, r2
  402c0e:	db03      	blt.n	402c18 <_svfprintf_r+0x8bc>
  402c10:	9b07      	ldr	r3, [sp, #28]
  402c12:	07dd      	lsls	r5, r3, #31
  402c14:	f57f ad82 	bpl.w	40271c <_svfprintf_r+0x3c0>
  402c18:	9b26      	ldr	r3, [sp, #152]	; 0x98
  402c1a:	9919      	ldr	r1, [sp, #100]	; 0x64
  402c1c:	9a1a      	ldr	r2, [sp, #104]	; 0x68
  402c1e:	f8c8 2000 	str.w	r2, [r8]
  402c22:	3301      	adds	r3, #1
  402c24:	440c      	add	r4, r1
  402c26:	2b07      	cmp	r3, #7
  402c28:	f8c8 1004 	str.w	r1, [r8, #4]
  402c2c:	9427      	str	r4, [sp, #156]	; 0x9c
  402c2e:	9326      	str	r3, [sp, #152]	; 0x98
  402c30:	f300 839e 	bgt.w	403370 <_svfprintf_r+0x1014>
  402c34:	f108 0808 	add.w	r8, r8, #8
  402c38:	9b13      	ldr	r3, [sp, #76]	; 0x4c
  402c3a:	1e5e      	subs	r6, r3, #1
  402c3c:	2e00      	cmp	r6, #0
  402c3e:	f77f ad6d 	ble.w	40271c <_svfprintf_r+0x3c0>
  402c42:	2e10      	cmp	r6, #16
  402c44:	9b26      	ldr	r3, [sp, #152]	; 0x98
  402c46:	4d0a      	ldr	r5, [pc, #40]	; (402c70 <_svfprintf_r+0x914>)
  402c48:	f340 81f5 	ble.w	403036 <_svfprintf_r+0xcda>
  402c4c:	4622      	mov	r2, r4
  402c4e:	2710      	movs	r7, #16
  402c50:	f8dd b030 	ldr.w	fp, [sp, #48]	; 0x30
  402c54:	9c0b      	ldr	r4, [sp, #44]	; 0x2c
  402c56:	e013      	b.n	402c80 <_svfprintf_r+0x924>
  402c58:	00408ca0 	.word	0x00408ca0
  402c5c:	00408c8c 	.word	0x00408c8c
  402c60:	7fefffff 	.word	0x7fefffff
  402c64:	00408c80 	.word	0x00408c80
  402c68:	00408c7c 	.word	0x00408c7c
  402c6c:	00408cbc 	.word	0x00408cbc
  402c70:	00408cd0 	.word	0x00408cd0
  402c74:	f108 0808 	add.w	r8, r8, #8
  402c78:	3e10      	subs	r6, #16
  402c7a:	2e10      	cmp	r6, #16
  402c7c:	f340 81da 	ble.w	403034 <_svfprintf_r+0xcd8>
  402c80:	3301      	adds	r3, #1
  402c82:	3210      	adds	r2, #16
  402c84:	2b07      	cmp	r3, #7
  402c86:	9227      	str	r2, [sp, #156]	; 0x9c
  402c88:	9326      	str	r3, [sp, #152]	; 0x98
  402c8a:	e888 00a0 	stmia.w	r8, {r5, r7}
  402c8e:	ddf1      	ble.n	402c74 <_svfprintf_r+0x918>
  402c90:	aa25      	add	r2, sp, #148	; 0x94
  402c92:	4621      	mov	r1, r4
  402c94:	4658      	mov	r0, fp
  402c96:	f004 faf3 	bl	407280 <__ssprint_r>
  402c9a:	2800      	cmp	r0, #0
  402c9c:	f47f ac30 	bne.w	402500 <_svfprintf_r+0x1a4>
  402ca0:	9a27      	ldr	r2, [sp, #156]	; 0x9c
  402ca2:	9b26      	ldr	r3, [sp, #152]	; 0x98
  402ca4:	46c8      	mov	r8, r9
  402ca6:	e7e7      	b.n	402c78 <_svfprintf_r+0x91c>
  402ca8:	9b0d      	ldr	r3, [sp, #52]	; 0x34
  402caa:	9a08      	ldr	r2, [sp, #32]
  402cac:	1a9f      	subs	r7, r3, r2
  402cae:	2f00      	cmp	r7, #0
  402cb0:	f77f ace5 	ble.w	40267e <_svfprintf_r+0x322>
  402cb4:	2f10      	cmp	r7, #16
  402cb6:	9b26      	ldr	r3, [sp, #152]	; 0x98
  402cb8:	4db6      	ldr	r5, [pc, #728]	; (402f94 <_svfprintf_r+0xc38>)
  402cba:	dd27      	ble.n	402d0c <_svfprintf_r+0x9b0>
  402cbc:	4642      	mov	r2, r8
  402cbe:	4621      	mov	r1, r4
  402cc0:	46b0      	mov	r8, r6
  402cc2:	f04f 0b10 	mov.w	fp, #16
  402cc6:	462e      	mov	r6, r5
  402cc8:	9c0c      	ldr	r4, [sp, #48]	; 0x30
  402cca:	9d0b      	ldr	r5, [sp, #44]	; 0x2c
  402ccc:	e004      	b.n	402cd8 <_svfprintf_r+0x97c>
  402cce:	3f10      	subs	r7, #16
  402cd0:	2f10      	cmp	r7, #16
  402cd2:	f102 0208 	add.w	r2, r2, #8
  402cd6:	dd15      	ble.n	402d04 <_svfprintf_r+0x9a8>
  402cd8:	3301      	adds	r3, #1
  402cda:	3110      	adds	r1, #16
  402cdc:	2b07      	cmp	r3, #7
  402cde:	9127      	str	r1, [sp, #156]	; 0x9c
  402ce0:	9326      	str	r3, [sp, #152]	; 0x98
  402ce2:	e882 0840 	stmia.w	r2, {r6, fp}
  402ce6:	ddf2      	ble.n	402cce <_svfprintf_r+0x972>
  402ce8:	aa25      	add	r2, sp, #148	; 0x94
  402cea:	4629      	mov	r1, r5
  402cec:	4620      	mov	r0, r4
  402cee:	f004 fac7 	bl	407280 <__ssprint_r>
  402cf2:	2800      	cmp	r0, #0
  402cf4:	f47f ac04 	bne.w	402500 <_svfprintf_r+0x1a4>
  402cf8:	3f10      	subs	r7, #16
  402cfa:	2f10      	cmp	r7, #16
  402cfc:	9927      	ldr	r1, [sp, #156]	; 0x9c
  402cfe:	9b26      	ldr	r3, [sp, #152]	; 0x98
  402d00:	464a      	mov	r2, r9
  402d02:	dce9      	bgt.n	402cd8 <_svfprintf_r+0x97c>
  402d04:	4635      	mov	r5, r6
  402d06:	460c      	mov	r4, r1
  402d08:	4646      	mov	r6, r8
  402d0a:	4690      	mov	r8, r2
  402d0c:	3301      	adds	r3, #1
  402d0e:	443c      	add	r4, r7
  402d10:	2b07      	cmp	r3, #7
  402d12:	9427      	str	r4, [sp, #156]	; 0x9c
  402d14:	9326      	str	r3, [sp, #152]	; 0x98
  402d16:	e888 00a0 	stmia.w	r8, {r5, r7}
  402d1a:	f300 8232 	bgt.w	403182 <_svfprintf_r+0xe26>
  402d1e:	f108 0808 	add.w	r8, r8, #8
  402d22:	e4ac      	b.n	40267e <_svfprintf_r+0x322>
  402d24:	9b13      	ldr	r3, [sp, #76]	; 0x4c
  402d26:	9f26      	ldr	r7, [sp, #152]	; 0x98
  402d28:	2b01      	cmp	r3, #1
  402d2a:	f340 81fe 	ble.w	40312a <_svfprintf_r+0xdce>
  402d2e:	3701      	adds	r7, #1
  402d30:	3401      	adds	r4, #1
  402d32:	2301      	movs	r3, #1
  402d34:	2f07      	cmp	r7, #7
  402d36:	9427      	str	r4, [sp, #156]	; 0x9c
  402d38:	9726      	str	r7, [sp, #152]	; 0x98
  402d3a:	f8c8 6000 	str.w	r6, [r8]
  402d3e:	f8c8 3004 	str.w	r3, [r8, #4]
  402d42:	f300 8203 	bgt.w	40314c <_svfprintf_r+0xdf0>
  402d46:	f108 0808 	add.w	r8, r8, #8
  402d4a:	9a19      	ldr	r2, [sp, #100]	; 0x64
  402d4c:	9b1a      	ldr	r3, [sp, #104]	; 0x68
  402d4e:	f8c8 3000 	str.w	r3, [r8]
  402d52:	3701      	adds	r7, #1
  402d54:	4414      	add	r4, r2
  402d56:	2f07      	cmp	r7, #7
  402d58:	9427      	str	r4, [sp, #156]	; 0x9c
  402d5a:	9726      	str	r7, [sp, #152]	; 0x98
  402d5c:	f8c8 2004 	str.w	r2, [r8, #4]
  402d60:	f300 8200 	bgt.w	403164 <_svfprintf_r+0xe08>
  402d64:	f108 0808 	add.w	r8, r8, #8
  402d68:	a815      	add	r0, sp, #84	; 0x54
  402d6a:	c80d      	ldmia	r0, {r0, r2, r3}
  402d6c:	9914      	ldr	r1, [sp, #80]	; 0x50
  402d6e:	f005 f923 	bl	407fb8 <__aeabi_dcmpeq>
  402d72:	9b13      	ldr	r3, [sp, #76]	; 0x4c
  402d74:	2800      	cmp	r0, #0
  402d76:	f040 8101 	bne.w	402f7c <_svfprintf_r+0xc20>
  402d7a:	3b01      	subs	r3, #1
  402d7c:	3701      	adds	r7, #1
  402d7e:	3601      	adds	r6, #1
  402d80:	441c      	add	r4, r3
  402d82:	2f07      	cmp	r7, #7
  402d84:	9726      	str	r7, [sp, #152]	; 0x98
  402d86:	9427      	str	r4, [sp, #156]	; 0x9c
  402d88:	f8c8 6000 	str.w	r6, [r8]
  402d8c:	f8c8 3004 	str.w	r3, [r8, #4]
  402d90:	f300 8127 	bgt.w	402fe2 <_svfprintf_r+0xc86>
  402d94:	f108 0808 	add.w	r8, r8, #8
  402d98:	9a1b      	ldr	r2, [sp, #108]	; 0x6c
  402d9a:	f8c8 2004 	str.w	r2, [r8, #4]
  402d9e:	3701      	adds	r7, #1
  402da0:	4414      	add	r4, r2
  402da2:	ab21      	add	r3, sp, #132	; 0x84
  402da4:	2f07      	cmp	r7, #7
  402da6:	9427      	str	r4, [sp, #156]	; 0x9c
  402da8:	9726      	str	r7, [sp, #152]	; 0x98
  402daa:	f8c8 3000 	str.w	r3, [r8]
  402dae:	f77f acb3 	ble.w	402718 <_svfprintf_r+0x3bc>
  402db2:	aa25      	add	r2, sp, #148	; 0x94
  402db4:	990b      	ldr	r1, [sp, #44]	; 0x2c
  402db6:	980c      	ldr	r0, [sp, #48]	; 0x30
  402db8:	f004 fa62 	bl	407280 <__ssprint_r>
  402dbc:	2800      	cmp	r0, #0
  402dbe:	f47f ab9f 	bne.w	402500 <_svfprintf_r+0x1a4>
  402dc2:	9c27      	ldr	r4, [sp, #156]	; 0x9c
  402dc4:	46c8      	mov	r8, r9
  402dc6:	e4a9      	b.n	40271c <_svfprintf_r+0x3c0>
  402dc8:	aa25      	add	r2, sp, #148	; 0x94
  402dca:	990b      	ldr	r1, [sp, #44]	; 0x2c
  402dcc:	980c      	ldr	r0, [sp, #48]	; 0x30
  402dce:	f004 fa57 	bl	407280 <__ssprint_r>
  402dd2:	2800      	cmp	r0, #0
  402dd4:	f43f aceb 	beq.w	4027ae <_svfprintf_r+0x452>
  402dd8:	f7ff bb92 	b.w	402500 <_svfprintf_r+0x1a4>
  402ddc:	f8dd b01c 	ldr.w	fp, [sp, #28]
  402de0:	2b01      	cmp	r3, #1
  402de2:	f000 8134 	beq.w	40304e <_svfprintf_r+0xcf2>
  402de6:	2b02      	cmp	r3, #2
  402de8:	d125      	bne.n	402e36 <_svfprintf_r+0xada>
  402dea:	f8cd b01c 	str.w	fp, [sp, #28]
  402dee:	2400      	movs	r4, #0
  402df0:	2500      	movs	r5, #0
  402df2:	e61e      	b.n	402a32 <_svfprintf_r+0x6d6>
  402df4:	aa25      	add	r2, sp, #148	; 0x94
  402df6:	990b      	ldr	r1, [sp, #44]	; 0x2c
  402df8:	980c      	ldr	r0, [sp, #48]	; 0x30
  402dfa:	f004 fa41 	bl	407280 <__ssprint_r>
  402dfe:	2800      	cmp	r0, #0
  402e00:	f47f ab7e 	bne.w	402500 <_svfprintf_r+0x1a4>
  402e04:	9c27      	ldr	r4, [sp, #156]	; 0x9c
  402e06:	46c8      	mov	r8, r9
  402e08:	e475      	b.n	4026f6 <_svfprintf_r+0x39a>
  402e0a:	aa25      	add	r2, sp, #148	; 0x94
  402e0c:	990b      	ldr	r1, [sp, #44]	; 0x2c
  402e0e:	980c      	ldr	r0, [sp, #48]	; 0x30
  402e10:	f004 fa36 	bl	407280 <__ssprint_r>
  402e14:	2800      	cmp	r0, #0
  402e16:	f47f ab73 	bne.w	402500 <_svfprintf_r+0x1a4>
  402e1a:	9c27      	ldr	r4, [sp, #156]	; 0x9c
  402e1c:	46c8      	mov	r8, r9
  402e1e:	e41b      	b.n	402658 <_svfprintf_r+0x2fc>
  402e20:	aa25      	add	r2, sp, #148	; 0x94
  402e22:	990b      	ldr	r1, [sp, #44]	; 0x2c
  402e24:	980c      	ldr	r0, [sp, #48]	; 0x30
  402e26:	f004 fa2b 	bl	407280 <__ssprint_r>
  402e2a:	2800      	cmp	r0, #0
  402e2c:	f47f ab68 	bne.w	402500 <_svfprintf_r+0x1a4>
  402e30:	9c27      	ldr	r4, [sp, #156]	; 0x9c
  402e32:	46c8      	mov	r8, r9
  402e34:	e420      	b.n	402678 <_svfprintf_r+0x31c>
  402e36:	f8cd b01c 	str.w	fp, [sp, #28]
  402e3a:	2400      	movs	r4, #0
  402e3c:	2500      	movs	r5, #0
  402e3e:	4649      	mov	r1, r9
  402e40:	e000      	b.n	402e44 <_svfprintf_r+0xae8>
  402e42:	4631      	mov	r1, r6
  402e44:	08e2      	lsrs	r2, r4, #3
  402e46:	ea42 7245 	orr.w	r2, r2, r5, lsl #29
  402e4a:	08e8      	lsrs	r0, r5, #3
  402e4c:	f004 0307 	and.w	r3, r4, #7
  402e50:	4605      	mov	r5, r0
  402e52:	4614      	mov	r4, r2
  402e54:	3330      	adds	r3, #48	; 0x30
  402e56:	ea54 0205 	orrs.w	r2, r4, r5
  402e5a:	f801 3c01 	strb.w	r3, [r1, #-1]
  402e5e:	f101 36ff 	add.w	r6, r1, #4294967295
  402e62:	d1ee      	bne.n	402e42 <_svfprintf_r+0xae6>
  402e64:	9a07      	ldr	r2, [sp, #28]
  402e66:	07d2      	lsls	r2, r2, #31
  402e68:	f57f adf3 	bpl.w	402a52 <_svfprintf_r+0x6f6>
  402e6c:	2b30      	cmp	r3, #48	; 0x30
  402e6e:	f43f adf0 	beq.w	402a52 <_svfprintf_r+0x6f6>
  402e72:	3902      	subs	r1, #2
  402e74:	2330      	movs	r3, #48	; 0x30
  402e76:	f806 3c01 	strb.w	r3, [r6, #-1]
  402e7a:	eba9 0301 	sub.w	r3, r9, r1
  402e7e:	930e      	str	r3, [sp, #56]	; 0x38
  402e80:	460e      	mov	r6, r1
  402e82:	f7ff bb7b 	b.w	40257c <_svfprintf_r+0x220>
  402e86:	991f      	ldr	r1, [sp, #124]	; 0x7c
  402e88:	2900      	cmp	r1, #0
  402e8a:	f340 822e 	ble.w	4032ea <_svfprintf_r+0xf8e>
  402e8e:	9b12      	ldr	r3, [sp, #72]	; 0x48
  402e90:	9a13      	ldr	r2, [sp, #76]	; 0x4c
  402e92:	4293      	cmp	r3, r2
  402e94:	bfa8      	it	ge
  402e96:	4613      	movge	r3, r2
  402e98:	2b00      	cmp	r3, #0
  402e9a:	461f      	mov	r7, r3
  402e9c:	dd0d      	ble.n	402eba <_svfprintf_r+0xb5e>
  402e9e:	9b26      	ldr	r3, [sp, #152]	; 0x98
  402ea0:	f8c8 6000 	str.w	r6, [r8]
  402ea4:	3301      	adds	r3, #1
  402ea6:	443c      	add	r4, r7
  402ea8:	2b07      	cmp	r3, #7
  402eaa:	9427      	str	r4, [sp, #156]	; 0x9c
  402eac:	f8c8 7004 	str.w	r7, [r8, #4]
  402eb0:	9326      	str	r3, [sp, #152]	; 0x98
  402eb2:	f300 831f 	bgt.w	4034f4 <_svfprintf_r+0x1198>
  402eb6:	f108 0808 	add.w	r8, r8, #8
  402eba:	9b12      	ldr	r3, [sp, #72]	; 0x48
  402ebc:	2f00      	cmp	r7, #0
  402ebe:	bfa8      	it	ge
  402ec0:	1bdb      	subge	r3, r3, r7
  402ec2:	2b00      	cmp	r3, #0
  402ec4:	461f      	mov	r7, r3
  402ec6:	f340 80d6 	ble.w	403076 <_svfprintf_r+0xd1a>
  402eca:	2f10      	cmp	r7, #16
  402ecc:	9b26      	ldr	r3, [sp, #152]	; 0x98
  402ece:	4d31      	ldr	r5, [pc, #196]	; (402f94 <_svfprintf_r+0xc38>)
  402ed0:	f340 81ed 	ble.w	4032ae <_svfprintf_r+0xf52>
  402ed4:	4642      	mov	r2, r8
  402ed6:	4621      	mov	r1, r4
  402ed8:	46b0      	mov	r8, r6
  402eda:	f04f 0b10 	mov.w	fp, #16
  402ede:	462e      	mov	r6, r5
  402ee0:	9c0c      	ldr	r4, [sp, #48]	; 0x30
  402ee2:	9d0b      	ldr	r5, [sp, #44]	; 0x2c
  402ee4:	e004      	b.n	402ef0 <_svfprintf_r+0xb94>
  402ee6:	3208      	adds	r2, #8
  402ee8:	3f10      	subs	r7, #16
  402eea:	2f10      	cmp	r7, #16
  402eec:	f340 81db 	ble.w	4032a6 <_svfprintf_r+0xf4a>
  402ef0:	3301      	adds	r3, #1
  402ef2:	3110      	adds	r1, #16
  402ef4:	2b07      	cmp	r3, #7
  402ef6:	9127      	str	r1, [sp, #156]	; 0x9c
  402ef8:	9326      	str	r3, [sp, #152]	; 0x98
  402efa:	e882 0840 	stmia.w	r2, {r6, fp}
  402efe:	ddf2      	ble.n	402ee6 <_svfprintf_r+0xb8a>
  402f00:	aa25      	add	r2, sp, #148	; 0x94
  402f02:	4629      	mov	r1, r5
  402f04:	4620      	mov	r0, r4
  402f06:	f004 f9bb 	bl	407280 <__ssprint_r>
  402f0a:	2800      	cmp	r0, #0
  402f0c:	f47f aaf8 	bne.w	402500 <_svfprintf_r+0x1a4>
  402f10:	9927      	ldr	r1, [sp, #156]	; 0x9c
  402f12:	9b26      	ldr	r3, [sp, #152]	; 0x98
  402f14:	464a      	mov	r2, r9
  402f16:	e7e7      	b.n	402ee8 <_svfprintf_r+0xb8c>
  402f18:	9b0a      	ldr	r3, [sp, #40]	; 0x28
  402f1a:	930e      	str	r3, [sp, #56]	; 0x38
  402f1c:	464e      	mov	r6, r9
  402f1e:	f7ff bb2d 	b.w	40257c <_svfprintf_r+0x220>
  402f22:	2d00      	cmp	r5, #0
  402f24:	bf08      	it	eq
  402f26:	2c0a      	cmpeq	r4, #10
  402f28:	f0c0 808f 	bcc.w	40304a <_svfprintf_r+0xcee>
  402f2c:	464e      	mov	r6, r9
  402f2e:	4620      	mov	r0, r4
  402f30:	4629      	mov	r1, r5
  402f32:	220a      	movs	r2, #10
  402f34:	2300      	movs	r3, #0
  402f36:	f005 f8af 	bl	408098 <__aeabi_uldivmod>
  402f3a:	3230      	adds	r2, #48	; 0x30
  402f3c:	f806 2d01 	strb.w	r2, [r6, #-1]!
  402f40:	4620      	mov	r0, r4
  402f42:	4629      	mov	r1, r5
  402f44:	2300      	movs	r3, #0
  402f46:	220a      	movs	r2, #10
  402f48:	f005 f8a6 	bl	408098 <__aeabi_uldivmod>
  402f4c:	4604      	mov	r4, r0
  402f4e:	460d      	mov	r5, r1
  402f50:	ea54 0305 	orrs.w	r3, r4, r5
  402f54:	d1eb      	bne.n	402f2e <_svfprintf_r+0xbd2>
  402f56:	eba9 0306 	sub.w	r3, r9, r6
  402f5a:	930e      	str	r3, [sp, #56]	; 0x38
  402f5c:	f7ff bb0e 	b.w	40257c <_svfprintf_r+0x220>
  402f60:	aa25      	add	r2, sp, #148	; 0x94
  402f62:	990b      	ldr	r1, [sp, #44]	; 0x2c
  402f64:	980c      	ldr	r0, [sp, #48]	; 0x30
  402f66:	f004 f98b 	bl	407280 <__ssprint_r>
  402f6a:	2800      	cmp	r0, #0
  402f6c:	f47f aac8 	bne.w	402500 <_svfprintf_r+0x1a4>
  402f70:	f89d 7077 	ldrb.w	r7, [sp, #119]	; 0x77
  402f74:	9c27      	ldr	r4, [sp, #156]	; 0x9c
  402f76:	46c8      	mov	r8, r9
  402f78:	f7ff bb5e 	b.w	402638 <_svfprintf_r+0x2dc>
  402f7c:	1e5e      	subs	r6, r3, #1
  402f7e:	2e00      	cmp	r6, #0
  402f80:	f77f af0a 	ble.w	402d98 <_svfprintf_r+0xa3c>
  402f84:	2e10      	cmp	r6, #16
  402f86:	4d03      	ldr	r5, [pc, #12]	; (402f94 <_svfprintf_r+0xc38>)
  402f88:	dd22      	ble.n	402fd0 <_svfprintf_r+0xc74>
  402f8a:	4622      	mov	r2, r4
  402f8c:	f04f 0b10 	mov.w	fp, #16
  402f90:	9c0c      	ldr	r4, [sp, #48]	; 0x30
  402f92:	e006      	b.n	402fa2 <_svfprintf_r+0xc46>
  402f94:	00408cd0 	.word	0x00408cd0
  402f98:	3e10      	subs	r6, #16
  402f9a:	2e10      	cmp	r6, #16
  402f9c:	f108 0808 	add.w	r8, r8, #8
  402fa0:	dd15      	ble.n	402fce <_svfprintf_r+0xc72>
  402fa2:	3701      	adds	r7, #1
  402fa4:	3210      	adds	r2, #16
  402fa6:	2f07      	cmp	r7, #7
  402fa8:	9227      	str	r2, [sp, #156]	; 0x9c
  402faa:	9726      	str	r7, [sp, #152]	; 0x98
  402fac:	e888 0820 	stmia.w	r8, {r5, fp}
  402fb0:	ddf2      	ble.n	402f98 <_svfprintf_r+0xc3c>
  402fb2:	aa25      	add	r2, sp, #148	; 0x94
  402fb4:	990b      	ldr	r1, [sp, #44]	; 0x2c
  402fb6:	4620      	mov	r0, r4
  402fb8:	f004 f962 	bl	407280 <__ssprint_r>
  402fbc:	2800      	cmp	r0, #0
  402fbe:	f47f aa9f 	bne.w	402500 <_svfprintf_r+0x1a4>
  402fc2:	3e10      	subs	r6, #16
  402fc4:	2e10      	cmp	r6, #16
  402fc6:	9a27      	ldr	r2, [sp, #156]	; 0x9c
  402fc8:	9f26      	ldr	r7, [sp, #152]	; 0x98
  402fca:	46c8      	mov	r8, r9
  402fcc:	dce9      	bgt.n	402fa2 <_svfprintf_r+0xc46>
  402fce:	4614      	mov	r4, r2
  402fd0:	3701      	adds	r7, #1
  402fd2:	4434      	add	r4, r6
  402fd4:	2f07      	cmp	r7, #7
  402fd6:	9427      	str	r4, [sp, #156]	; 0x9c
  402fd8:	9726      	str	r7, [sp, #152]	; 0x98
  402fda:	e888 0060 	stmia.w	r8, {r5, r6}
  402fde:	f77f aed9 	ble.w	402d94 <_svfprintf_r+0xa38>
  402fe2:	aa25      	add	r2, sp, #148	; 0x94
  402fe4:	990b      	ldr	r1, [sp, #44]	; 0x2c
  402fe6:	980c      	ldr	r0, [sp, #48]	; 0x30
  402fe8:	f004 f94a 	bl	407280 <__ssprint_r>
  402fec:	2800      	cmp	r0, #0
  402fee:	f47f aa87 	bne.w	402500 <_svfprintf_r+0x1a4>
  402ff2:	9c27      	ldr	r4, [sp, #156]	; 0x9c
  402ff4:	9f26      	ldr	r7, [sp, #152]	; 0x98
  402ff6:	46c8      	mov	r8, r9
  402ff8:	e6ce      	b.n	402d98 <_svfprintf_r+0xa3c>
  402ffa:	9a0f      	ldr	r2, [sp, #60]	; 0x3c
  402ffc:	6814      	ldr	r4, [r2, #0]
  402ffe:	4613      	mov	r3, r2
  403000:	3304      	adds	r3, #4
  403002:	17e5      	asrs	r5, r4, #31
  403004:	930f      	str	r3, [sp, #60]	; 0x3c
  403006:	4622      	mov	r2, r4
  403008:	462b      	mov	r3, r5
  40300a:	e4fa      	b.n	402a02 <_svfprintf_r+0x6a6>
  40300c:	3204      	adds	r2, #4
  40300e:	681c      	ldr	r4, [r3, #0]
  403010:	920f      	str	r2, [sp, #60]	; 0x3c
  403012:	2301      	movs	r3, #1
  403014:	2500      	movs	r5, #0
  403016:	f7ff ba94 	b.w	402542 <_svfprintf_r+0x1e6>
  40301a:	681c      	ldr	r4, [r3, #0]
  40301c:	3304      	adds	r3, #4
  40301e:	930f      	str	r3, [sp, #60]	; 0x3c
  403020:	2500      	movs	r5, #0
  403022:	e421      	b.n	402868 <_svfprintf_r+0x50c>
  403024:	990f      	ldr	r1, [sp, #60]	; 0x3c
  403026:	460a      	mov	r2, r1
  403028:	3204      	adds	r2, #4
  40302a:	680c      	ldr	r4, [r1, #0]
  40302c:	920f      	str	r2, [sp, #60]	; 0x3c
  40302e:	2500      	movs	r5, #0
  403030:	f7ff ba87 	b.w	402542 <_svfprintf_r+0x1e6>
  403034:	4614      	mov	r4, r2
  403036:	3301      	adds	r3, #1
  403038:	4434      	add	r4, r6
  40303a:	2b07      	cmp	r3, #7
  40303c:	9427      	str	r4, [sp, #156]	; 0x9c
  40303e:	9326      	str	r3, [sp, #152]	; 0x98
  403040:	e888 0060 	stmia.w	r8, {r5, r6}
  403044:	f77f ab68 	ble.w	402718 <_svfprintf_r+0x3bc>
  403048:	e6b3      	b.n	402db2 <_svfprintf_r+0xa56>
  40304a:	f8dd b01c 	ldr.w	fp, [sp, #28]
  40304e:	f8cd b01c 	str.w	fp, [sp, #28]
  403052:	ae42      	add	r6, sp, #264	; 0x108
  403054:	3430      	adds	r4, #48	; 0x30
  403056:	2301      	movs	r3, #1
  403058:	f806 4d41 	strb.w	r4, [r6, #-65]!
  40305c:	930e      	str	r3, [sp, #56]	; 0x38
  40305e:	f7ff ba8d 	b.w	40257c <_svfprintf_r+0x220>
  403062:	aa25      	add	r2, sp, #148	; 0x94
  403064:	990b      	ldr	r1, [sp, #44]	; 0x2c
  403066:	980c      	ldr	r0, [sp, #48]	; 0x30
  403068:	f004 f90a 	bl	407280 <__ssprint_r>
  40306c:	2800      	cmp	r0, #0
  40306e:	f47f aa47 	bne.w	402500 <_svfprintf_r+0x1a4>
  403072:	9c27      	ldr	r4, [sp, #156]	; 0x9c
  403074:	46c8      	mov	r8, r9
  403076:	9a1f      	ldr	r2, [sp, #124]	; 0x7c
  403078:	9b13      	ldr	r3, [sp, #76]	; 0x4c
  40307a:	429a      	cmp	r2, r3
  40307c:	db44      	blt.n	403108 <_svfprintf_r+0xdac>
  40307e:	9b07      	ldr	r3, [sp, #28]
  403080:	07d9      	lsls	r1, r3, #31
  403082:	d441      	bmi.n	403108 <_svfprintf_r+0xdac>
  403084:	9b13      	ldr	r3, [sp, #76]	; 0x4c
  403086:	9812      	ldr	r0, [sp, #72]	; 0x48
  403088:	1a9a      	subs	r2, r3, r2
  40308a:	1a1d      	subs	r5, r3, r0
  40308c:	4295      	cmp	r5, r2
  40308e:	bfa8      	it	ge
  403090:	4615      	movge	r5, r2
  403092:	2d00      	cmp	r5, #0
  403094:	dd0e      	ble.n	4030b4 <_svfprintf_r+0xd58>
  403096:	9926      	ldr	r1, [sp, #152]	; 0x98
  403098:	f8c8 5004 	str.w	r5, [r8, #4]
  40309c:	3101      	adds	r1, #1
  40309e:	4406      	add	r6, r0
  4030a0:	442c      	add	r4, r5
  4030a2:	2907      	cmp	r1, #7
  4030a4:	f8c8 6000 	str.w	r6, [r8]
  4030a8:	9427      	str	r4, [sp, #156]	; 0x9c
  4030aa:	9126      	str	r1, [sp, #152]	; 0x98
  4030ac:	f300 823b 	bgt.w	403526 <_svfprintf_r+0x11ca>
  4030b0:	f108 0808 	add.w	r8, r8, #8
  4030b4:	2d00      	cmp	r5, #0
  4030b6:	bfac      	ite	ge
  4030b8:	1b56      	subge	r6, r2, r5
  4030ba:	4616      	movlt	r6, r2
  4030bc:	2e00      	cmp	r6, #0
  4030be:	f77f ab2d 	ble.w	40271c <_svfprintf_r+0x3c0>
  4030c2:	2e10      	cmp	r6, #16
  4030c4:	9b26      	ldr	r3, [sp, #152]	; 0x98
  4030c6:	4db0      	ldr	r5, [pc, #704]	; (403388 <_svfprintf_r+0x102c>)
  4030c8:	ddb5      	ble.n	403036 <_svfprintf_r+0xcda>
  4030ca:	4622      	mov	r2, r4
  4030cc:	2710      	movs	r7, #16
  4030ce:	f8dd b030 	ldr.w	fp, [sp, #48]	; 0x30
  4030d2:	9c0b      	ldr	r4, [sp, #44]	; 0x2c
  4030d4:	e004      	b.n	4030e0 <_svfprintf_r+0xd84>
  4030d6:	f108 0808 	add.w	r8, r8, #8
  4030da:	3e10      	subs	r6, #16
  4030dc:	2e10      	cmp	r6, #16
  4030de:	dda9      	ble.n	403034 <_svfprintf_r+0xcd8>
  4030e0:	3301      	adds	r3, #1
  4030e2:	3210      	adds	r2, #16
  4030e4:	2b07      	cmp	r3, #7
  4030e6:	9227      	str	r2, [sp, #156]	; 0x9c
  4030e8:	9326      	str	r3, [sp, #152]	; 0x98
  4030ea:	e888 00a0 	stmia.w	r8, {r5, r7}
  4030ee:	ddf2      	ble.n	4030d6 <_svfprintf_r+0xd7a>
  4030f0:	aa25      	add	r2, sp, #148	; 0x94
  4030f2:	4621      	mov	r1, r4
  4030f4:	4658      	mov	r0, fp
  4030f6:	f004 f8c3 	bl	407280 <__ssprint_r>
  4030fa:	2800      	cmp	r0, #0
  4030fc:	f47f aa00 	bne.w	402500 <_svfprintf_r+0x1a4>
  403100:	9a27      	ldr	r2, [sp, #156]	; 0x9c
  403102:	9b26      	ldr	r3, [sp, #152]	; 0x98
  403104:	46c8      	mov	r8, r9
  403106:	e7e8      	b.n	4030da <_svfprintf_r+0xd7e>
  403108:	9b26      	ldr	r3, [sp, #152]	; 0x98
  40310a:	9819      	ldr	r0, [sp, #100]	; 0x64
  40310c:	991a      	ldr	r1, [sp, #104]	; 0x68
  40310e:	f8c8 1000 	str.w	r1, [r8]
  403112:	3301      	adds	r3, #1
  403114:	4404      	add	r4, r0
  403116:	2b07      	cmp	r3, #7
  403118:	9427      	str	r4, [sp, #156]	; 0x9c
  40311a:	f8c8 0004 	str.w	r0, [r8, #4]
  40311e:	9326      	str	r3, [sp, #152]	; 0x98
  403120:	f300 81f5 	bgt.w	40350e <_svfprintf_r+0x11b2>
  403124:	f108 0808 	add.w	r8, r8, #8
  403128:	e7ac      	b.n	403084 <_svfprintf_r+0xd28>
  40312a:	9b07      	ldr	r3, [sp, #28]
  40312c:	07da      	lsls	r2, r3, #31
  40312e:	f53f adfe 	bmi.w	402d2e <_svfprintf_r+0x9d2>
  403132:	3701      	adds	r7, #1
  403134:	3401      	adds	r4, #1
  403136:	2301      	movs	r3, #1
  403138:	2f07      	cmp	r7, #7
  40313a:	9427      	str	r4, [sp, #156]	; 0x9c
  40313c:	9726      	str	r7, [sp, #152]	; 0x98
  40313e:	f8c8 6000 	str.w	r6, [r8]
  403142:	f8c8 3004 	str.w	r3, [r8, #4]
  403146:	f77f ae25 	ble.w	402d94 <_svfprintf_r+0xa38>
  40314a:	e74a      	b.n	402fe2 <_svfprintf_r+0xc86>
  40314c:	aa25      	add	r2, sp, #148	; 0x94
  40314e:	990b      	ldr	r1, [sp, #44]	; 0x2c
  403150:	980c      	ldr	r0, [sp, #48]	; 0x30
  403152:	f004 f895 	bl	407280 <__ssprint_r>
  403156:	2800      	cmp	r0, #0
  403158:	f47f a9d2 	bne.w	402500 <_svfprintf_r+0x1a4>
  40315c:	9c27      	ldr	r4, [sp, #156]	; 0x9c
  40315e:	9f26      	ldr	r7, [sp, #152]	; 0x98
  403160:	46c8      	mov	r8, r9
  403162:	e5f2      	b.n	402d4a <_svfprintf_r+0x9ee>
  403164:	aa25      	add	r2, sp, #148	; 0x94
  403166:	990b      	ldr	r1, [sp, #44]	; 0x2c
  403168:	980c      	ldr	r0, [sp, #48]	; 0x30
  40316a:	f004 f889 	bl	407280 <__ssprint_r>
  40316e:	2800      	cmp	r0, #0
  403170:	f47f a9c6 	bne.w	402500 <_svfprintf_r+0x1a4>
  403174:	9c27      	ldr	r4, [sp, #156]	; 0x9c
  403176:	9f26      	ldr	r7, [sp, #152]	; 0x98
  403178:	46c8      	mov	r8, r9
  40317a:	e5f5      	b.n	402d68 <_svfprintf_r+0xa0c>
  40317c:	464e      	mov	r6, r9
  40317e:	f7ff b9fd 	b.w	40257c <_svfprintf_r+0x220>
  403182:	aa25      	add	r2, sp, #148	; 0x94
  403184:	990b      	ldr	r1, [sp, #44]	; 0x2c
  403186:	980c      	ldr	r0, [sp, #48]	; 0x30
  403188:	f004 f87a 	bl	407280 <__ssprint_r>
  40318c:	2800      	cmp	r0, #0
  40318e:	f47f a9b7 	bne.w	402500 <_svfprintf_r+0x1a4>
  403192:	9c27      	ldr	r4, [sp, #156]	; 0x9c
  403194:	46c8      	mov	r8, r9
  403196:	f7ff ba72 	b.w	40267e <_svfprintf_r+0x322>
  40319a:	9c15      	ldr	r4, [sp, #84]	; 0x54
  40319c:	4622      	mov	r2, r4
  40319e:	4620      	mov	r0, r4
  4031a0:	9c14      	ldr	r4, [sp, #80]	; 0x50
  4031a2:	4623      	mov	r3, r4
  4031a4:	4621      	mov	r1, r4
  4031a6:	f004 ff39 	bl	40801c <__aeabi_dcmpun>
  4031aa:	2800      	cmp	r0, #0
  4031ac:	f040 8286 	bne.w	4036bc <_svfprintf_r+0x1360>
  4031b0:	9b0a      	ldr	r3, [sp, #40]	; 0x28
  4031b2:	3301      	adds	r3, #1
  4031b4:	9b11      	ldr	r3, [sp, #68]	; 0x44
  4031b6:	f023 0320 	bic.w	r3, r3, #32
  4031ba:	930e      	str	r3, [sp, #56]	; 0x38
  4031bc:	f000 81e2 	beq.w	403584 <_svfprintf_r+0x1228>
  4031c0:	2b47      	cmp	r3, #71	; 0x47
  4031c2:	f000 811e 	beq.w	403402 <_svfprintf_r+0x10a6>
  4031c6:	f44b 7380 	orr.w	r3, fp, #256	; 0x100
  4031ca:	9307      	str	r3, [sp, #28]
  4031cc:	9b14      	ldr	r3, [sp, #80]	; 0x50
  4031ce:	1e1f      	subs	r7, r3, #0
  4031d0:	9b15      	ldr	r3, [sp, #84]	; 0x54
  4031d2:	9308      	str	r3, [sp, #32]
  4031d4:	bfbb      	ittet	lt
  4031d6:	463b      	movlt	r3, r7
  4031d8:	f103 4700 	addlt.w	r7, r3, #2147483648	; 0x80000000
  4031dc:	2300      	movge	r3, #0
  4031de:	232d      	movlt	r3, #45	; 0x2d
  4031e0:	9310      	str	r3, [sp, #64]	; 0x40
  4031e2:	9b11      	ldr	r3, [sp, #68]	; 0x44
  4031e4:	2b66      	cmp	r3, #102	; 0x66
  4031e6:	f000 81bb 	beq.w	403560 <_svfprintf_r+0x1204>
  4031ea:	2b46      	cmp	r3, #70	; 0x46
  4031ec:	f000 80df 	beq.w	4033ae <_svfprintf_r+0x1052>
  4031f0:	9b0e      	ldr	r3, [sp, #56]	; 0x38
  4031f2:	9a08      	ldr	r2, [sp, #32]
  4031f4:	2b45      	cmp	r3, #69	; 0x45
  4031f6:	bf0c      	ite	eq
  4031f8:	9b0a      	ldreq	r3, [sp, #40]	; 0x28
  4031fa:	9d0a      	ldrne	r5, [sp, #40]	; 0x28
  4031fc:	a823      	add	r0, sp, #140	; 0x8c
  4031fe:	a920      	add	r1, sp, #128	; 0x80
  403200:	bf08      	it	eq
  403202:	1c5d      	addeq	r5, r3, #1
  403204:	9004      	str	r0, [sp, #16]
  403206:	9103      	str	r1, [sp, #12]
  403208:	a81f      	add	r0, sp, #124	; 0x7c
  40320a:	2102      	movs	r1, #2
  40320c:	463b      	mov	r3, r7
  40320e:	9002      	str	r0, [sp, #8]
  403210:	9501      	str	r5, [sp, #4]
  403212:	9100      	str	r1, [sp, #0]
  403214:	980c      	ldr	r0, [sp, #48]	; 0x30
  403216:	f001 faa3 	bl	404760 <_dtoa_r>
  40321a:	9b11      	ldr	r3, [sp, #68]	; 0x44
  40321c:	2b67      	cmp	r3, #103	; 0x67
  40321e:	4606      	mov	r6, r0
  403220:	f040 81e0 	bne.w	4035e4 <_svfprintf_r+0x1288>
  403224:	f01b 0f01 	tst.w	fp, #1
  403228:	f000 8246 	beq.w	4036b8 <_svfprintf_r+0x135c>
  40322c:	1974      	adds	r4, r6, r5
  40322e:	9a16      	ldr	r2, [sp, #88]	; 0x58
  403230:	9808      	ldr	r0, [sp, #32]
  403232:	9b17      	ldr	r3, [sp, #92]	; 0x5c
  403234:	4639      	mov	r1, r7
  403236:	f004 febf 	bl	407fb8 <__aeabi_dcmpeq>
  40323a:	2800      	cmp	r0, #0
  40323c:	f040 8165 	bne.w	40350a <_svfprintf_r+0x11ae>
  403240:	9b23      	ldr	r3, [sp, #140]	; 0x8c
  403242:	42a3      	cmp	r3, r4
  403244:	d206      	bcs.n	403254 <_svfprintf_r+0xef8>
  403246:	2130      	movs	r1, #48	; 0x30
  403248:	1c5a      	adds	r2, r3, #1
  40324a:	9223      	str	r2, [sp, #140]	; 0x8c
  40324c:	7019      	strb	r1, [r3, #0]
  40324e:	9b23      	ldr	r3, [sp, #140]	; 0x8c
  403250:	429c      	cmp	r4, r3
  403252:	d8f9      	bhi.n	403248 <_svfprintf_r+0xeec>
  403254:	1b9b      	subs	r3, r3, r6
  403256:	9313      	str	r3, [sp, #76]	; 0x4c
  403258:	9b0e      	ldr	r3, [sp, #56]	; 0x38
  40325a:	2b47      	cmp	r3, #71	; 0x47
  40325c:	f000 80e9 	beq.w	403432 <_svfprintf_r+0x10d6>
  403260:	9b11      	ldr	r3, [sp, #68]	; 0x44
  403262:	2b65      	cmp	r3, #101	; 0x65
  403264:	f340 81cd 	ble.w	403602 <_svfprintf_r+0x12a6>
  403268:	9b11      	ldr	r3, [sp, #68]	; 0x44
  40326a:	2b66      	cmp	r3, #102	; 0x66
  40326c:	9b1f      	ldr	r3, [sp, #124]	; 0x7c
  40326e:	9312      	str	r3, [sp, #72]	; 0x48
  403270:	f000 819e 	beq.w	4035b0 <_svfprintf_r+0x1254>
  403274:	9b13      	ldr	r3, [sp, #76]	; 0x4c
  403276:	9a12      	ldr	r2, [sp, #72]	; 0x48
  403278:	4619      	mov	r1, r3
  40327a:	4291      	cmp	r1, r2
  40327c:	f300 818a 	bgt.w	403594 <_svfprintf_r+0x1238>
  403280:	f01b 0f01 	tst.w	fp, #1
  403284:	f040 8213 	bne.w	4036ae <_svfprintf_r+0x1352>
  403288:	ea22 73e2 	bic.w	r3, r2, r2, asr #31
  40328c:	9308      	str	r3, [sp, #32]
  40328e:	2367      	movs	r3, #103	; 0x67
  403290:	920e      	str	r2, [sp, #56]	; 0x38
  403292:	9311      	str	r3, [sp, #68]	; 0x44
  403294:	9b10      	ldr	r3, [sp, #64]	; 0x40
  403296:	2b00      	cmp	r3, #0
  403298:	f040 80c4 	bne.w	403424 <_svfprintf_r+0x10c8>
  40329c:	930a      	str	r3, [sp, #40]	; 0x28
  40329e:	f89d 7077 	ldrb.w	r7, [sp, #119]	; 0x77
  4032a2:	f7ff b973 	b.w	40258c <_svfprintf_r+0x230>
  4032a6:	4635      	mov	r5, r6
  4032a8:	460c      	mov	r4, r1
  4032aa:	4646      	mov	r6, r8
  4032ac:	4690      	mov	r8, r2
  4032ae:	3301      	adds	r3, #1
  4032b0:	443c      	add	r4, r7
  4032b2:	2b07      	cmp	r3, #7
  4032b4:	9427      	str	r4, [sp, #156]	; 0x9c
  4032b6:	9326      	str	r3, [sp, #152]	; 0x98
  4032b8:	e888 00a0 	stmia.w	r8, {r5, r7}
  4032bc:	f73f aed1 	bgt.w	403062 <_svfprintf_r+0xd06>
  4032c0:	f108 0808 	add.w	r8, r8, #8
  4032c4:	e6d7      	b.n	403076 <_svfprintf_r+0xd1a>
  4032c6:	9a0f      	ldr	r2, [sp, #60]	; 0x3c
  4032c8:	6813      	ldr	r3, [r2, #0]
  4032ca:	3204      	adds	r2, #4
  4032cc:	920f      	str	r2, [sp, #60]	; 0x3c
  4032ce:	9a09      	ldr	r2, [sp, #36]	; 0x24
  4032d0:	601a      	str	r2, [r3, #0]
  4032d2:	f7ff b86a 	b.w	4023aa <_svfprintf_r+0x4e>
  4032d6:	aa25      	add	r2, sp, #148	; 0x94
  4032d8:	990b      	ldr	r1, [sp, #44]	; 0x2c
  4032da:	980c      	ldr	r0, [sp, #48]	; 0x30
  4032dc:	f003 ffd0 	bl	407280 <__ssprint_r>
  4032e0:	2800      	cmp	r0, #0
  4032e2:	f47f a90d 	bne.w	402500 <_svfprintf_r+0x1a4>
  4032e6:	46c8      	mov	r8, r9
  4032e8:	e48d      	b.n	402c06 <_svfprintf_r+0x8aa>
  4032ea:	9b26      	ldr	r3, [sp, #152]	; 0x98
  4032ec:	4a27      	ldr	r2, [pc, #156]	; (40338c <_svfprintf_r+0x1030>)
  4032ee:	f8c8 2000 	str.w	r2, [r8]
  4032f2:	3301      	adds	r3, #1
  4032f4:	3401      	adds	r4, #1
  4032f6:	2201      	movs	r2, #1
  4032f8:	2b07      	cmp	r3, #7
  4032fa:	9427      	str	r4, [sp, #156]	; 0x9c
  4032fc:	9326      	str	r3, [sp, #152]	; 0x98
  4032fe:	f8c8 2004 	str.w	r2, [r8, #4]
  403302:	dc72      	bgt.n	4033ea <_svfprintf_r+0x108e>
  403304:	f108 0808 	add.w	r8, r8, #8
  403308:	b929      	cbnz	r1, 403316 <_svfprintf_r+0xfba>
  40330a:	9b13      	ldr	r3, [sp, #76]	; 0x4c
  40330c:	b91b      	cbnz	r3, 403316 <_svfprintf_r+0xfba>
  40330e:	9b07      	ldr	r3, [sp, #28]
  403310:	07d8      	lsls	r0, r3, #31
  403312:	f57f aa03 	bpl.w	40271c <_svfprintf_r+0x3c0>
  403316:	9b26      	ldr	r3, [sp, #152]	; 0x98
  403318:	9819      	ldr	r0, [sp, #100]	; 0x64
  40331a:	9a1a      	ldr	r2, [sp, #104]	; 0x68
  40331c:	f8c8 2000 	str.w	r2, [r8]
  403320:	3301      	adds	r3, #1
  403322:	4602      	mov	r2, r0
  403324:	4422      	add	r2, r4
  403326:	2b07      	cmp	r3, #7
  403328:	9227      	str	r2, [sp, #156]	; 0x9c
  40332a:	f8c8 0004 	str.w	r0, [r8, #4]
  40332e:	9326      	str	r3, [sp, #152]	; 0x98
  403330:	f300 818d 	bgt.w	40364e <_svfprintf_r+0x12f2>
  403334:	f108 0808 	add.w	r8, r8, #8
  403338:	2900      	cmp	r1, #0
  40333a:	f2c0 8165 	blt.w	403608 <_svfprintf_r+0x12ac>
  40333e:	9913      	ldr	r1, [sp, #76]	; 0x4c
  403340:	f8c8 6000 	str.w	r6, [r8]
  403344:	3301      	adds	r3, #1
  403346:	188c      	adds	r4, r1, r2
  403348:	2b07      	cmp	r3, #7
  40334a:	9427      	str	r4, [sp, #156]	; 0x9c
  40334c:	9326      	str	r3, [sp, #152]	; 0x98
  40334e:	f8c8 1004 	str.w	r1, [r8, #4]
  403352:	f77f a9e1 	ble.w	402718 <_svfprintf_r+0x3bc>
  403356:	e52c      	b.n	402db2 <_svfprintf_r+0xa56>
  403358:	9a0f      	ldr	r2, [sp, #60]	; 0x3c
  40335a:	9909      	ldr	r1, [sp, #36]	; 0x24
  40335c:	6813      	ldr	r3, [r2, #0]
  40335e:	17cd      	asrs	r5, r1, #31
  403360:	4608      	mov	r0, r1
  403362:	3204      	adds	r2, #4
  403364:	4629      	mov	r1, r5
  403366:	920f      	str	r2, [sp, #60]	; 0x3c
  403368:	e9c3 0100 	strd	r0, r1, [r3]
  40336c:	f7ff b81d 	b.w	4023aa <_svfprintf_r+0x4e>
  403370:	aa25      	add	r2, sp, #148	; 0x94
  403372:	990b      	ldr	r1, [sp, #44]	; 0x2c
  403374:	980c      	ldr	r0, [sp, #48]	; 0x30
  403376:	f003 ff83 	bl	407280 <__ssprint_r>
  40337a:	2800      	cmp	r0, #0
  40337c:	f47f a8c0 	bne.w	402500 <_svfprintf_r+0x1a4>
  403380:	9c27      	ldr	r4, [sp, #156]	; 0x9c
  403382:	46c8      	mov	r8, r9
  403384:	e458      	b.n	402c38 <_svfprintf_r+0x8dc>
  403386:	bf00      	nop
  403388:	00408cd0 	.word	0x00408cd0
  40338c:	00408cbc 	.word	0x00408cbc
  403390:	2140      	movs	r1, #64	; 0x40
  403392:	980c      	ldr	r0, [sp, #48]	; 0x30
  403394:	f002 fe58 	bl	406048 <_malloc_r>
  403398:	9a0b      	ldr	r2, [sp, #44]	; 0x2c
  40339a:	6010      	str	r0, [r2, #0]
  40339c:	6110      	str	r0, [r2, #16]
  40339e:	2800      	cmp	r0, #0
  4033a0:	f000 81f2 	beq.w	403788 <_svfprintf_r+0x142c>
  4033a4:	9a0b      	ldr	r2, [sp, #44]	; 0x2c
  4033a6:	2340      	movs	r3, #64	; 0x40
  4033a8:	6153      	str	r3, [r2, #20]
  4033aa:	f7fe bfee 	b.w	40238a <_svfprintf_r+0x2e>
  4033ae:	a823      	add	r0, sp, #140	; 0x8c
  4033b0:	a920      	add	r1, sp, #128	; 0x80
  4033b2:	9c0a      	ldr	r4, [sp, #40]	; 0x28
  4033b4:	9004      	str	r0, [sp, #16]
  4033b6:	9103      	str	r1, [sp, #12]
  4033b8:	a81f      	add	r0, sp, #124	; 0x7c
  4033ba:	2103      	movs	r1, #3
  4033bc:	9002      	str	r0, [sp, #8]
  4033be:	9a08      	ldr	r2, [sp, #32]
  4033c0:	9401      	str	r4, [sp, #4]
  4033c2:	463b      	mov	r3, r7
  4033c4:	9100      	str	r1, [sp, #0]
  4033c6:	980c      	ldr	r0, [sp, #48]	; 0x30
  4033c8:	f001 f9ca 	bl	404760 <_dtoa_r>
  4033cc:	4625      	mov	r5, r4
  4033ce:	4606      	mov	r6, r0
  4033d0:	9b11      	ldr	r3, [sp, #68]	; 0x44
  4033d2:	2b46      	cmp	r3, #70	; 0x46
  4033d4:	eb06 0405 	add.w	r4, r6, r5
  4033d8:	f47f af29 	bne.w	40322e <_svfprintf_r+0xed2>
  4033dc:	7833      	ldrb	r3, [r6, #0]
  4033de:	2b30      	cmp	r3, #48	; 0x30
  4033e0:	f000 8178 	beq.w	4036d4 <_svfprintf_r+0x1378>
  4033e4:	9d1f      	ldr	r5, [sp, #124]	; 0x7c
  4033e6:	442c      	add	r4, r5
  4033e8:	e721      	b.n	40322e <_svfprintf_r+0xed2>
  4033ea:	aa25      	add	r2, sp, #148	; 0x94
  4033ec:	990b      	ldr	r1, [sp, #44]	; 0x2c
  4033ee:	980c      	ldr	r0, [sp, #48]	; 0x30
  4033f0:	f003 ff46 	bl	407280 <__ssprint_r>
  4033f4:	2800      	cmp	r0, #0
  4033f6:	f47f a883 	bne.w	402500 <_svfprintf_r+0x1a4>
  4033fa:	991f      	ldr	r1, [sp, #124]	; 0x7c
  4033fc:	9c27      	ldr	r4, [sp, #156]	; 0x9c
  4033fe:	46c8      	mov	r8, r9
  403400:	e782      	b.n	403308 <_svfprintf_r+0xfac>
  403402:	9b0a      	ldr	r3, [sp, #40]	; 0x28
  403404:	2b00      	cmp	r3, #0
  403406:	bf08      	it	eq
  403408:	2301      	moveq	r3, #1
  40340a:	930a      	str	r3, [sp, #40]	; 0x28
  40340c:	e6db      	b.n	4031c6 <_svfprintf_r+0xe6a>
  40340e:	4630      	mov	r0, r6
  403410:	940a      	str	r4, [sp, #40]	; 0x28
  403412:	f7fe ff35 	bl	402280 <strlen>
  403416:	950f      	str	r5, [sp, #60]	; 0x3c
  403418:	900e      	str	r0, [sp, #56]	; 0x38
  40341a:	f8cd b01c 	str.w	fp, [sp, #28]
  40341e:	4603      	mov	r3, r0
  403420:	f7ff b9f9 	b.w	402816 <_svfprintf_r+0x4ba>
  403424:	272d      	movs	r7, #45	; 0x2d
  403426:	2300      	movs	r3, #0
  403428:	f88d 7077 	strb.w	r7, [sp, #119]	; 0x77
  40342c:	930a      	str	r3, [sp, #40]	; 0x28
  40342e:	f7ff b8ae 	b.w	40258e <_svfprintf_r+0x232>
  403432:	9b1f      	ldr	r3, [sp, #124]	; 0x7c
  403434:	9312      	str	r3, [sp, #72]	; 0x48
  403436:	461a      	mov	r2, r3
  403438:	3303      	adds	r3, #3
  40343a:	db04      	blt.n	403446 <_svfprintf_r+0x10ea>
  40343c:	9b0a      	ldr	r3, [sp, #40]	; 0x28
  40343e:	4619      	mov	r1, r3
  403440:	4291      	cmp	r1, r2
  403442:	f6bf af17 	bge.w	403274 <_svfprintf_r+0xf18>
  403446:	9b11      	ldr	r3, [sp, #68]	; 0x44
  403448:	3b02      	subs	r3, #2
  40344a:	9311      	str	r3, [sp, #68]	; 0x44
  40344c:	f89d 3044 	ldrb.w	r3, [sp, #68]	; 0x44
  403450:	f88d 3084 	strb.w	r3, [sp, #132]	; 0x84
  403454:	9b12      	ldr	r3, [sp, #72]	; 0x48
  403456:	3b01      	subs	r3, #1
  403458:	2b00      	cmp	r3, #0
  40345a:	931f      	str	r3, [sp, #124]	; 0x7c
  40345c:	bfbd      	ittte	lt
  40345e:	9b12      	ldrlt	r3, [sp, #72]	; 0x48
  403460:	f1c3 0301 	rsblt	r3, r3, #1
  403464:	222d      	movlt	r2, #45	; 0x2d
  403466:	222b      	movge	r2, #43	; 0x2b
  403468:	2b09      	cmp	r3, #9
  40346a:	f88d 2085 	strb.w	r2, [sp, #133]	; 0x85
  40346e:	f340 8116 	ble.w	40369e <_svfprintf_r+0x1342>
  403472:	f10d 0493 	add.w	r4, sp, #147	; 0x93
  403476:	4620      	mov	r0, r4
  403478:	4dab      	ldr	r5, [pc, #684]	; (403728 <_svfprintf_r+0x13cc>)
  40347a:	e000      	b.n	40347e <_svfprintf_r+0x1122>
  40347c:	4610      	mov	r0, r2
  40347e:	fb85 1203 	smull	r1, r2, r5, r3
  403482:	17d9      	asrs	r1, r3, #31
  403484:	ebc1 01a2 	rsb	r1, r1, r2, asr #2
  403488:	eb01 0281 	add.w	r2, r1, r1, lsl #2
  40348c:	eba3 0242 	sub.w	r2, r3, r2, lsl #1
  403490:	3230      	adds	r2, #48	; 0x30
  403492:	2909      	cmp	r1, #9
  403494:	f800 2c01 	strb.w	r2, [r0, #-1]
  403498:	460b      	mov	r3, r1
  40349a:	f100 32ff 	add.w	r2, r0, #4294967295
  40349e:	dced      	bgt.n	40347c <_svfprintf_r+0x1120>
  4034a0:	3330      	adds	r3, #48	; 0x30
  4034a2:	3802      	subs	r0, #2
  4034a4:	b2d9      	uxtb	r1, r3
  4034a6:	4284      	cmp	r4, r0
  4034a8:	f802 1c01 	strb.w	r1, [r2, #-1]
  4034ac:	f240 8165 	bls.w	40377a <_svfprintf_r+0x141e>
  4034b0:	f10d 0086 	add.w	r0, sp, #134	; 0x86
  4034b4:	4613      	mov	r3, r2
  4034b6:	e001      	b.n	4034bc <_svfprintf_r+0x1160>
  4034b8:	f813 1b01 	ldrb.w	r1, [r3], #1
  4034bc:	f800 1b01 	strb.w	r1, [r0], #1
  4034c0:	42a3      	cmp	r3, r4
  4034c2:	d1f9      	bne.n	4034b8 <_svfprintf_r+0x115c>
  4034c4:	3301      	adds	r3, #1
  4034c6:	1a9b      	subs	r3, r3, r2
  4034c8:	f10d 0286 	add.w	r2, sp, #134	; 0x86
  4034cc:	4413      	add	r3, r2
  4034ce:	aa21      	add	r2, sp, #132	; 0x84
  4034d0:	1a9b      	subs	r3, r3, r2
  4034d2:	9a13      	ldr	r2, [sp, #76]	; 0x4c
  4034d4:	931b      	str	r3, [sp, #108]	; 0x6c
  4034d6:	2a01      	cmp	r2, #1
  4034d8:	4413      	add	r3, r2
  4034da:	930e      	str	r3, [sp, #56]	; 0x38
  4034dc:	f340 8119 	ble.w	403712 <_svfprintf_r+0x13b6>
  4034e0:	9b0e      	ldr	r3, [sp, #56]	; 0x38
  4034e2:	9a19      	ldr	r2, [sp, #100]	; 0x64
  4034e4:	4413      	add	r3, r2
  4034e6:	930e      	str	r3, [sp, #56]	; 0x38
  4034e8:	ea23 73e3 	bic.w	r3, r3, r3, asr #31
  4034ec:	9308      	str	r3, [sp, #32]
  4034ee:	2300      	movs	r3, #0
  4034f0:	9312      	str	r3, [sp, #72]	; 0x48
  4034f2:	e6cf      	b.n	403294 <_svfprintf_r+0xf38>
  4034f4:	aa25      	add	r2, sp, #148	; 0x94
  4034f6:	990b      	ldr	r1, [sp, #44]	; 0x2c
  4034f8:	980c      	ldr	r0, [sp, #48]	; 0x30
  4034fa:	f003 fec1 	bl	407280 <__ssprint_r>
  4034fe:	2800      	cmp	r0, #0
  403500:	f47e affe 	bne.w	402500 <_svfprintf_r+0x1a4>
  403504:	9c27      	ldr	r4, [sp, #156]	; 0x9c
  403506:	46c8      	mov	r8, r9
  403508:	e4d7      	b.n	402eba <_svfprintf_r+0xb5e>
  40350a:	4623      	mov	r3, r4
  40350c:	e6a2      	b.n	403254 <_svfprintf_r+0xef8>
  40350e:	aa25      	add	r2, sp, #148	; 0x94
  403510:	990b      	ldr	r1, [sp, #44]	; 0x2c
  403512:	980c      	ldr	r0, [sp, #48]	; 0x30
  403514:	f003 feb4 	bl	407280 <__ssprint_r>
  403518:	2800      	cmp	r0, #0
  40351a:	f47e aff1 	bne.w	402500 <_svfprintf_r+0x1a4>
  40351e:	9a1f      	ldr	r2, [sp, #124]	; 0x7c
  403520:	9c27      	ldr	r4, [sp, #156]	; 0x9c
  403522:	46c8      	mov	r8, r9
  403524:	e5ae      	b.n	403084 <_svfprintf_r+0xd28>
  403526:	aa25      	add	r2, sp, #148	; 0x94
  403528:	990b      	ldr	r1, [sp, #44]	; 0x2c
  40352a:	980c      	ldr	r0, [sp, #48]	; 0x30
  40352c:	f003 fea8 	bl	407280 <__ssprint_r>
  403530:	2800      	cmp	r0, #0
  403532:	f47e afe5 	bne.w	402500 <_svfprintf_r+0x1a4>
  403536:	9a1f      	ldr	r2, [sp, #124]	; 0x7c
  403538:	9b13      	ldr	r3, [sp, #76]	; 0x4c
  40353a:	9c27      	ldr	r4, [sp, #156]	; 0x9c
  40353c:	1a9a      	subs	r2, r3, r2
  40353e:	46c8      	mov	r8, r9
  403540:	e5b8      	b.n	4030b4 <_svfprintf_r+0xd58>
  403542:	9b0a      	ldr	r3, [sp, #40]	; 0x28
  403544:	9612      	str	r6, [sp, #72]	; 0x48
  403546:	2b06      	cmp	r3, #6
  403548:	bf28      	it	cs
  40354a:	2306      	movcs	r3, #6
  40354c:	960a      	str	r6, [sp, #40]	; 0x28
  40354e:	4637      	mov	r7, r6
  403550:	9308      	str	r3, [sp, #32]
  403552:	950f      	str	r5, [sp, #60]	; 0x3c
  403554:	f8cd b01c 	str.w	fp, [sp, #28]
  403558:	930e      	str	r3, [sp, #56]	; 0x38
  40355a:	4e74      	ldr	r6, [pc, #464]	; (40372c <_svfprintf_r+0x13d0>)
  40355c:	f7ff b816 	b.w	40258c <_svfprintf_r+0x230>
  403560:	a823      	add	r0, sp, #140	; 0x8c
  403562:	a920      	add	r1, sp, #128	; 0x80
  403564:	9d0a      	ldr	r5, [sp, #40]	; 0x28
  403566:	9004      	str	r0, [sp, #16]
  403568:	9103      	str	r1, [sp, #12]
  40356a:	a81f      	add	r0, sp, #124	; 0x7c
  40356c:	2103      	movs	r1, #3
  40356e:	9002      	str	r0, [sp, #8]
  403570:	9a08      	ldr	r2, [sp, #32]
  403572:	9501      	str	r5, [sp, #4]
  403574:	463b      	mov	r3, r7
  403576:	9100      	str	r1, [sp, #0]
  403578:	980c      	ldr	r0, [sp, #48]	; 0x30
  40357a:	f001 f8f1 	bl	404760 <_dtoa_r>
  40357e:	4606      	mov	r6, r0
  403580:	1944      	adds	r4, r0, r5
  403582:	e72b      	b.n	4033dc <_svfprintf_r+0x1080>
  403584:	2306      	movs	r3, #6
  403586:	930a      	str	r3, [sp, #40]	; 0x28
  403588:	e61d      	b.n	4031c6 <_svfprintf_r+0xe6a>
  40358a:	272d      	movs	r7, #45	; 0x2d
  40358c:	f88d 7077 	strb.w	r7, [sp, #119]	; 0x77
  403590:	f7ff bacd 	b.w	402b2e <_svfprintf_r+0x7d2>
  403594:	9a19      	ldr	r2, [sp, #100]	; 0x64
  403596:	9b13      	ldr	r3, [sp, #76]	; 0x4c
  403598:	4413      	add	r3, r2
  40359a:	9a12      	ldr	r2, [sp, #72]	; 0x48
  40359c:	930e      	str	r3, [sp, #56]	; 0x38
  40359e:	2a00      	cmp	r2, #0
  4035a0:	f340 80b0 	ble.w	403704 <_svfprintf_r+0x13a8>
  4035a4:	ea23 73e3 	bic.w	r3, r3, r3, asr #31
  4035a8:	9308      	str	r3, [sp, #32]
  4035aa:	2367      	movs	r3, #103	; 0x67
  4035ac:	9311      	str	r3, [sp, #68]	; 0x44
  4035ae:	e671      	b.n	403294 <_svfprintf_r+0xf38>
  4035b0:	2b00      	cmp	r3, #0
  4035b2:	f340 80c3 	ble.w	40373c <_svfprintf_r+0x13e0>
  4035b6:	9a0a      	ldr	r2, [sp, #40]	; 0x28
  4035b8:	2a00      	cmp	r2, #0
  4035ba:	f040 8099 	bne.w	4036f0 <_svfprintf_r+0x1394>
  4035be:	f01b 0f01 	tst.w	fp, #1
  4035c2:	f040 8095 	bne.w	4036f0 <_svfprintf_r+0x1394>
  4035c6:	9308      	str	r3, [sp, #32]
  4035c8:	930e      	str	r3, [sp, #56]	; 0x38
  4035ca:	e663      	b.n	403294 <_svfprintf_r+0xf38>
  4035cc:	9b0a      	ldr	r3, [sp, #40]	; 0x28
  4035ce:	9308      	str	r3, [sp, #32]
  4035d0:	930e      	str	r3, [sp, #56]	; 0x38
  4035d2:	900a      	str	r0, [sp, #40]	; 0x28
  4035d4:	950f      	str	r5, [sp, #60]	; 0x3c
  4035d6:	f8cd b01c 	str.w	fp, [sp, #28]
  4035da:	9012      	str	r0, [sp, #72]	; 0x48
  4035dc:	f89d 7077 	ldrb.w	r7, [sp, #119]	; 0x77
  4035e0:	f7fe bfd4 	b.w	40258c <_svfprintf_r+0x230>
  4035e4:	9b11      	ldr	r3, [sp, #68]	; 0x44
  4035e6:	2b47      	cmp	r3, #71	; 0x47
  4035e8:	f47f ae20 	bne.w	40322c <_svfprintf_r+0xed0>
  4035ec:	f01b 0f01 	tst.w	fp, #1
  4035f0:	f47f aeee 	bne.w	4033d0 <_svfprintf_r+0x1074>
  4035f4:	9b23      	ldr	r3, [sp, #140]	; 0x8c
  4035f6:	1b9b      	subs	r3, r3, r6
  4035f8:	9313      	str	r3, [sp, #76]	; 0x4c
  4035fa:	9b0e      	ldr	r3, [sp, #56]	; 0x38
  4035fc:	2b47      	cmp	r3, #71	; 0x47
  4035fe:	f43f af18 	beq.w	403432 <_svfprintf_r+0x10d6>
  403602:	9b1f      	ldr	r3, [sp, #124]	; 0x7c
  403604:	9312      	str	r3, [sp, #72]	; 0x48
  403606:	e721      	b.n	40344c <_svfprintf_r+0x10f0>
  403608:	424f      	negs	r7, r1
  40360a:	3110      	adds	r1, #16
  40360c:	4d48      	ldr	r5, [pc, #288]	; (403730 <_svfprintf_r+0x13d4>)
  40360e:	da2f      	bge.n	403670 <_svfprintf_r+0x1314>
  403610:	2410      	movs	r4, #16
  403612:	f8dd b030 	ldr.w	fp, [sp, #48]	; 0x30
  403616:	e004      	b.n	403622 <_svfprintf_r+0x12c6>
  403618:	f108 0808 	add.w	r8, r8, #8
  40361c:	3f10      	subs	r7, #16
  40361e:	2f10      	cmp	r7, #16
  403620:	dd26      	ble.n	403670 <_svfprintf_r+0x1314>
  403622:	3301      	adds	r3, #1
  403624:	3210      	adds	r2, #16
  403626:	2b07      	cmp	r3, #7
  403628:	9227      	str	r2, [sp, #156]	; 0x9c
  40362a:	9326      	str	r3, [sp, #152]	; 0x98
  40362c:	f8c8 5000 	str.w	r5, [r8]
  403630:	f8c8 4004 	str.w	r4, [r8, #4]
  403634:	ddf0      	ble.n	403618 <_svfprintf_r+0x12bc>
  403636:	aa25      	add	r2, sp, #148	; 0x94
  403638:	990b      	ldr	r1, [sp, #44]	; 0x2c
  40363a:	4658      	mov	r0, fp
  40363c:	f003 fe20 	bl	407280 <__ssprint_r>
  403640:	2800      	cmp	r0, #0
  403642:	f47e af5d 	bne.w	402500 <_svfprintf_r+0x1a4>
  403646:	9a27      	ldr	r2, [sp, #156]	; 0x9c
  403648:	9b26      	ldr	r3, [sp, #152]	; 0x98
  40364a:	46c8      	mov	r8, r9
  40364c:	e7e6      	b.n	40361c <_svfprintf_r+0x12c0>
  40364e:	aa25      	add	r2, sp, #148	; 0x94
  403650:	990b      	ldr	r1, [sp, #44]	; 0x2c
  403652:	980c      	ldr	r0, [sp, #48]	; 0x30
  403654:	f003 fe14 	bl	407280 <__ssprint_r>
  403658:	2800      	cmp	r0, #0
  40365a:	f47e af51 	bne.w	402500 <_svfprintf_r+0x1a4>
  40365e:	991f      	ldr	r1, [sp, #124]	; 0x7c
  403660:	9a27      	ldr	r2, [sp, #156]	; 0x9c
  403662:	9b26      	ldr	r3, [sp, #152]	; 0x98
  403664:	46c8      	mov	r8, r9
  403666:	e667      	b.n	403338 <_svfprintf_r+0xfdc>
  403668:	2000      	movs	r0, #0
  40366a:	900a      	str	r0, [sp, #40]	; 0x28
  40366c:	f7fe bed0 	b.w	402410 <_svfprintf_r+0xb4>
  403670:	3301      	adds	r3, #1
  403672:	443a      	add	r2, r7
  403674:	2b07      	cmp	r3, #7
  403676:	e888 00a0 	stmia.w	r8, {r5, r7}
  40367a:	9227      	str	r2, [sp, #156]	; 0x9c
  40367c:	9326      	str	r3, [sp, #152]	; 0x98
  40367e:	f108 0808 	add.w	r8, r8, #8
  403682:	f77f ae5c 	ble.w	40333e <_svfprintf_r+0xfe2>
  403686:	aa25      	add	r2, sp, #148	; 0x94
  403688:	990b      	ldr	r1, [sp, #44]	; 0x2c
  40368a:	980c      	ldr	r0, [sp, #48]	; 0x30
  40368c:	f003 fdf8 	bl	407280 <__ssprint_r>
  403690:	2800      	cmp	r0, #0
  403692:	f47e af35 	bne.w	402500 <_svfprintf_r+0x1a4>
  403696:	9a27      	ldr	r2, [sp, #156]	; 0x9c
  403698:	9b26      	ldr	r3, [sp, #152]	; 0x98
  40369a:	46c8      	mov	r8, r9
  40369c:	e64f      	b.n	40333e <_svfprintf_r+0xfe2>
  40369e:	3330      	adds	r3, #48	; 0x30
  4036a0:	2230      	movs	r2, #48	; 0x30
  4036a2:	f88d 3087 	strb.w	r3, [sp, #135]	; 0x87
  4036a6:	f88d 2086 	strb.w	r2, [sp, #134]	; 0x86
  4036aa:	ab22      	add	r3, sp, #136	; 0x88
  4036ac:	e70f      	b.n	4034ce <_svfprintf_r+0x1172>
  4036ae:	9b12      	ldr	r3, [sp, #72]	; 0x48
  4036b0:	9a19      	ldr	r2, [sp, #100]	; 0x64
  4036b2:	4413      	add	r3, r2
  4036b4:	930e      	str	r3, [sp, #56]	; 0x38
  4036b6:	e775      	b.n	4035a4 <_svfprintf_r+0x1248>
  4036b8:	9b23      	ldr	r3, [sp, #140]	; 0x8c
  4036ba:	e5cb      	b.n	403254 <_svfprintf_r+0xef8>
  4036bc:	9b14      	ldr	r3, [sp, #80]	; 0x50
  4036be:	4e1d      	ldr	r6, [pc, #116]	; (403734 <_svfprintf_r+0x13d8>)
  4036c0:	2b00      	cmp	r3, #0
  4036c2:	bfb6      	itet	lt
  4036c4:	272d      	movlt	r7, #45	; 0x2d
  4036c6:	f89d 7077 	ldrbge.w	r7, [sp, #119]	; 0x77
  4036ca:	f88d 7077 	strblt.w	r7, [sp, #119]	; 0x77
  4036ce:	4b1a      	ldr	r3, [pc, #104]	; (403738 <_svfprintf_r+0x13dc>)
  4036d0:	f7ff ba2f 	b.w	402b32 <_svfprintf_r+0x7d6>
  4036d4:	9a16      	ldr	r2, [sp, #88]	; 0x58
  4036d6:	9808      	ldr	r0, [sp, #32]
  4036d8:	9b17      	ldr	r3, [sp, #92]	; 0x5c
  4036da:	4639      	mov	r1, r7
  4036dc:	f004 fc6c 	bl	407fb8 <__aeabi_dcmpeq>
  4036e0:	2800      	cmp	r0, #0
  4036e2:	f47f ae7f 	bne.w	4033e4 <_svfprintf_r+0x1088>
  4036e6:	f1c5 0501 	rsb	r5, r5, #1
  4036ea:	951f      	str	r5, [sp, #124]	; 0x7c
  4036ec:	442c      	add	r4, r5
  4036ee:	e59e      	b.n	40322e <_svfprintf_r+0xed2>
  4036f0:	9b12      	ldr	r3, [sp, #72]	; 0x48
  4036f2:	9a19      	ldr	r2, [sp, #100]	; 0x64
  4036f4:	4413      	add	r3, r2
  4036f6:	9a0a      	ldr	r2, [sp, #40]	; 0x28
  4036f8:	441a      	add	r2, r3
  4036fa:	ea22 73e2 	bic.w	r3, r2, r2, asr #31
  4036fe:	920e      	str	r2, [sp, #56]	; 0x38
  403700:	9308      	str	r3, [sp, #32]
  403702:	e5c7      	b.n	403294 <_svfprintf_r+0xf38>
  403704:	9b12      	ldr	r3, [sp, #72]	; 0x48
  403706:	9a0e      	ldr	r2, [sp, #56]	; 0x38
  403708:	f1c3 0301 	rsb	r3, r3, #1
  40370c:	441a      	add	r2, r3
  40370e:	4613      	mov	r3, r2
  403710:	e7d0      	b.n	4036b4 <_svfprintf_r+0x1358>
  403712:	f01b 0301 	ands.w	r3, fp, #1
  403716:	9312      	str	r3, [sp, #72]	; 0x48
  403718:	f47f aee2 	bne.w	4034e0 <_svfprintf_r+0x1184>
  40371c:	9b0e      	ldr	r3, [sp, #56]	; 0x38
  40371e:	ea23 73e3 	bic.w	r3, r3, r3, asr #31
  403722:	9308      	str	r3, [sp, #32]
  403724:	e5b6      	b.n	403294 <_svfprintf_r+0xf38>
  403726:	bf00      	nop
  403728:	66666667 	.word	0x66666667
  40372c:	00408cb4 	.word	0x00408cb4
  403730:	00408cd0 	.word	0x00408cd0
  403734:	00408c88 	.word	0x00408c88
  403738:	00408c84 	.word	0x00408c84
  40373c:	9b0a      	ldr	r3, [sp, #40]	; 0x28
  40373e:	b913      	cbnz	r3, 403746 <_svfprintf_r+0x13ea>
  403740:	f01b 0f01 	tst.w	fp, #1
  403744:	d002      	beq.n	40374c <_svfprintf_r+0x13f0>
  403746:	9b19      	ldr	r3, [sp, #100]	; 0x64
  403748:	3301      	adds	r3, #1
  40374a:	e7d4      	b.n	4036f6 <_svfprintf_r+0x139a>
  40374c:	2301      	movs	r3, #1
  40374e:	e73a      	b.n	4035c6 <_svfprintf_r+0x126a>
  403750:	9d0f      	ldr	r5, [sp, #60]	; 0x3c
  403752:	f89a 3001 	ldrb.w	r3, [sl, #1]
  403756:	6828      	ldr	r0, [r5, #0]
  403758:	ea40 70e0 	orr.w	r0, r0, r0, asr #31
  40375c:	900a      	str	r0, [sp, #40]	; 0x28
  40375e:	4628      	mov	r0, r5
  403760:	3004      	adds	r0, #4
  403762:	46a2      	mov	sl, r4
  403764:	900f      	str	r0, [sp, #60]	; 0x3c
  403766:	f7fe be51 	b.w	40240c <_svfprintf_r+0xb0>
  40376a:	f88d 1077 	strb.w	r1, [sp, #119]	; 0x77
  40376e:	f7ff b867 	b.w	402840 <_svfprintf_r+0x4e4>
  403772:	f88d 1077 	strb.w	r1, [sp, #119]	; 0x77
  403776:	f7ff ba15 	b.w	402ba4 <_svfprintf_r+0x848>
  40377a:	f10d 0386 	add.w	r3, sp, #134	; 0x86
  40377e:	e6a6      	b.n	4034ce <_svfprintf_r+0x1172>
  403780:	f88d 1077 	strb.w	r1, [sp, #119]	; 0x77
  403784:	f7ff b8eb 	b.w	40295e <_svfprintf_r+0x602>
  403788:	9a0c      	ldr	r2, [sp, #48]	; 0x30
  40378a:	230c      	movs	r3, #12
  40378c:	6013      	str	r3, [r2, #0]
  40378e:	f04f 33ff 	mov.w	r3, #4294967295
  403792:	9309      	str	r3, [sp, #36]	; 0x24
  403794:	f7fe bebd 	b.w	402512 <_svfprintf_r+0x1b6>
  403798:	f88d 1077 	strb.w	r1, [sp, #119]	; 0x77
  40379c:	f7ff b99a 	b.w	402ad4 <_svfprintf_r+0x778>
  4037a0:	f88d 1077 	strb.w	r1, [sp, #119]	; 0x77
  4037a4:	f7ff b976 	b.w	402a94 <_svfprintf_r+0x738>
  4037a8:	f88d 1077 	strb.w	r1, [sp, #119]	; 0x77
  4037ac:	f7ff b959 	b.w	402a62 <_svfprintf_r+0x706>
  4037b0:	f88d 1077 	strb.w	r1, [sp, #119]	; 0x77
  4037b4:	f7ff b912 	b.w	4029dc <_svfprintf_r+0x680>

004037b8 <__sprint_r.part.0>:
  4037b8:	e92d 4ff8 	stmdb	sp!, {r3, r4, r5, r6, r7, r8, r9, sl, fp, lr}
  4037bc:	6e4b      	ldr	r3, [r1, #100]	; 0x64
  4037be:	049c      	lsls	r4, r3, #18
  4037c0:	4693      	mov	fp, r2
  4037c2:	d52f      	bpl.n	403824 <__sprint_r.part.0+0x6c>
  4037c4:	6893      	ldr	r3, [r2, #8]
  4037c6:	6812      	ldr	r2, [r2, #0]
  4037c8:	b353      	cbz	r3, 403820 <__sprint_r.part.0+0x68>
  4037ca:	460e      	mov	r6, r1
  4037cc:	4607      	mov	r7, r0
  4037ce:	f102 0908 	add.w	r9, r2, #8
  4037d2:	e919 0420 	ldmdb	r9, {r5, sl}
  4037d6:	ea5f 089a 	movs.w	r8, sl, lsr #2
  4037da:	d017      	beq.n	40380c <__sprint_r.part.0+0x54>
  4037dc:	3d04      	subs	r5, #4
  4037de:	2400      	movs	r4, #0
  4037e0:	e001      	b.n	4037e6 <__sprint_r.part.0+0x2e>
  4037e2:	45a0      	cmp	r8, r4
  4037e4:	d010      	beq.n	403808 <__sprint_r.part.0+0x50>
  4037e6:	4632      	mov	r2, r6
  4037e8:	f855 1f04 	ldr.w	r1, [r5, #4]!
  4037ec:	4638      	mov	r0, r7
  4037ee:	f002 f87b 	bl	4058e8 <_fputwc_r>
  4037f2:	1c43      	adds	r3, r0, #1
  4037f4:	f104 0401 	add.w	r4, r4, #1
  4037f8:	d1f3      	bne.n	4037e2 <__sprint_r.part.0+0x2a>
  4037fa:	2300      	movs	r3, #0
  4037fc:	f8cb 3008 	str.w	r3, [fp, #8]
  403800:	f8cb 3004 	str.w	r3, [fp, #4]
  403804:	e8bd 8ff8 	ldmia.w	sp!, {r3, r4, r5, r6, r7, r8, r9, sl, fp, pc}
  403808:	f8db 3008 	ldr.w	r3, [fp, #8]
  40380c:	f02a 0a03 	bic.w	sl, sl, #3
  403810:	eba3 030a 	sub.w	r3, r3, sl
  403814:	f8cb 3008 	str.w	r3, [fp, #8]
  403818:	f109 0908 	add.w	r9, r9, #8
  40381c:	2b00      	cmp	r3, #0
  40381e:	d1d8      	bne.n	4037d2 <__sprint_r.part.0+0x1a>
  403820:	2000      	movs	r0, #0
  403822:	e7ea      	b.n	4037fa <__sprint_r.part.0+0x42>
  403824:	f002 f9ca 	bl	405bbc <__sfvwrite_r>
  403828:	2300      	movs	r3, #0
  40382a:	f8cb 3008 	str.w	r3, [fp, #8]
  40382e:	f8cb 3004 	str.w	r3, [fp, #4]
  403832:	e8bd 8ff8 	ldmia.w	sp!, {r3, r4, r5, r6, r7, r8, r9, sl, fp, pc}
  403836:	bf00      	nop

00403838 <_vfiprintf_r>:
  403838:	e92d 4ff0 	stmdb	sp!, {r4, r5, r6, r7, r8, r9, sl, fp, lr}
  40383c:	b0ad      	sub	sp, #180	; 0xb4
  40383e:	461d      	mov	r5, r3
  403840:	468b      	mov	fp, r1
  403842:	4690      	mov	r8, r2
  403844:	9307      	str	r3, [sp, #28]
  403846:	9006      	str	r0, [sp, #24]
  403848:	b118      	cbz	r0, 403852 <_vfiprintf_r+0x1a>
  40384a:	6b83      	ldr	r3, [r0, #56]	; 0x38
  40384c:	2b00      	cmp	r3, #0
  40384e:	f000 80f3 	beq.w	403a38 <_vfiprintf_r+0x200>
  403852:	f8db 3064 	ldr.w	r3, [fp, #100]	; 0x64
  403856:	f9bb 000c 	ldrsh.w	r0, [fp, #12]
  40385a:	07df      	lsls	r7, r3, #31
  40385c:	b281      	uxth	r1, r0
  40385e:	d402      	bmi.n	403866 <_vfiprintf_r+0x2e>
  403860:	058e      	lsls	r6, r1, #22
  403862:	f140 80fc 	bpl.w	403a5e <_vfiprintf_r+0x226>
  403866:	048c      	lsls	r4, r1, #18
  403868:	d40a      	bmi.n	403880 <_vfiprintf_r+0x48>
  40386a:	f8db 3064 	ldr.w	r3, [fp, #100]	; 0x64
  40386e:	f440 5100 	orr.w	r1, r0, #8192	; 0x2000
  403872:	f423 5300 	bic.w	r3, r3, #8192	; 0x2000
  403876:	f8ab 100c 	strh.w	r1, [fp, #12]
  40387a:	f8cb 3064 	str.w	r3, [fp, #100]	; 0x64
  40387e:	b289      	uxth	r1, r1
  403880:	0708      	lsls	r0, r1, #28
  403882:	f140 80b3 	bpl.w	4039ec <_vfiprintf_r+0x1b4>
  403886:	f8db 3010 	ldr.w	r3, [fp, #16]
  40388a:	2b00      	cmp	r3, #0
  40388c:	f000 80ae 	beq.w	4039ec <_vfiprintf_r+0x1b4>
  403890:	f001 031a 	and.w	r3, r1, #26
  403894:	2b0a      	cmp	r3, #10
  403896:	f000 80b5 	beq.w	403a04 <_vfiprintf_r+0x1cc>
  40389a:	2300      	movs	r3, #0
  40389c:	f10d 0970 	add.w	r9, sp, #112	; 0x70
  4038a0:	930b      	str	r3, [sp, #44]	; 0x2c
  4038a2:	9311      	str	r3, [sp, #68]	; 0x44
  4038a4:	9310      	str	r3, [sp, #64]	; 0x40
  4038a6:	9303      	str	r3, [sp, #12]
  4038a8:	f8cd 903c 	str.w	r9, [sp, #60]	; 0x3c
  4038ac:	46ca      	mov	sl, r9
  4038ae:	f8cd b010 	str.w	fp, [sp, #16]
  4038b2:	f898 3000 	ldrb.w	r3, [r8]
  4038b6:	4644      	mov	r4, r8
  4038b8:	b1fb      	cbz	r3, 4038fa <_vfiprintf_r+0xc2>
  4038ba:	2b25      	cmp	r3, #37	; 0x25
  4038bc:	d102      	bne.n	4038c4 <_vfiprintf_r+0x8c>
  4038be:	e01c      	b.n	4038fa <_vfiprintf_r+0xc2>
  4038c0:	2b25      	cmp	r3, #37	; 0x25
  4038c2:	d003      	beq.n	4038cc <_vfiprintf_r+0x94>
  4038c4:	f814 3f01 	ldrb.w	r3, [r4, #1]!
  4038c8:	2b00      	cmp	r3, #0
  4038ca:	d1f9      	bne.n	4038c0 <_vfiprintf_r+0x88>
  4038cc:	eba4 0508 	sub.w	r5, r4, r8
  4038d0:	b19d      	cbz	r5, 4038fa <_vfiprintf_r+0xc2>
  4038d2:	9b10      	ldr	r3, [sp, #64]	; 0x40
  4038d4:	9a11      	ldr	r2, [sp, #68]	; 0x44
  4038d6:	f8ca 8000 	str.w	r8, [sl]
  4038da:	3301      	adds	r3, #1
  4038dc:	442a      	add	r2, r5
  4038de:	2b07      	cmp	r3, #7
  4038e0:	f8ca 5004 	str.w	r5, [sl, #4]
  4038e4:	9211      	str	r2, [sp, #68]	; 0x44
  4038e6:	9310      	str	r3, [sp, #64]	; 0x40
  4038e8:	dd7a      	ble.n	4039e0 <_vfiprintf_r+0x1a8>
  4038ea:	2a00      	cmp	r2, #0
  4038ec:	f040 84b0 	bne.w	404250 <_vfiprintf_r+0xa18>
  4038f0:	9b03      	ldr	r3, [sp, #12]
  4038f2:	9210      	str	r2, [sp, #64]	; 0x40
  4038f4:	442b      	add	r3, r5
  4038f6:	46ca      	mov	sl, r9
  4038f8:	9303      	str	r3, [sp, #12]
  4038fa:	7823      	ldrb	r3, [r4, #0]
  4038fc:	2b00      	cmp	r3, #0
  4038fe:	f000 83e0 	beq.w	4040c2 <_vfiprintf_r+0x88a>
  403902:	2000      	movs	r0, #0
  403904:	f04f 0300 	mov.w	r3, #0
  403908:	f88d 3037 	strb.w	r3, [sp, #55]	; 0x37
  40390c:	f104 0801 	add.w	r8, r4, #1
  403910:	7862      	ldrb	r2, [r4, #1]
  403912:	4605      	mov	r5, r0
  403914:	4606      	mov	r6, r0
  403916:	4603      	mov	r3, r0
  403918:	f04f 34ff 	mov.w	r4, #4294967295
  40391c:	f108 0801 	add.w	r8, r8, #1
  403920:	f1a2 0120 	sub.w	r1, r2, #32
  403924:	2958      	cmp	r1, #88	; 0x58
  403926:	f200 82de 	bhi.w	403ee6 <_vfiprintf_r+0x6ae>
  40392a:	e8df f011 	tbh	[pc, r1, lsl #1]
  40392e:	0221      	.short	0x0221
  403930:	02dc02dc 	.word	0x02dc02dc
  403934:	02dc0229 	.word	0x02dc0229
  403938:	02dc02dc 	.word	0x02dc02dc
  40393c:	02dc02dc 	.word	0x02dc02dc
  403940:	028902dc 	.word	0x028902dc
  403944:	02dc0295 	.word	0x02dc0295
  403948:	02bd00a2 	.word	0x02bd00a2
  40394c:	019f02dc 	.word	0x019f02dc
  403950:	01a401a4 	.word	0x01a401a4
  403954:	01a401a4 	.word	0x01a401a4
  403958:	01a401a4 	.word	0x01a401a4
  40395c:	01a401a4 	.word	0x01a401a4
  403960:	02dc01a4 	.word	0x02dc01a4
  403964:	02dc02dc 	.word	0x02dc02dc
  403968:	02dc02dc 	.word	0x02dc02dc
  40396c:	02dc02dc 	.word	0x02dc02dc
  403970:	02dc02dc 	.word	0x02dc02dc
  403974:	01b202dc 	.word	0x01b202dc
  403978:	02dc02dc 	.word	0x02dc02dc
  40397c:	02dc02dc 	.word	0x02dc02dc
  403980:	02dc02dc 	.word	0x02dc02dc
  403984:	02dc02dc 	.word	0x02dc02dc
  403988:	02dc02dc 	.word	0x02dc02dc
  40398c:	02dc0197 	.word	0x02dc0197
  403990:	02dc02dc 	.word	0x02dc02dc
  403994:	02dc02dc 	.word	0x02dc02dc
  403998:	02dc019b 	.word	0x02dc019b
  40399c:	025302dc 	.word	0x025302dc
  4039a0:	02dc02dc 	.word	0x02dc02dc
  4039a4:	02dc02dc 	.word	0x02dc02dc
  4039a8:	02dc02dc 	.word	0x02dc02dc
  4039ac:	02dc02dc 	.word	0x02dc02dc
  4039b0:	02dc02dc 	.word	0x02dc02dc
  4039b4:	021b025a 	.word	0x021b025a
  4039b8:	02dc02dc 	.word	0x02dc02dc
  4039bc:	026e02dc 	.word	0x026e02dc
  4039c0:	02dc021b 	.word	0x02dc021b
  4039c4:	027302dc 	.word	0x027302dc
  4039c8:	01f502dc 	.word	0x01f502dc
  4039cc:	02090182 	.word	0x02090182
  4039d0:	02dc02d7 	.word	0x02dc02d7
  4039d4:	02dc029a 	.word	0x02dc029a
  4039d8:	02dc00a7 	.word	0x02dc00a7
  4039dc:	022e02dc 	.word	0x022e02dc
  4039e0:	f10a 0a08 	add.w	sl, sl, #8
  4039e4:	9b03      	ldr	r3, [sp, #12]
  4039e6:	442b      	add	r3, r5
  4039e8:	9303      	str	r3, [sp, #12]
  4039ea:	e786      	b.n	4038fa <_vfiprintf_r+0xc2>
  4039ec:	4659      	mov	r1, fp
  4039ee:	9806      	ldr	r0, [sp, #24]
  4039f0:	f000 fdac 	bl	40454c <__swsetup_r>
  4039f4:	bb18      	cbnz	r0, 403a3e <_vfiprintf_r+0x206>
  4039f6:	f8bb 100c 	ldrh.w	r1, [fp, #12]
  4039fa:	f001 031a 	and.w	r3, r1, #26
  4039fe:	2b0a      	cmp	r3, #10
  403a00:	f47f af4b 	bne.w	40389a <_vfiprintf_r+0x62>
  403a04:	f9bb 300e 	ldrsh.w	r3, [fp, #14]
  403a08:	2b00      	cmp	r3, #0
  403a0a:	f6ff af46 	blt.w	40389a <_vfiprintf_r+0x62>
  403a0e:	f8db 3064 	ldr.w	r3, [fp, #100]	; 0x64
  403a12:	07db      	lsls	r3, r3, #31
  403a14:	d405      	bmi.n	403a22 <_vfiprintf_r+0x1ea>
  403a16:	058f      	lsls	r7, r1, #22
  403a18:	d403      	bmi.n	403a22 <_vfiprintf_r+0x1ea>
  403a1a:	f8db 0058 	ldr.w	r0, [fp, #88]	; 0x58
  403a1e:	f002 fa91 	bl	405f44 <__retarget_lock_release_recursive>
  403a22:	462b      	mov	r3, r5
  403a24:	4642      	mov	r2, r8
  403a26:	4659      	mov	r1, fp
  403a28:	9806      	ldr	r0, [sp, #24]
  403a2a:	f000 fd4d 	bl	4044c8 <__sbprintf>
  403a2e:	9003      	str	r0, [sp, #12]
  403a30:	9803      	ldr	r0, [sp, #12]
  403a32:	b02d      	add	sp, #180	; 0xb4
  403a34:	e8bd 8ff0 	ldmia.w	sp!, {r4, r5, r6, r7, r8, r9, sl, fp, pc}
  403a38:	f001 feb4 	bl	4057a4 <__sinit>
  403a3c:	e709      	b.n	403852 <_vfiprintf_r+0x1a>
  403a3e:	f8db 3064 	ldr.w	r3, [fp, #100]	; 0x64
  403a42:	07d9      	lsls	r1, r3, #31
  403a44:	d404      	bmi.n	403a50 <_vfiprintf_r+0x218>
  403a46:	f8bb 300c 	ldrh.w	r3, [fp, #12]
  403a4a:	059a      	lsls	r2, r3, #22
  403a4c:	f140 84aa 	bpl.w	4043a4 <_vfiprintf_r+0xb6c>
  403a50:	f04f 33ff 	mov.w	r3, #4294967295
  403a54:	9303      	str	r3, [sp, #12]
  403a56:	9803      	ldr	r0, [sp, #12]
  403a58:	b02d      	add	sp, #180	; 0xb4
  403a5a:	e8bd 8ff0 	ldmia.w	sp!, {r4, r5, r6, r7, r8, r9, sl, fp, pc}
  403a5e:	f8db 0058 	ldr.w	r0, [fp, #88]	; 0x58
  403a62:	f002 fa6d 	bl	405f40 <__retarget_lock_acquire_recursive>
  403a66:	f9bb 000c 	ldrsh.w	r0, [fp, #12]
  403a6a:	b281      	uxth	r1, r0
  403a6c:	e6fb      	b.n	403866 <_vfiprintf_r+0x2e>
  403a6e:	4276      	negs	r6, r6
  403a70:	9207      	str	r2, [sp, #28]
  403a72:	f043 0304 	orr.w	r3, r3, #4
  403a76:	f898 2000 	ldrb.w	r2, [r8]
  403a7a:	e74f      	b.n	40391c <_vfiprintf_r+0xe4>
  403a7c:	9608      	str	r6, [sp, #32]
  403a7e:	069e      	lsls	r6, r3, #26
  403a80:	f100 8450 	bmi.w	404324 <_vfiprintf_r+0xaec>
  403a84:	9907      	ldr	r1, [sp, #28]
  403a86:	06dd      	lsls	r5, r3, #27
  403a88:	460a      	mov	r2, r1
  403a8a:	f100 83ef 	bmi.w	40426c <_vfiprintf_r+0xa34>
  403a8e:	0658      	lsls	r0, r3, #25
  403a90:	f140 83ec 	bpl.w	40426c <_vfiprintf_r+0xa34>
  403a94:	880e      	ldrh	r6, [r1, #0]
  403a96:	3104      	adds	r1, #4
  403a98:	2700      	movs	r7, #0
  403a9a:	2201      	movs	r2, #1
  403a9c:	9107      	str	r1, [sp, #28]
  403a9e:	f04f 0100 	mov.w	r1, #0
  403aa2:	f88d 1037 	strb.w	r1, [sp, #55]	; 0x37
  403aa6:	2500      	movs	r5, #0
  403aa8:	1c61      	adds	r1, r4, #1
  403aaa:	f000 8116 	beq.w	403cda <_vfiprintf_r+0x4a2>
  403aae:	f023 0180 	bic.w	r1, r3, #128	; 0x80
  403ab2:	9102      	str	r1, [sp, #8]
  403ab4:	ea56 0107 	orrs.w	r1, r6, r7
  403ab8:	f040 8114 	bne.w	403ce4 <_vfiprintf_r+0x4ac>
  403abc:	2c00      	cmp	r4, #0
  403abe:	f040 835c 	bne.w	40417a <_vfiprintf_r+0x942>
  403ac2:	2a00      	cmp	r2, #0
  403ac4:	f040 83b7 	bne.w	404236 <_vfiprintf_r+0x9fe>
  403ac8:	f013 0301 	ands.w	r3, r3, #1
  403acc:	9305      	str	r3, [sp, #20]
  403ace:	f000 8457 	beq.w	404380 <_vfiprintf_r+0xb48>
  403ad2:	f10d 0bb0 	add.w	fp, sp, #176	; 0xb0
  403ad6:	2330      	movs	r3, #48	; 0x30
  403ad8:	f80b 3d41 	strb.w	r3, [fp, #-65]!
  403adc:	9b05      	ldr	r3, [sp, #20]
  403ade:	42a3      	cmp	r3, r4
  403ae0:	bfb8      	it	lt
  403ae2:	4623      	movlt	r3, r4
  403ae4:	9301      	str	r3, [sp, #4]
  403ae6:	b10d      	cbz	r5, 403aec <_vfiprintf_r+0x2b4>
  403ae8:	3301      	adds	r3, #1
  403aea:	9301      	str	r3, [sp, #4]
  403aec:	9b02      	ldr	r3, [sp, #8]
  403aee:	f013 0302 	ands.w	r3, r3, #2
  403af2:	9309      	str	r3, [sp, #36]	; 0x24
  403af4:	d002      	beq.n	403afc <_vfiprintf_r+0x2c4>
  403af6:	9b01      	ldr	r3, [sp, #4]
  403af8:	3302      	adds	r3, #2
  403afa:	9301      	str	r3, [sp, #4]
  403afc:	9b02      	ldr	r3, [sp, #8]
  403afe:	f013 0384 	ands.w	r3, r3, #132	; 0x84
  403b02:	930a      	str	r3, [sp, #40]	; 0x28
  403b04:	f040 8217 	bne.w	403f36 <_vfiprintf_r+0x6fe>
  403b08:	9b08      	ldr	r3, [sp, #32]
  403b0a:	9a01      	ldr	r2, [sp, #4]
  403b0c:	1a9d      	subs	r5, r3, r2
  403b0e:	2d00      	cmp	r5, #0
  403b10:	f340 8211 	ble.w	403f36 <_vfiprintf_r+0x6fe>
  403b14:	2d10      	cmp	r5, #16
  403b16:	f340 8490 	ble.w	40443a <_vfiprintf_r+0xc02>
  403b1a:	9b10      	ldr	r3, [sp, #64]	; 0x40
  403b1c:	9a11      	ldr	r2, [sp, #68]	; 0x44
  403b1e:	4ec4      	ldr	r6, [pc, #784]	; (403e30 <_vfiprintf_r+0x5f8>)
  403b20:	46d6      	mov	lr, sl
  403b22:	2710      	movs	r7, #16
  403b24:	46a2      	mov	sl, r4
  403b26:	4619      	mov	r1, r3
  403b28:	9c06      	ldr	r4, [sp, #24]
  403b2a:	e007      	b.n	403b3c <_vfiprintf_r+0x304>
  403b2c:	f101 0c02 	add.w	ip, r1, #2
  403b30:	f10e 0e08 	add.w	lr, lr, #8
  403b34:	4601      	mov	r1, r0
  403b36:	3d10      	subs	r5, #16
  403b38:	2d10      	cmp	r5, #16
  403b3a:	dd11      	ble.n	403b60 <_vfiprintf_r+0x328>
  403b3c:	1c48      	adds	r0, r1, #1
  403b3e:	3210      	adds	r2, #16
  403b40:	2807      	cmp	r0, #7
  403b42:	9211      	str	r2, [sp, #68]	; 0x44
  403b44:	e88e 00c0 	stmia.w	lr, {r6, r7}
  403b48:	9010      	str	r0, [sp, #64]	; 0x40
  403b4a:	ddef      	ble.n	403b2c <_vfiprintf_r+0x2f4>
  403b4c:	2a00      	cmp	r2, #0
  403b4e:	f040 81e4 	bne.w	403f1a <_vfiprintf_r+0x6e2>
  403b52:	3d10      	subs	r5, #16
  403b54:	2d10      	cmp	r5, #16
  403b56:	4611      	mov	r1, r2
  403b58:	f04f 0c01 	mov.w	ip, #1
  403b5c:	46ce      	mov	lr, r9
  403b5e:	dced      	bgt.n	403b3c <_vfiprintf_r+0x304>
  403b60:	4654      	mov	r4, sl
  403b62:	4661      	mov	r1, ip
  403b64:	46f2      	mov	sl, lr
  403b66:	442a      	add	r2, r5
  403b68:	2907      	cmp	r1, #7
  403b6a:	9211      	str	r2, [sp, #68]	; 0x44
  403b6c:	f8ca 6000 	str.w	r6, [sl]
  403b70:	f8ca 5004 	str.w	r5, [sl, #4]
  403b74:	9110      	str	r1, [sp, #64]	; 0x40
  403b76:	f300 82ec 	bgt.w	404152 <_vfiprintf_r+0x91a>
  403b7a:	f89d 5037 	ldrb.w	r5, [sp, #55]	; 0x37
  403b7e:	f10a 0a08 	add.w	sl, sl, #8
  403b82:	1c48      	adds	r0, r1, #1
  403b84:	2d00      	cmp	r5, #0
  403b86:	f040 81de 	bne.w	403f46 <_vfiprintf_r+0x70e>
  403b8a:	9b09      	ldr	r3, [sp, #36]	; 0x24
  403b8c:	2b00      	cmp	r3, #0
  403b8e:	f000 81f8 	beq.w	403f82 <_vfiprintf_r+0x74a>
  403b92:	3202      	adds	r2, #2
  403b94:	a90e      	add	r1, sp, #56	; 0x38
  403b96:	2302      	movs	r3, #2
  403b98:	2807      	cmp	r0, #7
  403b9a:	9211      	str	r2, [sp, #68]	; 0x44
  403b9c:	9010      	str	r0, [sp, #64]	; 0x40
  403b9e:	e88a 000a 	stmia.w	sl, {r1, r3}
  403ba2:	f340 81ea 	ble.w	403f7a <_vfiprintf_r+0x742>
  403ba6:	2a00      	cmp	r2, #0
  403ba8:	f040 838c 	bne.w	4042c4 <_vfiprintf_r+0xa8c>
  403bac:	9b0a      	ldr	r3, [sp, #40]	; 0x28
  403bae:	2b80      	cmp	r3, #128	; 0x80
  403bb0:	f04f 0001 	mov.w	r0, #1
  403bb4:	4611      	mov	r1, r2
  403bb6:	46ca      	mov	sl, r9
  403bb8:	f040 81e7 	bne.w	403f8a <_vfiprintf_r+0x752>
  403bbc:	9b08      	ldr	r3, [sp, #32]
  403bbe:	9d01      	ldr	r5, [sp, #4]
  403bc0:	1b5e      	subs	r6, r3, r5
  403bc2:	2e00      	cmp	r6, #0
  403bc4:	f340 81e1 	ble.w	403f8a <_vfiprintf_r+0x752>
  403bc8:	2e10      	cmp	r6, #16
  403bca:	4d9a      	ldr	r5, [pc, #616]	; (403e34 <_vfiprintf_r+0x5fc>)
  403bcc:	f340 8450 	ble.w	404470 <_vfiprintf_r+0xc38>
  403bd0:	46d4      	mov	ip, sl
  403bd2:	2710      	movs	r7, #16
  403bd4:	46a2      	mov	sl, r4
  403bd6:	9c06      	ldr	r4, [sp, #24]
  403bd8:	e007      	b.n	403bea <_vfiprintf_r+0x3b2>
  403bda:	f101 0e02 	add.w	lr, r1, #2
  403bde:	f10c 0c08 	add.w	ip, ip, #8
  403be2:	4601      	mov	r1, r0
  403be4:	3e10      	subs	r6, #16
  403be6:	2e10      	cmp	r6, #16
  403be8:	dd11      	ble.n	403c0e <_vfiprintf_r+0x3d6>
  403bea:	1c48      	adds	r0, r1, #1
  403bec:	3210      	adds	r2, #16
  403bee:	2807      	cmp	r0, #7
  403bf0:	9211      	str	r2, [sp, #68]	; 0x44
  403bf2:	e88c 00a0 	stmia.w	ip, {r5, r7}
  403bf6:	9010      	str	r0, [sp, #64]	; 0x40
  403bf8:	ddef      	ble.n	403bda <_vfiprintf_r+0x3a2>
  403bfa:	2a00      	cmp	r2, #0
  403bfc:	f040 829d 	bne.w	40413a <_vfiprintf_r+0x902>
  403c00:	3e10      	subs	r6, #16
  403c02:	2e10      	cmp	r6, #16
  403c04:	f04f 0e01 	mov.w	lr, #1
  403c08:	4611      	mov	r1, r2
  403c0a:	46cc      	mov	ip, r9
  403c0c:	dced      	bgt.n	403bea <_vfiprintf_r+0x3b2>
  403c0e:	4654      	mov	r4, sl
  403c10:	46e2      	mov	sl, ip
  403c12:	4432      	add	r2, r6
  403c14:	f1be 0f07 	cmp.w	lr, #7
  403c18:	9211      	str	r2, [sp, #68]	; 0x44
  403c1a:	e88a 0060 	stmia.w	sl, {r5, r6}
  403c1e:	f8cd e040 	str.w	lr, [sp, #64]	; 0x40
  403c22:	f300 8369 	bgt.w	4042f8 <_vfiprintf_r+0xac0>
  403c26:	f10a 0a08 	add.w	sl, sl, #8
  403c2a:	f10e 0001 	add.w	r0, lr, #1
  403c2e:	4671      	mov	r1, lr
  403c30:	e1ab      	b.n	403f8a <_vfiprintf_r+0x752>
  403c32:	9608      	str	r6, [sp, #32]
  403c34:	f013 0220 	ands.w	r2, r3, #32
  403c38:	f040 838c 	bne.w	404354 <_vfiprintf_r+0xb1c>
  403c3c:	f013 0110 	ands.w	r1, r3, #16
  403c40:	f040 831a 	bne.w	404278 <_vfiprintf_r+0xa40>
  403c44:	f013 0240 	ands.w	r2, r3, #64	; 0x40
  403c48:	f000 8316 	beq.w	404278 <_vfiprintf_r+0xa40>
  403c4c:	9807      	ldr	r0, [sp, #28]
  403c4e:	460a      	mov	r2, r1
  403c50:	4601      	mov	r1, r0
  403c52:	3104      	adds	r1, #4
  403c54:	8806      	ldrh	r6, [r0, #0]
  403c56:	9107      	str	r1, [sp, #28]
  403c58:	2700      	movs	r7, #0
  403c5a:	e720      	b.n	403a9e <_vfiprintf_r+0x266>
  403c5c:	9608      	str	r6, [sp, #32]
  403c5e:	f043 0310 	orr.w	r3, r3, #16
  403c62:	e7e7      	b.n	403c34 <_vfiprintf_r+0x3fc>
  403c64:	9608      	str	r6, [sp, #32]
  403c66:	f043 0310 	orr.w	r3, r3, #16
  403c6a:	e708      	b.n	403a7e <_vfiprintf_r+0x246>
  403c6c:	f043 0380 	orr.w	r3, r3, #128	; 0x80
  403c70:	f898 2000 	ldrb.w	r2, [r8]
  403c74:	e652      	b.n	40391c <_vfiprintf_r+0xe4>
  403c76:	f1a2 0130 	sub.w	r1, r2, #48	; 0x30
  403c7a:	2600      	movs	r6, #0
  403c7c:	f818 2b01 	ldrb.w	r2, [r8], #1
  403c80:	eb06 0686 	add.w	r6, r6, r6, lsl #2
  403c84:	eb01 0646 	add.w	r6, r1, r6, lsl #1
  403c88:	f1a2 0130 	sub.w	r1, r2, #48	; 0x30
  403c8c:	2909      	cmp	r1, #9
  403c8e:	d9f5      	bls.n	403c7c <_vfiprintf_r+0x444>
  403c90:	e646      	b.n	403920 <_vfiprintf_r+0xe8>
  403c92:	9608      	str	r6, [sp, #32]
  403c94:	2800      	cmp	r0, #0
  403c96:	f040 8408 	bne.w	4044aa <_vfiprintf_r+0xc72>
  403c9a:	f043 0310 	orr.w	r3, r3, #16
  403c9e:	069e      	lsls	r6, r3, #26
  403ca0:	f100 834c 	bmi.w	40433c <_vfiprintf_r+0xb04>
  403ca4:	06dd      	lsls	r5, r3, #27
  403ca6:	f100 82f3 	bmi.w	404290 <_vfiprintf_r+0xa58>
  403caa:	0658      	lsls	r0, r3, #25
  403cac:	f140 82f0 	bpl.w	404290 <_vfiprintf_r+0xa58>
  403cb0:	9d07      	ldr	r5, [sp, #28]
  403cb2:	f9b5 6000 	ldrsh.w	r6, [r5]
  403cb6:	462a      	mov	r2, r5
  403cb8:	17f7      	asrs	r7, r6, #31
  403cba:	3204      	adds	r2, #4
  403cbc:	4630      	mov	r0, r6
  403cbe:	4639      	mov	r1, r7
  403cc0:	9207      	str	r2, [sp, #28]
  403cc2:	2800      	cmp	r0, #0
  403cc4:	f171 0200 	sbcs.w	r2, r1, #0
  403cc8:	f2c0 835d 	blt.w	404386 <_vfiprintf_r+0xb4e>
  403ccc:	1c61      	adds	r1, r4, #1
  403cce:	f89d 5037 	ldrb.w	r5, [sp, #55]	; 0x37
  403cd2:	f04f 0201 	mov.w	r2, #1
  403cd6:	f47f aeea 	bne.w	403aae <_vfiprintf_r+0x276>
  403cda:	ea56 0107 	orrs.w	r1, r6, r7
  403cde:	f000 824d 	beq.w	40417c <_vfiprintf_r+0x944>
  403ce2:	9302      	str	r3, [sp, #8]
  403ce4:	2a01      	cmp	r2, #1
  403ce6:	f000 828c 	beq.w	404202 <_vfiprintf_r+0x9ca>
  403cea:	2a02      	cmp	r2, #2
  403cec:	f040 825c 	bne.w	4041a8 <_vfiprintf_r+0x970>
  403cf0:	980b      	ldr	r0, [sp, #44]	; 0x2c
  403cf2:	46cb      	mov	fp, r9
  403cf4:	0933      	lsrs	r3, r6, #4
  403cf6:	f006 010f 	and.w	r1, r6, #15
  403cfa:	ea43 7307 	orr.w	r3, r3, r7, lsl #28
  403cfe:	093a      	lsrs	r2, r7, #4
  403d00:	461e      	mov	r6, r3
  403d02:	4617      	mov	r7, r2
  403d04:	5c43      	ldrb	r3, [r0, r1]
  403d06:	f80b 3d01 	strb.w	r3, [fp, #-1]!
  403d0a:	ea56 0307 	orrs.w	r3, r6, r7
  403d0e:	d1f1      	bne.n	403cf4 <_vfiprintf_r+0x4bc>
  403d10:	eba9 030b 	sub.w	r3, r9, fp
  403d14:	9305      	str	r3, [sp, #20]
  403d16:	e6e1      	b.n	403adc <_vfiprintf_r+0x2a4>
  403d18:	2800      	cmp	r0, #0
  403d1a:	f040 83c0 	bne.w	40449e <_vfiprintf_r+0xc66>
  403d1e:	0699      	lsls	r1, r3, #26
  403d20:	f100 8367 	bmi.w	4043f2 <_vfiprintf_r+0xbba>
  403d24:	06da      	lsls	r2, r3, #27
  403d26:	f100 80f1 	bmi.w	403f0c <_vfiprintf_r+0x6d4>
  403d2a:	065b      	lsls	r3, r3, #25
  403d2c:	f140 80ee 	bpl.w	403f0c <_vfiprintf_r+0x6d4>
  403d30:	9a07      	ldr	r2, [sp, #28]
  403d32:	6813      	ldr	r3, [r2, #0]
  403d34:	3204      	adds	r2, #4
  403d36:	9207      	str	r2, [sp, #28]
  403d38:	f8bd 200c 	ldrh.w	r2, [sp, #12]
  403d3c:	801a      	strh	r2, [r3, #0]
  403d3e:	e5b8      	b.n	4038b2 <_vfiprintf_r+0x7a>
  403d40:	9807      	ldr	r0, [sp, #28]
  403d42:	4a3d      	ldr	r2, [pc, #244]	; (403e38 <_vfiprintf_r+0x600>)
  403d44:	9608      	str	r6, [sp, #32]
  403d46:	920b      	str	r2, [sp, #44]	; 0x2c
  403d48:	6806      	ldr	r6, [r0, #0]
  403d4a:	2278      	movs	r2, #120	; 0x78
  403d4c:	2130      	movs	r1, #48	; 0x30
  403d4e:	3004      	adds	r0, #4
  403d50:	f88d 2039 	strb.w	r2, [sp, #57]	; 0x39
  403d54:	f043 0302 	orr.w	r3, r3, #2
  403d58:	9007      	str	r0, [sp, #28]
  403d5a:	2700      	movs	r7, #0
  403d5c:	f88d 1038 	strb.w	r1, [sp, #56]	; 0x38
  403d60:	2202      	movs	r2, #2
  403d62:	e69c      	b.n	403a9e <_vfiprintf_r+0x266>
  403d64:	9608      	str	r6, [sp, #32]
  403d66:	2800      	cmp	r0, #0
  403d68:	d099      	beq.n	403c9e <_vfiprintf_r+0x466>
  403d6a:	f88d 5037 	strb.w	r5, [sp, #55]	; 0x37
  403d6e:	e796      	b.n	403c9e <_vfiprintf_r+0x466>
  403d70:	f898 2000 	ldrb.w	r2, [r8]
  403d74:	2d00      	cmp	r5, #0
  403d76:	f47f add1 	bne.w	40391c <_vfiprintf_r+0xe4>
  403d7a:	2001      	movs	r0, #1
  403d7c:	2520      	movs	r5, #32
  403d7e:	e5cd      	b.n	40391c <_vfiprintf_r+0xe4>
  403d80:	f043 0301 	orr.w	r3, r3, #1
  403d84:	f898 2000 	ldrb.w	r2, [r8]
  403d88:	e5c8      	b.n	40391c <_vfiprintf_r+0xe4>
  403d8a:	9608      	str	r6, [sp, #32]
  403d8c:	2800      	cmp	r0, #0
  403d8e:	f040 8393 	bne.w	4044b8 <_vfiprintf_r+0xc80>
  403d92:	4929      	ldr	r1, [pc, #164]	; (403e38 <_vfiprintf_r+0x600>)
  403d94:	910b      	str	r1, [sp, #44]	; 0x2c
  403d96:	069f      	lsls	r7, r3, #26
  403d98:	f100 82e8 	bmi.w	40436c <_vfiprintf_r+0xb34>
  403d9c:	9807      	ldr	r0, [sp, #28]
  403d9e:	06de      	lsls	r6, r3, #27
  403da0:	4601      	mov	r1, r0
  403da2:	f100 8270 	bmi.w	404286 <_vfiprintf_r+0xa4e>
  403da6:	065d      	lsls	r5, r3, #25
  403da8:	f140 826d 	bpl.w	404286 <_vfiprintf_r+0xa4e>
  403dac:	3104      	adds	r1, #4
  403dae:	8806      	ldrh	r6, [r0, #0]
  403db0:	9107      	str	r1, [sp, #28]
  403db2:	2700      	movs	r7, #0
  403db4:	07d8      	lsls	r0, r3, #31
  403db6:	f140 8222 	bpl.w	4041fe <_vfiprintf_r+0x9c6>
  403dba:	ea56 0107 	orrs.w	r1, r6, r7
  403dbe:	f000 821e 	beq.w	4041fe <_vfiprintf_r+0x9c6>
  403dc2:	2130      	movs	r1, #48	; 0x30
  403dc4:	f88d 2039 	strb.w	r2, [sp, #57]	; 0x39
  403dc8:	f043 0302 	orr.w	r3, r3, #2
  403dcc:	f88d 1038 	strb.w	r1, [sp, #56]	; 0x38
  403dd0:	2202      	movs	r2, #2
  403dd2:	e664      	b.n	403a9e <_vfiprintf_r+0x266>
  403dd4:	9608      	str	r6, [sp, #32]
  403dd6:	2800      	cmp	r0, #0
  403dd8:	f040 836b 	bne.w	4044b2 <_vfiprintf_r+0xc7a>
  403ddc:	4917      	ldr	r1, [pc, #92]	; (403e3c <_vfiprintf_r+0x604>)
  403dde:	910b      	str	r1, [sp, #44]	; 0x2c
  403de0:	e7d9      	b.n	403d96 <_vfiprintf_r+0x55e>
  403de2:	9907      	ldr	r1, [sp, #28]
  403de4:	9608      	str	r6, [sp, #32]
  403de6:	680a      	ldr	r2, [r1, #0]
  403de8:	f88d 2048 	strb.w	r2, [sp, #72]	; 0x48
  403dec:	f04f 0000 	mov.w	r0, #0
  403df0:	460a      	mov	r2, r1
  403df2:	f88d 0037 	strb.w	r0, [sp, #55]	; 0x37
  403df6:	3204      	adds	r2, #4
  403df8:	2001      	movs	r0, #1
  403dfa:	9001      	str	r0, [sp, #4]
  403dfc:	9207      	str	r2, [sp, #28]
  403dfe:	9005      	str	r0, [sp, #20]
  403e00:	f10d 0b48 	add.w	fp, sp, #72	; 0x48
  403e04:	9302      	str	r3, [sp, #8]
  403e06:	2400      	movs	r4, #0
  403e08:	e670      	b.n	403aec <_vfiprintf_r+0x2b4>
  403e0a:	f043 0340 	orr.w	r3, r3, #64	; 0x40
  403e0e:	f898 2000 	ldrb.w	r2, [r8]
  403e12:	e583      	b.n	40391c <_vfiprintf_r+0xe4>
  403e14:	f898 2000 	ldrb.w	r2, [r8]
  403e18:	2a6c      	cmp	r2, #108	; 0x6c
  403e1a:	bf03      	ittte	eq
  403e1c:	f898 2001 	ldrbeq.w	r2, [r8, #1]
  403e20:	f043 0320 	orreq.w	r3, r3, #32
  403e24:	f108 0801 	addeq.w	r8, r8, #1
  403e28:	f043 0310 	orrne.w	r3, r3, #16
  403e2c:	e576      	b.n	40391c <_vfiprintf_r+0xe4>
  403e2e:	bf00      	nop
  403e30:	00408ce0 	.word	0x00408ce0
  403e34:	00408cf0 	.word	0x00408cf0
  403e38:	00408ca0 	.word	0x00408ca0
  403e3c:	00408c8c 	.word	0x00408c8c
  403e40:	9907      	ldr	r1, [sp, #28]
  403e42:	680e      	ldr	r6, [r1, #0]
  403e44:	460a      	mov	r2, r1
  403e46:	2e00      	cmp	r6, #0
  403e48:	f102 0204 	add.w	r2, r2, #4
  403e4c:	f6ff ae0f 	blt.w	403a6e <_vfiprintf_r+0x236>
  403e50:	9207      	str	r2, [sp, #28]
  403e52:	f898 2000 	ldrb.w	r2, [r8]
  403e56:	e561      	b.n	40391c <_vfiprintf_r+0xe4>
  403e58:	f898 2000 	ldrb.w	r2, [r8]
  403e5c:	2001      	movs	r0, #1
  403e5e:	252b      	movs	r5, #43	; 0x2b
  403e60:	e55c      	b.n	40391c <_vfiprintf_r+0xe4>
  403e62:	9907      	ldr	r1, [sp, #28]
  403e64:	9608      	str	r6, [sp, #32]
  403e66:	f8d1 b000 	ldr.w	fp, [r1]
  403e6a:	f04f 0200 	mov.w	r2, #0
  403e6e:	f88d 2037 	strb.w	r2, [sp, #55]	; 0x37
  403e72:	1d0e      	adds	r6, r1, #4
  403e74:	f1bb 0f00 	cmp.w	fp, #0
  403e78:	f000 82e5 	beq.w	404446 <_vfiprintf_r+0xc0e>
  403e7c:	1c67      	adds	r7, r4, #1
  403e7e:	f000 82c4 	beq.w	40440a <_vfiprintf_r+0xbd2>
  403e82:	4622      	mov	r2, r4
  403e84:	2100      	movs	r1, #0
  403e86:	4658      	mov	r0, fp
  403e88:	9301      	str	r3, [sp, #4]
  403e8a:	f002 fba9 	bl	4065e0 <memchr>
  403e8e:	9b01      	ldr	r3, [sp, #4]
  403e90:	2800      	cmp	r0, #0
  403e92:	f000 82e5 	beq.w	404460 <_vfiprintf_r+0xc28>
  403e96:	eba0 020b 	sub.w	r2, r0, fp
  403e9a:	9205      	str	r2, [sp, #20]
  403e9c:	9607      	str	r6, [sp, #28]
  403e9e:	9302      	str	r3, [sp, #8]
  403ea0:	f89d 5037 	ldrb.w	r5, [sp, #55]	; 0x37
  403ea4:	2400      	movs	r4, #0
  403ea6:	e619      	b.n	403adc <_vfiprintf_r+0x2a4>
  403ea8:	f898 2000 	ldrb.w	r2, [r8]
  403eac:	2a2a      	cmp	r2, #42	; 0x2a
  403eae:	f108 0701 	add.w	r7, r8, #1
  403eb2:	f000 82e9 	beq.w	404488 <_vfiprintf_r+0xc50>
  403eb6:	f1a2 0130 	sub.w	r1, r2, #48	; 0x30
  403eba:	2909      	cmp	r1, #9
  403ebc:	46b8      	mov	r8, r7
  403ebe:	f04f 0400 	mov.w	r4, #0
  403ec2:	f63f ad2d 	bhi.w	403920 <_vfiprintf_r+0xe8>
  403ec6:	f818 2b01 	ldrb.w	r2, [r8], #1
  403eca:	eb04 0484 	add.w	r4, r4, r4, lsl #2
  403ece:	eb01 0444 	add.w	r4, r1, r4, lsl #1
  403ed2:	f1a2 0130 	sub.w	r1, r2, #48	; 0x30
  403ed6:	2909      	cmp	r1, #9
  403ed8:	d9f5      	bls.n	403ec6 <_vfiprintf_r+0x68e>
  403eda:	e521      	b.n	403920 <_vfiprintf_r+0xe8>
  403edc:	f043 0320 	orr.w	r3, r3, #32
  403ee0:	f898 2000 	ldrb.w	r2, [r8]
  403ee4:	e51a      	b.n	40391c <_vfiprintf_r+0xe4>
  403ee6:	9608      	str	r6, [sp, #32]
  403ee8:	2800      	cmp	r0, #0
  403eea:	f040 82db 	bne.w	4044a4 <_vfiprintf_r+0xc6c>
  403eee:	2a00      	cmp	r2, #0
  403ef0:	f000 80e7 	beq.w	4040c2 <_vfiprintf_r+0x88a>
  403ef4:	2101      	movs	r1, #1
  403ef6:	f88d 2048 	strb.w	r2, [sp, #72]	; 0x48
  403efa:	f04f 0200 	mov.w	r2, #0
  403efe:	9101      	str	r1, [sp, #4]
  403f00:	f88d 2037 	strb.w	r2, [sp, #55]	; 0x37
  403f04:	9105      	str	r1, [sp, #20]
  403f06:	f10d 0b48 	add.w	fp, sp, #72	; 0x48
  403f0a:	e77b      	b.n	403e04 <_vfiprintf_r+0x5cc>
  403f0c:	9a07      	ldr	r2, [sp, #28]
  403f0e:	6813      	ldr	r3, [r2, #0]
  403f10:	3204      	adds	r2, #4
  403f12:	9207      	str	r2, [sp, #28]
  403f14:	9a03      	ldr	r2, [sp, #12]
  403f16:	601a      	str	r2, [r3, #0]
  403f18:	e4cb      	b.n	4038b2 <_vfiprintf_r+0x7a>
  403f1a:	aa0f      	add	r2, sp, #60	; 0x3c
  403f1c:	9904      	ldr	r1, [sp, #16]
  403f1e:	4620      	mov	r0, r4
  403f20:	f7ff fc4a 	bl	4037b8 <__sprint_r.part.0>
  403f24:	2800      	cmp	r0, #0
  403f26:	f040 8139 	bne.w	40419c <_vfiprintf_r+0x964>
  403f2a:	9910      	ldr	r1, [sp, #64]	; 0x40
  403f2c:	9a11      	ldr	r2, [sp, #68]	; 0x44
  403f2e:	f101 0c01 	add.w	ip, r1, #1
  403f32:	46ce      	mov	lr, r9
  403f34:	e5ff      	b.n	403b36 <_vfiprintf_r+0x2fe>
  403f36:	9910      	ldr	r1, [sp, #64]	; 0x40
  403f38:	9a11      	ldr	r2, [sp, #68]	; 0x44
  403f3a:	1c48      	adds	r0, r1, #1
  403f3c:	f89d 5037 	ldrb.w	r5, [sp, #55]	; 0x37
  403f40:	2d00      	cmp	r5, #0
  403f42:	f43f ae22 	beq.w	403b8a <_vfiprintf_r+0x352>
  403f46:	3201      	adds	r2, #1
  403f48:	f10d 0537 	add.w	r5, sp, #55	; 0x37
  403f4c:	2101      	movs	r1, #1
  403f4e:	2807      	cmp	r0, #7
  403f50:	9211      	str	r2, [sp, #68]	; 0x44
  403f52:	9010      	str	r0, [sp, #64]	; 0x40
  403f54:	f8ca 5000 	str.w	r5, [sl]
  403f58:	f8ca 1004 	str.w	r1, [sl, #4]
  403f5c:	f340 8108 	ble.w	404170 <_vfiprintf_r+0x938>
  403f60:	2a00      	cmp	r2, #0
  403f62:	f040 81bc 	bne.w	4042de <_vfiprintf_r+0xaa6>
  403f66:	9b09      	ldr	r3, [sp, #36]	; 0x24
  403f68:	2b00      	cmp	r3, #0
  403f6a:	f43f ae1f 	beq.w	403bac <_vfiprintf_r+0x374>
  403f6e:	ab0e      	add	r3, sp, #56	; 0x38
  403f70:	2202      	movs	r2, #2
  403f72:	4608      	mov	r0, r1
  403f74:	931c      	str	r3, [sp, #112]	; 0x70
  403f76:	921d      	str	r2, [sp, #116]	; 0x74
  403f78:	46ca      	mov	sl, r9
  403f7a:	4601      	mov	r1, r0
  403f7c:	f10a 0a08 	add.w	sl, sl, #8
  403f80:	3001      	adds	r0, #1
  403f82:	9b0a      	ldr	r3, [sp, #40]	; 0x28
  403f84:	2b80      	cmp	r3, #128	; 0x80
  403f86:	f43f ae19 	beq.w	403bbc <_vfiprintf_r+0x384>
  403f8a:	9b05      	ldr	r3, [sp, #20]
  403f8c:	1ae4      	subs	r4, r4, r3
  403f8e:	2c00      	cmp	r4, #0
  403f90:	dd2e      	ble.n	403ff0 <_vfiprintf_r+0x7b8>
  403f92:	2c10      	cmp	r4, #16
  403f94:	4db3      	ldr	r5, [pc, #716]	; (404264 <_vfiprintf_r+0xa2c>)
  403f96:	dd1e      	ble.n	403fd6 <_vfiprintf_r+0x79e>
  403f98:	46d6      	mov	lr, sl
  403f9a:	2610      	movs	r6, #16
  403f9c:	9f06      	ldr	r7, [sp, #24]
  403f9e:	f8dd a010 	ldr.w	sl, [sp, #16]
  403fa2:	e006      	b.n	403fb2 <_vfiprintf_r+0x77a>
  403fa4:	1c88      	adds	r0, r1, #2
  403fa6:	f10e 0e08 	add.w	lr, lr, #8
  403faa:	4619      	mov	r1, r3
  403fac:	3c10      	subs	r4, #16
  403fae:	2c10      	cmp	r4, #16
  403fb0:	dd10      	ble.n	403fd4 <_vfiprintf_r+0x79c>
  403fb2:	1c4b      	adds	r3, r1, #1
  403fb4:	3210      	adds	r2, #16
  403fb6:	2b07      	cmp	r3, #7
  403fb8:	9211      	str	r2, [sp, #68]	; 0x44
  403fba:	e88e 0060 	stmia.w	lr, {r5, r6}
  403fbe:	9310      	str	r3, [sp, #64]	; 0x40
  403fc0:	ddf0      	ble.n	403fa4 <_vfiprintf_r+0x76c>
  403fc2:	2a00      	cmp	r2, #0
  403fc4:	d165      	bne.n	404092 <_vfiprintf_r+0x85a>
  403fc6:	3c10      	subs	r4, #16
  403fc8:	2c10      	cmp	r4, #16
  403fca:	f04f 0001 	mov.w	r0, #1
  403fce:	4611      	mov	r1, r2
  403fd0:	46ce      	mov	lr, r9
  403fd2:	dcee      	bgt.n	403fb2 <_vfiprintf_r+0x77a>
  403fd4:	46f2      	mov	sl, lr
  403fd6:	4422      	add	r2, r4
  403fd8:	2807      	cmp	r0, #7
  403fda:	9211      	str	r2, [sp, #68]	; 0x44
  403fdc:	f8ca 5000 	str.w	r5, [sl]
  403fe0:	f8ca 4004 	str.w	r4, [sl, #4]
  403fe4:	9010      	str	r0, [sp, #64]	; 0x40
  403fe6:	f300 8085 	bgt.w	4040f4 <_vfiprintf_r+0x8bc>
  403fea:	f10a 0a08 	add.w	sl, sl, #8
  403fee:	3001      	adds	r0, #1
  403ff0:	9905      	ldr	r1, [sp, #20]
  403ff2:	f8ca b000 	str.w	fp, [sl]
  403ff6:	440a      	add	r2, r1
  403ff8:	2807      	cmp	r0, #7
  403ffa:	9211      	str	r2, [sp, #68]	; 0x44
  403ffc:	f8ca 1004 	str.w	r1, [sl, #4]
  404000:	9010      	str	r0, [sp, #64]	; 0x40
  404002:	f340 8082 	ble.w	40410a <_vfiprintf_r+0x8d2>
  404006:	2a00      	cmp	r2, #0
  404008:	f040 8118 	bne.w	40423c <_vfiprintf_r+0xa04>
  40400c:	9b02      	ldr	r3, [sp, #8]
  40400e:	9210      	str	r2, [sp, #64]	; 0x40
  404010:	0758      	lsls	r0, r3, #29
  404012:	d535      	bpl.n	404080 <_vfiprintf_r+0x848>
  404014:	9b08      	ldr	r3, [sp, #32]
  404016:	9901      	ldr	r1, [sp, #4]
  404018:	1a5c      	subs	r4, r3, r1
  40401a:	2c00      	cmp	r4, #0
  40401c:	f340 80e7 	ble.w	4041ee <_vfiprintf_r+0x9b6>
  404020:	46ca      	mov	sl, r9
  404022:	2c10      	cmp	r4, #16
  404024:	f340 8218 	ble.w	404458 <_vfiprintf_r+0xc20>
  404028:	9910      	ldr	r1, [sp, #64]	; 0x40
  40402a:	4e8f      	ldr	r6, [pc, #572]	; (404268 <_vfiprintf_r+0xa30>)
  40402c:	9f06      	ldr	r7, [sp, #24]
  40402e:	f8dd b010 	ldr.w	fp, [sp, #16]
  404032:	2510      	movs	r5, #16
  404034:	e006      	b.n	404044 <_vfiprintf_r+0x80c>
  404036:	1c88      	adds	r0, r1, #2
  404038:	f10a 0a08 	add.w	sl, sl, #8
  40403c:	4619      	mov	r1, r3
  40403e:	3c10      	subs	r4, #16
  404040:	2c10      	cmp	r4, #16
  404042:	dd11      	ble.n	404068 <_vfiprintf_r+0x830>
  404044:	1c4b      	adds	r3, r1, #1
  404046:	3210      	adds	r2, #16
  404048:	2b07      	cmp	r3, #7
  40404a:	9211      	str	r2, [sp, #68]	; 0x44
  40404c:	f8ca 6000 	str.w	r6, [sl]
  404050:	f8ca 5004 	str.w	r5, [sl, #4]
  404054:	9310      	str	r3, [sp, #64]	; 0x40
  404056:	ddee      	ble.n	404036 <_vfiprintf_r+0x7fe>
  404058:	bb42      	cbnz	r2, 4040ac <_vfiprintf_r+0x874>
  40405a:	3c10      	subs	r4, #16
  40405c:	2c10      	cmp	r4, #16
  40405e:	f04f 0001 	mov.w	r0, #1
  404062:	4611      	mov	r1, r2
  404064:	46ca      	mov	sl, r9
  404066:	dced      	bgt.n	404044 <_vfiprintf_r+0x80c>
  404068:	4422      	add	r2, r4
  40406a:	2807      	cmp	r0, #7
  40406c:	9211      	str	r2, [sp, #68]	; 0x44
  40406e:	f8ca 6000 	str.w	r6, [sl]
  404072:	f8ca 4004 	str.w	r4, [sl, #4]
  404076:	9010      	str	r0, [sp, #64]	; 0x40
  404078:	dd51      	ble.n	40411e <_vfiprintf_r+0x8e6>
  40407a:	2a00      	cmp	r2, #0
  40407c:	f040 819b 	bne.w	4043b6 <_vfiprintf_r+0xb7e>
  404080:	9b03      	ldr	r3, [sp, #12]
  404082:	9a08      	ldr	r2, [sp, #32]
  404084:	9901      	ldr	r1, [sp, #4]
  404086:	428a      	cmp	r2, r1
  404088:	bfac      	ite	ge
  40408a:	189b      	addge	r3, r3, r2
  40408c:	185b      	addlt	r3, r3, r1
  40408e:	9303      	str	r3, [sp, #12]
  404090:	e04e      	b.n	404130 <_vfiprintf_r+0x8f8>
  404092:	aa0f      	add	r2, sp, #60	; 0x3c
  404094:	4651      	mov	r1, sl
  404096:	4638      	mov	r0, r7
  404098:	f7ff fb8e 	bl	4037b8 <__sprint_r.part.0>
  40409c:	2800      	cmp	r0, #0
  40409e:	f040 813f 	bne.w	404320 <_vfiprintf_r+0xae8>
  4040a2:	9910      	ldr	r1, [sp, #64]	; 0x40
  4040a4:	9a11      	ldr	r2, [sp, #68]	; 0x44
  4040a6:	1c48      	adds	r0, r1, #1
  4040a8:	46ce      	mov	lr, r9
  4040aa:	e77f      	b.n	403fac <_vfiprintf_r+0x774>
  4040ac:	aa0f      	add	r2, sp, #60	; 0x3c
  4040ae:	4659      	mov	r1, fp
  4040b0:	4638      	mov	r0, r7
  4040b2:	f7ff fb81 	bl	4037b8 <__sprint_r.part.0>
  4040b6:	b960      	cbnz	r0, 4040d2 <_vfiprintf_r+0x89a>
  4040b8:	9910      	ldr	r1, [sp, #64]	; 0x40
  4040ba:	9a11      	ldr	r2, [sp, #68]	; 0x44
  4040bc:	1c48      	adds	r0, r1, #1
  4040be:	46ca      	mov	sl, r9
  4040c0:	e7bd      	b.n	40403e <_vfiprintf_r+0x806>
  4040c2:	9b11      	ldr	r3, [sp, #68]	; 0x44
  4040c4:	f8dd b010 	ldr.w	fp, [sp, #16]
  4040c8:	2b00      	cmp	r3, #0
  4040ca:	f040 81d4 	bne.w	404476 <_vfiprintf_r+0xc3e>
  4040ce:	2300      	movs	r3, #0
  4040d0:	9310      	str	r3, [sp, #64]	; 0x40
  4040d2:	f8db 3064 	ldr.w	r3, [fp, #100]	; 0x64
  4040d6:	f013 0f01 	tst.w	r3, #1
  4040da:	f8bb 300c 	ldrh.w	r3, [fp, #12]
  4040de:	d102      	bne.n	4040e6 <_vfiprintf_r+0x8ae>
  4040e0:	059a      	lsls	r2, r3, #22
  4040e2:	f140 80de 	bpl.w	4042a2 <_vfiprintf_r+0xa6a>
  4040e6:	065b      	lsls	r3, r3, #25
  4040e8:	f53f acb2 	bmi.w	403a50 <_vfiprintf_r+0x218>
  4040ec:	9803      	ldr	r0, [sp, #12]
  4040ee:	b02d      	add	sp, #180	; 0xb4
  4040f0:	e8bd 8ff0 	ldmia.w	sp!, {r4, r5, r6, r7, r8, r9, sl, fp, pc}
  4040f4:	2a00      	cmp	r2, #0
  4040f6:	f040 8106 	bne.w	404306 <_vfiprintf_r+0xace>
  4040fa:	9a05      	ldr	r2, [sp, #20]
  4040fc:	921d      	str	r2, [sp, #116]	; 0x74
  4040fe:	2301      	movs	r3, #1
  404100:	9211      	str	r2, [sp, #68]	; 0x44
  404102:	f8cd b070 	str.w	fp, [sp, #112]	; 0x70
  404106:	9310      	str	r3, [sp, #64]	; 0x40
  404108:	46ca      	mov	sl, r9
  40410a:	f10a 0a08 	add.w	sl, sl, #8
  40410e:	9b02      	ldr	r3, [sp, #8]
  404110:	0759      	lsls	r1, r3, #29
  404112:	d504      	bpl.n	40411e <_vfiprintf_r+0x8e6>
  404114:	9b08      	ldr	r3, [sp, #32]
  404116:	9901      	ldr	r1, [sp, #4]
  404118:	1a5c      	subs	r4, r3, r1
  40411a:	2c00      	cmp	r4, #0
  40411c:	dc81      	bgt.n	404022 <_vfiprintf_r+0x7ea>
  40411e:	9b03      	ldr	r3, [sp, #12]
  404120:	9908      	ldr	r1, [sp, #32]
  404122:	9801      	ldr	r0, [sp, #4]
  404124:	4281      	cmp	r1, r0
  404126:	bfac      	ite	ge
  404128:	185b      	addge	r3, r3, r1
  40412a:	181b      	addlt	r3, r3, r0
  40412c:	9303      	str	r3, [sp, #12]
  40412e:	bb72      	cbnz	r2, 40418e <_vfiprintf_r+0x956>
  404130:	2300      	movs	r3, #0
  404132:	9310      	str	r3, [sp, #64]	; 0x40
  404134:	46ca      	mov	sl, r9
  404136:	f7ff bbbc 	b.w	4038b2 <_vfiprintf_r+0x7a>
  40413a:	aa0f      	add	r2, sp, #60	; 0x3c
  40413c:	9904      	ldr	r1, [sp, #16]
  40413e:	4620      	mov	r0, r4
  404140:	f7ff fb3a 	bl	4037b8 <__sprint_r.part.0>
  404144:	bb50      	cbnz	r0, 40419c <_vfiprintf_r+0x964>
  404146:	9910      	ldr	r1, [sp, #64]	; 0x40
  404148:	9a11      	ldr	r2, [sp, #68]	; 0x44
  40414a:	f101 0e01 	add.w	lr, r1, #1
  40414e:	46cc      	mov	ip, r9
  404150:	e548      	b.n	403be4 <_vfiprintf_r+0x3ac>
  404152:	2a00      	cmp	r2, #0
  404154:	f040 8140 	bne.w	4043d8 <_vfiprintf_r+0xba0>
  404158:	f89d 1037 	ldrb.w	r1, [sp, #55]	; 0x37
  40415c:	2900      	cmp	r1, #0
  40415e:	f000 811b 	beq.w	404398 <_vfiprintf_r+0xb60>
  404162:	2201      	movs	r2, #1
  404164:	f10d 0137 	add.w	r1, sp, #55	; 0x37
  404168:	4610      	mov	r0, r2
  40416a:	921d      	str	r2, [sp, #116]	; 0x74
  40416c:	911c      	str	r1, [sp, #112]	; 0x70
  40416e:	46ca      	mov	sl, r9
  404170:	4601      	mov	r1, r0
  404172:	f10a 0a08 	add.w	sl, sl, #8
  404176:	3001      	adds	r0, #1
  404178:	e507      	b.n	403b8a <_vfiprintf_r+0x352>
  40417a:	9b02      	ldr	r3, [sp, #8]
  40417c:	2a01      	cmp	r2, #1
  40417e:	f000 8098 	beq.w	4042b2 <_vfiprintf_r+0xa7a>
  404182:	2a02      	cmp	r2, #2
  404184:	d10d      	bne.n	4041a2 <_vfiprintf_r+0x96a>
  404186:	9302      	str	r3, [sp, #8]
  404188:	2600      	movs	r6, #0
  40418a:	2700      	movs	r7, #0
  40418c:	e5b0      	b.n	403cf0 <_vfiprintf_r+0x4b8>
  40418e:	aa0f      	add	r2, sp, #60	; 0x3c
  404190:	9904      	ldr	r1, [sp, #16]
  404192:	9806      	ldr	r0, [sp, #24]
  404194:	f7ff fb10 	bl	4037b8 <__sprint_r.part.0>
  404198:	2800      	cmp	r0, #0
  40419a:	d0c9      	beq.n	404130 <_vfiprintf_r+0x8f8>
  40419c:	f8dd b010 	ldr.w	fp, [sp, #16]
  4041a0:	e797      	b.n	4040d2 <_vfiprintf_r+0x89a>
  4041a2:	9302      	str	r3, [sp, #8]
  4041a4:	2600      	movs	r6, #0
  4041a6:	2700      	movs	r7, #0
  4041a8:	4649      	mov	r1, r9
  4041aa:	e000      	b.n	4041ae <_vfiprintf_r+0x976>
  4041ac:	4659      	mov	r1, fp
  4041ae:	08f2      	lsrs	r2, r6, #3
  4041b0:	ea42 7247 	orr.w	r2, r2, r7, lsl #29
  4041b4:	08f8      	lsrs	r0, r7, #3
  4041b6:	f006 0307 	and.w	r3, r6, #7
  4041ba:	4607      	mov	r7, r0
  4041bc:	4616      	mov	r6, r2
  4041be:	3330      	adds	r3, #48	; 0x30
  4041c0:	ea56 0207 	orrs.w	r2, r6, r7
  4041c4:	f801 3c01 	strb.w	r3, [r1, #-1]
  4041c8:	f101 3bff 	add.w	fp, r1, #4294967295
  4041cc:	d1ee      	bne.n	4041ac <_vfiprintf_r+0x974>
  4041ce:	9a02      	ldr	r2, [sp, #8]
  4041d0:	07d6      	lsls	r6, r2, #31
  4041d2:	f57f ad9d 	bpl.w	403d10 <_vfiprintf_r+0x4d8>
  4041d6:	2b30      	cmp	r3, #48	; 0x30
  4041d8:	f43f ad9a 	beq.w	403d10 <_vfiprintf_r+0x4d8>
  4041dc:	3902      	subs	r1, #2
  4041de:	2330      	movs	r3, #48	; 0x30
  4041e0:	f80b 3c01 	strb.w	r3, [fp, #-1]
  4041e4:	eba9 0301 	sub.w	r3, r9, r1
  4041e8:	9305      	str	r3, [sp, #20]
  4041ea:	468b      	mov	fp, r1
  4041ec:	e476      	b.n	403adc <_vfiprintf_r+0x2a4>
  4041ee:	9b03      	ldr	r3, [sp, #12]
  4041f0:	9a08      	ldr	r2, [sp, #32]
  4041f2:	428a      	cmp	r2, r1
  4041f4:	bfac      	ite	ge
  4041f6:	189b      	addge	r3, r3, r2
  4041f8:	185b      	addlt	r3, r3, r1
  4041fa:	9303      	str	r3, [sp, #12]
  4041fc:	e798      	b.n	404130 <_vfiprintf_r+0x8f8>
  4041fe:	2202      	movs	r2, #2
  404200:	e44d      	b.n	403a9e <_vfiprintf_r+0x266>
  404202:	2f00      	cmp	r7, #0
  404204:	bf08      	it	eq
  404206:	2e0a      	cmpeq	r6, #10
  404208:	d352      	bcc.n	4042b0 <_vfiprintf_r+0xa78>
  40420a:	46cb      	mov	fp, r9
  40420c:	4630      	mov	r0, r6
  40420e:	4639      	mov	r1, r7
  404210:	220a      	movs	r2, #10
  404212:	2300      	movs	r3, #0
  404214:	f003 ff40 	bl	408098 <__aeabi_uldivmod>
  404218:	3230      	adds	r2, #48	; 0x30
  40421a:	f80b 2d01 	strb.w	r2, [fp, #-1]!
  40421e:	4630      	mov	r0, r6
  404220:	4639      	mov	r1, r7
  404222:	2300      	movs	r3, #0
  404224:	220a      	movs	r2, #10
  404226:	f003 ff37 	bl	408098 <__aeabi_uldivmod>
  40422a:	4606      	mov	r6, r0
  40422c:	460f      	mov	r7, r1
  40422e:	ea56 0307 	orrs.w	r3, r6, r7
  404232:	d1eb      	bne.n	40420c <_vfiprintf_r+0x9d4>
  404234:	e56c      	b.n	403d10 <_vfiprintf_r+0x4d8>
  404236:	9405      	str	r4, [sp, #20]
  404238:	46cb      	mov	fp, r9
  40423a:	e44f      	b.n	403adc <_vfiprintf_r+0x2a4>
  40423c:	aa0f      	add	r2, sp, #60	; 0x3c
  40423e:	9904      	ldr	r1, [sp, #16]
  404240:	9806      	ldr	r0, [sp, #24]
  404242:	f7ff fab9 	bl	4037b8 <__sprint_r.part.0>
  404246:	2800      	cmp	r0, #0
  404248:	d1a8      	bne.n	40419c <_vfiprintf_r+0x964>
  40424a:	9a11      	ldr	r2, [sp, #68]	; 0x44
  40424c:	46ca      	mov	sl, r9
  40424e:	e75e      	b.n	40410e <_vfiprintf_r+0x8d6>
  404250:	aa0f      	add	r2, sp, #60	; 0x3c
  404252:	9904      	ldr	r1, [sp, #16]
  404254:	9806      	ldr	r0, [sp, #24]
  404256:	f7ff faaf 	bl	4037b8 <__sprint_r.part.0>
  40425a:	2800      	cmp	r0, #0
  40425c:	d19e      	bne.n	40419c <_vfiprintf_r+0x964>
  40425e:	46ca      	mov	sl, r9
  404260:	f7ff bbc0 	b.w	4039e4 <_vfiprintf_r+0x1ac>
  404264:	00408cf0 	.word	0x00408cf0
  404268:	00408ce0 	.word	0x00408ce0
  40426c:	3104      	adds	r1, #4
  40426e:	6816      	ldr	r6, [r2, #0]
  404270:	9107      	str	r1, [sp, #28]
  404272:	2201      	movs	r2, #1
  404274:	2700      	movs	r7, #0
  404276:	e412      	b.n	403a9e <_vfiprintf_r+0x266>
  404278:	9807      	ldr	r0, [sp, #28]
  40427a:	4601      	mov	r1, r0
  40427c:	3104      	adds	r1, #4
  40427e:	6806      	ldr	r6, [r0, #0]
  404280:	9107      	str	r1, [sp, #28]
  404282:	2700      	movs	r7, #0
  404284:	e40b      	b.n	403a9e <_vfiprintf_r+0x266>
  404286:	680e      	ldr	r6, [r1, #0]
  404288:	3104      	adds	r1, #4
  40428a:	9107      	str	r1, [sp, #28]
  40428c:	2700      	movs	r7, #0
  40428e:	e591      	b.n	403db4 <_vfiprintf_r+0x57c>
  404290:	9907      	ldr	r1, [sp, #28]
  404292:	680e      	ldr	r6, [r1, #0]
  404294:	460a      	mov	r2, r1
  404296:	17f7      	asrs	r7, r6, #31
  404298:	3204      	adds	r2, #4
  40429a:	9207      	str	r2, [sp, #28]
  40429c:	4630      	mov	r0, r6
  40429e:	4639      	mov	r1, r7
  4042a0:	e50f      	b.n	403cc2 <_vfiprintf_r+0x48a>
  4042a2:	f8db 0058 	ldr.w	r0, [fp, #88]	; 0x58
  4042a6:	f001 fe4d 	bl	405f44 <__retarget_lock_release_recursive>
  4042aa:	f8bb 300c 	ldrh.w	r3, [fp, #12]
  4042ae:	e71a      	b.n	4040e6 <_vfiprintf_r+0x8ae>
  4042b0:	9b02      	ldr	r3, [sp, #8]
  4042b2:	9302      	str	r3, [sp, #8]
  4042b4:	f10d 0bb0 	add.w	fp, sp, #176	; 0xb0
  4042b8:	3630      	adds	r6, #48	; 0x30
  4042ba:	2301      	movs	r3, #1
  4042bc:	f80b 6d41 	strb.w	r6, [fp, #-65]!
  4042c0:	9305      	str	r3, [sp, #20]
  4042c2:	e40b      	b.n	403adc <_vfiprintf_r+0x2a4>
  4042c4:	aa0f      	add	r2, sp, #60	; 0x3c
  4042c6:	9904      	ldr	r1, [sp, #16]
  4042c8:	9806      	ldr	r0, [sp, #24]
  4042ca:	f7ff fa75 	bl	4037b8 <__sprint_r.part.0>
  4042ce:	2800      	cmp	r0, #0
  4042d0:	f47f af64 	bne.w	40419c <_vfiprintf_r+0x964>
  4042d4:	9910      	ldr	r1, [sp, #64]	; 0x40
  4042d6:	9a11      	ldr	r2, [sp, #68]	; 0x44
  4042d8:	1c48      	adds	r0, r1, #1
  4042da:	46ca      	mov	sl, r9
  4042dc:	e651      	b.n	403f82 <_vfiprintf_r+0x74a>
  4042de:	aa0f      	add	r2, sp, #60	; 0x3c
  4042e0:	9904      	ldr	r1, [sp, #16]
  4042e2:	9806      	ldr	r0, [sp, #24]
  4042e4:	f7ff fa68 	bl	4037b8 <__sprint_r.part.0>
  4042e8:	2800      	cmp	r0, #0
  4042ea:	f47f af57 	bne.w	40419c <_vfiprintf_r+0x964>
  4042ee:	9910      	ldr	r1, [sp, #64]	; 0x40
  4042f0:	9a11      	ldr	r2, [sp, #68]	; 0x44
  4042f2:	1c48      	adds	r0, r1, #1
  4042f4:	46ca      	mov	sl, r9
  4042f6:	e448      	b.n	403b8a <_vfiprintf_r+0x352>
  4042f8:	2a00      	cmp	r2, #0
  4042fa:	f040 8091 	bne.w	404420 <_vfiprintf_r+0xbe8>
  4042fe:	2001      	movs	r0, #1
  404300:	4611      	mov	r1, r2
  404302:	46ca      	mov	sl, r9
  404304:	e641      	b.n	403f8a <_vfiprintf_r+0x752>
  404306:	aa0f      	add	r2, sp, #60	; 0x3c
  404308:	9904      	ldr	r1, [sp, #16]
  40430a:	9806      	ldr	r0, [sp, #24]
  40430c:	f7ff fa54 	bl	4037b8 <__sprint_r.part.0>
  404310:	2800      	cmp	r0, #0
  404312:	f47f af43 	bne.w	40419c <_vfiprintf_r+0x964>
  404316:	9810      	ldr	r0, [sp, #64]	; 0x40
  404318:	9a11      	ldr	r2, [sp, #68]	; 0x44
  40431a:	3001      	adds	r0, #1
  40431c:	46ca      	mov	sl, r9
  40431e:	e667      	b.n	403ff0 <_vfiprintf_r+0x7b8>
  404320:	46d3      	mov	fp, sl
  404322:	e6d6      	b.n	4040d2 <_vfiprintf_r+0x89a>
  404324:	9e07      	ldr	r6, [sp, #28]
  404326:	3607      	adds	r6, #7
  404328:	f026 0207 	bic.w	r2, r6, #7
  40432c:	f102 0108 	add.w	r1, r2, #8
  404330:	e9d2 6700 	ldrd	r6, r7, [r2]
  404334:	9107      	str	r1, [sp, #28]
  404336:	2201      	movs	r2, #1
  404338:	f7ff bbb1 	b.w	403a9e <_vfiprintf_r+0x266>
  40433c:	9e07      	ldr	r6, [sp, #28]
  40433e:	3607      	adds	r6, #7
  404340:	f026 0607 	bic.w	r6, r6, #7
  404344:	e9d6 0100 	ldrd	r0, r1, [r6]
  404348:	f106 0208 	add.w	r2, r6, #8
  40434c:	9207      	str	r2, [sp, #28]
  40434e:	4606      	mov	r6, r0
  404350:	460f      	mov	r7, r1
  404352:	e4b6      	b.n	403cc2 <_vfiprintf_r+0x48a>
  404354:	9e07      	ldr	r6, [sp, #28]
  404356:	3607      	adds	r6, #7
  404358:	f026 0207 	bic.w	r2, r6, #7
  40435c:	f102 0108 	add.w	r1, r2, #8
  404360:	e9d2 6700 	ldrd	r6, r7, [r2]
  404364:	9107      	str	r1, [sp, #28]
  404366:	2200      	movs	r2, #0
  404368:	f7ff bb99 	b.w	403a9e <_vfiprintf_r+0x266>
  40436c:	9e07      	ldr	r6, [sp, #28]
  40436e:	3607      	adds	r6, #7
  404370:	f026 0107 	bic.w	r1, r6, #7
  404374:	f101 0008 	add.w	r0, r1, #8
  404378:	9007      	str	r0, [sp, #28]
  40437a:	e9d1 6700 	ldrd	r6, r7, [r1]
  40437e:	e519      	b.n	403db4 <_vfiprintf_r+0x57c>
  404380:	46cb      	mov	fp, r9
  404382:	f7ff bbab 	b.w	403adc <_vfiprintf_r+0x2a4>
  404386:	252d      	movs	r5, #45	; 0x2d
  404388:	4276      	negs	r6, r6
  40438a:	eb67 0747 	sbc.w	r7, r7, r7, lsl #1
  40438e:	f88d 5037 	strb.w	r5, [sp, #55]	; 0x37
  404392:	2201      	movs	r2, #1
  404394:	f7ff bb88 	b.w	403aa8 <_vfiprintf_r+0x270>
  404398:	9b09      	ldr	r3, [sp, #36]	; 0x24
  40439a:	b9b3      	cbnz	r3, 4043ca <_vfiprintf_r+0xb92>
  40439c:	4611      	mov	r1, r2
  40439e:	2001      	movs	r0, #1
  4043a0:	46ca      	mov	sl, r9
  4043a2:	e5f2      	b.n	403f8a <_vfiprintf_r+0x752>
  4043a4:	f8db 0058 	ldr.w	r0, [fp, #88]	; 0x58
  4043a8:	f001 fdcc 	bl	405f44 <__retarget_lock_release_recursive>
  4043ac:	f04f 33ff 	mov.w	r3, #4294967295
  4043b0:	9303      	str	r3, [sp, #12]
  4043b2:	f7ff bb50 	b.w	403a56 <_vfiprintf_r+0x21e>
  4043b6:	aa0f      	add	r2, sp, #60	; 0x3c
  4043b8:	9904      	ldr	r1, [sp, #16]
  4043ba:	9806      	ldr	r0, [sp, #24]
  4043bc:	f7ff f9fc 	bl	4037b8 <__sprint_r.part.0>
  4043c0:	2800      	cmp	r0, #0
  4043c2:	f47f aeeb 	bne.w	40419c <_vfiprintf_r+0x964>
  4043c6:	9a11      	ldr	r2, [sp, #68]	; 0x44
  4043c8:	e6a9      	b.n	40411e <_vfiprintf_r+0x8e6>
  4043ca:	ab0e      	add	r3, sp, #56	; 0x38
  4043cc:	2202      	movs	r2, #2
  4043ce:	931c      	str	r3, [sp, #112]	; 0x70
  4043d0:	921d      	str	r2, [sp, #116]	; 0x74
  4043d2:	2001      	movs	r0, #1
  4043d4:	46ca      	mov	sl, r9
  4043d6:	e5d0      	b.n	403f7a <_vfiprintf_r+0x742>
  4043d8:	aa0f      	add	r2, sp, #60	; 0x3c
  4043da:	9904      	ldr	r1, [sp, #16]
  4043dc:	9806      	ldr	r0, [sp, #24]
  4043de:	f7ff f9eb 	bl	4037b8 <__sprint_r.part.0>
  4043e2:	2800      	cmp	r0, #0
  4043e4:	f47f aeda 	bne.w	40419c <_vfiprintf_r+0x964>
  4043e8:	9910      	ldr	r1, [sp, #64]	; 0x40
  4043ea:	9a11      	ldr	r2, [sp, #68]	; 0x44
  4043ec:	1c48      	adds	r0, r1, #1
  4043ee:	46ca      	mov	sl, r9
  4043f0:	e5a4      	b.n	403f3c <_vfiprintf_r+0x704>
  4043f2:	9a07      	ldr	r2, [sp, #28]
  4043f4:	9903      	ldr	r1, [sp, #12]
  4043f6:	6813      	ldr	r3, [r2, #0]
  4043f8:	17cd      	asrs	r5, r1, #31
  4043fa:	4608      	mov	r0, r1
  4043fc:	3204      	adds	r2, #4
  4043fe:	4629      	mov	r1, r5
  404400:	9207      	str	r2, [sp, #28]
  404402:	e9c3 0100 	strd	r0, r1, [r3]
  404406:	f7ff ba54 	b.w	4038b2 <_vfiprintf_r+0x7a>
  40440a:	4658      	mov	r0, fp
  40440c:	9607      	str	r6, [sp, #28]
  40440e:	9302      	str	r3, [sp, #8]
  404410:	f7fd ff36 	bl	402280 <strlen>
  404414:	2400      	movs	r4, #0
  404416:	9005      	str	r0, [sp, #20]
  404418:	f89d 5037 	ldrb.w	r5, [sp, #55]	; 0x37
  40441c:	f7ff bb5e 	b.w	403adc <_vfiprintf_r+0x2a4>
  404420:	aa0f      	add	r2, sp, #60	; 0x3c
  404422:	9904      	ldr	r1, [sp, #16]
  404424:	9806      	ldr	r0, [sp, #24]
  404426:	f7ff f9c7 	bl	4037b8 <__sprint_r.part.0>
  40442a:	2800      	cmp	r0, #0
  40442c:	f47f aeb6 	bne.w	40419c <_vfiprintf_r+0x964>
  404430:	9910      	ldr	r1, [sp, #64]	; 0x40
  404432:	9a11      	ldr	r2, [sp, #68]	; 0x44
  404434:	1c48      	adds	r0, r1, #1
  404436:	46ca      	mov	sl, r9
  404438:	e5a7      	b.n	403f8a <_vfiprintf_r+0x752>
  40443a:	9910      	ldr	r1, [sp, #64]	; 0x40
  40443c:	9a11      	ldr	r2, [sp, #68]	; 0x44
  40443e:	4e20      	ldr	r6, [pc, #128]	; (4044c0 <_vfiprintf_r+0xc88>)
  404440:	3101      	adds	r1, #1
  404442:	f7ff bb90 	b.w	403b66 <_vfiprintf_r+0x32e>
  404446:	2c06      	cmp	r4, #6
  404448:	bf28      	it	cs
  40444a:	2406      	movcs	r4, #6
  40444c:	9405      	str	r4, [sp, #20]
  40444e:	9607      	str	r6, [sp, #28]
  404450:	9401      	str	r4, [sp, #4]
  404452:	f8df b070 	ldr.w	fp, [pc, #112]	; 4044c4 <_vfiprintf_r+0xc8c>
  404456:	e4d5      	b.n	403e04 <_vfiprintf_r+0x5cc>
  404458:	9810      	ldr	r0, [sp, #64]	; 0x40
  40445a:	4e19      	ldr	r6, [pc, #100]	; (4044c0 <_vfiprintf_r+0xc88>)
  40445c:	3001      	adds	r0, #1
  40445e:	e603      	b.n	404068 <_vfiprintf_r+0x830>
  404460:	9405      	str	r4, [sp, #20]
  404462:	f89d 5037 	ldrb.w	r5, [sp, #55]	; 0x37
  404466:	9607      	str	r6, [sp, #28]
  404468:	9302      	str	r3, [sp, #8]
  40446a:	4604      	mov	r4, r0
  40446c:	f7ff bb36 	b.w	403adc <_vfiprintf_r+0x2a4>
  404470:	4686      	mov	lr, r0
  404472:	f7ff bbce 	b.w	403c12 <_vfiprintf_r+0x3da>
  404476:	9806      	ldr	r0, [sp, #24]
  404478:	aa0f      	add	r2, sp, #60	; 0x3c
  40447a:	4659      	mov	r1, fp
  40447c:	f7ff f99c 	bl	4037b8 <__sprint_r.part.0>
  404480:	2800      	cmp	r0, #0
  404482:	f43f ae24 	beq.w	4040ce <_vfiprintf_r+0x896>
  404486:	e624      	b.n	4040d2 <_vfiprintf_r+0x89a>
  404488:	9907      	ldr	r1, [sp, #28]
  40448a:	f898 2001 	ldrb.w	r2, [r8, #1]
  40448e:	680c      	ldr	r4, [r1, #0]
  404490:	3104      	adds	r1, #4
  404492:	ea44 74e4 	orr.w	r4, r4, r4, asr #31
  404496:	46b8      	mov	r8, r7
  404498:	9107      	str	r1, [sp, #28]
  40449a:	f7ff ba3f 	b.w	40391c <_vfiprintf_r+0xe4>
  40449e:	f88d 5037 	strb.w	r5, [sp, #55]	; 0x37
  4044a2:	e43c      	b.n	403d1e <_vfiprintf_r+0x4e6>
  4044a4:	f88d 5037 	strb.w	r5, [sp, #55]	; 0x37
  4044a8:	e521      	b.n	403eee <_vfiprintf_r+0x6b6>
  4044aa:	f88d 5037 	strb.w	r5, [sp, #55]	; 0x37
  4044ae:	f7ff bbf4 	b.w	403c9a <_vfiprintf_r+0x462>
  4044b2:	f88d 5037 	strb.w	r5, [sp, #55]	; 0x37
  4044b6:	e491      	b.n	403ddc <_vfiprintf_r+0x5a4>
  4044b8:	f88d 5037 	strb.w	r5, [sp, #55]	; 0x37
  4044bc:	e469      	b.n	403d92 <_vfiprintf_r+0x55a>
  4044be:	bf00      	nop
  4044c0:	00408ce0 	.word	0x00408ce0
  4044c4:	00408cb4 	.word	0x00408cb4

004044c8 <__sbprintf>:
  4044c8:	e92d 41f0 	stmdb	sp!, {r4, r5, r6, r7, r8, lr}
  4044cc:	460c      	mov	r4, r1
  4044ce:	f5ad 6d8d 	sub.w	sp, sp, #1128	; 0x468
  4044d2:	8989      	ldrh	r1, [r1, #12]
  4044d4:	6e66      	ldr	r6, [r4, #100]	; 0x64
  4044d6:	89e5      	ldrh	r5, [r4, #14]
  4044d8:	9619      	str	r6, [sp, #100]	; 0x64
  4044da:	f021 0102 	bic.w	r1, r1, #2
  4044de:	4606      	mov	r6, r0
  4044e0:	69e0      	ldr	r0, [r4, #28]
  4044e2:	f8ad 100c 	strh.w	r1, [sp, #12]
  4044e6:	4617      	mov	r7, r2
  4044e8:	f44f 6180 	mov.w	r1, #1024	; 0x400
  4044ec:	6a62      	ldr	r2, [r4, #36]	; 0x24
  4044ee:	f8ad 500e 	strh.w	r5, [sp, #14]
  4044f2:	4698      	mov	r8, r3
  4044f4:	ad1a      	add	r5, sp, #104	; 0x68
  4044f6:	2300      	movs	r3, #0
  4044f8:	9007      	str	r0, [sp, #28]
  4044fa:	a816      	add	r0, sp, #88	; 0x58
  4044fc:	9209      	str	r2, [sp, #36]	; 0x24
  4044fe:	9306      	str	r3, [sp, #24]
  404500:	9500      	str	r5, [sp, #0]
  404502:	9504      	str	r5, [sp, #16]
  404504:	9102      	str	r1, [sp, #8]
  404506:	9105      	str	r1, [sp, #20]
  404508:	f001 fd16 	bl	405f38 <__retarget_lock_init_recursive>
  40450c:	4643      	mov	r3, r8
  40450e:	463a      	mov	r2, r7
  404510:	4669      	mov	r1, sp
  404512:	4630      	mov	r0, r6
  404514:	f7ff f990 	bl	403838 <_vfiprintf_r>
  404518:	1e05      	subs	r5, r0, #0
  40451a:	db07      	blt.n	40452c <__sbprintf+0x64>
  40451c:	4630      	mov	r0, r6
  40451e:	4669      	mov	r1, sp
  404520:	f001 f8e8 	bl	4056f4 <_fflush_r>
  404524:	2800      	cmp	r0, #0
  404526:	bf18      	it	ne
  404528:	f04f 35ff 	movne.w	r5, #4294967295
  40452c:	f8bd 300c 	ldrh.w	r3, [sp, #12]
  404530:	065b      	lsls	r3, r3, #25
  404532:	d503      	bpl.n	40453c <__sbprintf+0x74>
  404534:	89a3      	ldrh	r3, [r4, #12]
  404536:	f043 0340 	orr.w	r3, r3, #64	; 0x40
  40453a:	81a3      	strh	r3, [r4, #12]
  40453c:	9816      	ldr	r0, [sp, #88]	; 0x58
  40453e:	f001 fcfd 	bl	405f3c <__retarget_lock_close_recursive>
  404542:	4628      	mov	r0, r5
  404544:	f50d 6d8d 	add.w	sp, sp, #1128	; 0x468
  404548:	e8bd 81f0 	ldmia.w	sp!, {r4, r5, r6, r7, r8, pc}

0040454c <__swsetup_r>:
  40454c:	b538      	push	{r3, r4, r5, lr}
  40454e:	4b30      	ldr	r3, [pc, #192]	; (404610 <__swsetup_r+0xc4>)
  404550:	681b      	ldr	r3, [r3, #0]
  404552:	4605      	mov	r5, r0
  404554:	460c      	mov	r4, r1
  404556:	b113      	cbz	r3, 40455e <__swsetup_r+0x12>
  404558:	6b9a      	ldr	r2, [r3, #56]	; 0x38
  40455a:	2a00      	cmp	r2, #0
  40455c:	d038      	beq.n	4045d0 <__swsetup_r+0x84>
  40455e:	f9b4 200c 	ldrsh.w	r2, [r4, #12]
  404562:	b293      	uxth	r3, r2
  404564:	0718      	lsls	r0, r3, #28
  404566:	d50c      	bpl.n	404582 <__swsetup_r+0x36>
  404568:	6920      	ldr	r0, [r4, #16]
  40456a:	b1a8      	cbz	r0, 404598 <__swsetup_r+0x4c>
  40456c:	f013 0201 	ands.w	r2, r3, #1
  404570:	d01e      	beq.n	4045b0 <__swsetup_r+0x64>
  404572:	6963      	ldr	r3, [r4, #20]
  404574:	2200      	movs	r2, #0
  404576:	425b      	negs	r3, r3
  404578:	61a3      	str	r3, [r4, #24]
  40457a:	60a2      	str	r2, [r4, #8]
  40457c:	b1f0      	cbz	r0, 4045bc <__swsetup_r+0x70>
  40457e:	2000      	movs	r0, #0
  404580:	bd38      	pop	{r3, r4, r5, pc}
  404582:	06d9      	lsls	r1, r3, #27
  404584:	d53c      	bpl.n	404600 <__swsetup_r+0xb4>
  404586:	0758      	lsls	r0, r3, #29
  404588:	d426      	bmi.n	4045d8 <__swsetup_r+0x8c>
  40458a:	6920      	ldr	r0, [r4, #16]
  40458c:	f042 0308 	orr.w	r3, r2, #8
  404590:	81a3      	strh	r3, [r4, #12]
  404592:	b29b      	uxth	r3, r3
  404594:	2800      	cmp	r0, #0
  404596:	d1e9      	bne.n	40456c <__swsetup_r+0x20>
  404598:	f403 7220 	and.w	r2, r3, #640	; 0x280
  40459c:	f5b2 7f00 	cmp.w	r2, #512	; 0x200
  4045a0:	d0e4      	beq.n	40456c <__swsetup_r+0x20>
  4045a2:	4628      	mov	r0, r5
  4045a4:	4621      	mov	r1, r4
  4045a6:	f001 fcfd 	bl	405fa4 <__smakebuf_r>
  4045aa:	89a3      	ldrh	r3, [r4, #12]
  4045ac:	6920      	ldr	r0, [r4, #16]
  4045ae:	e7dd      	b.n	40456c <__swsetup_r+0x20>
  4045b0:	0799      	lsls	r1, r3, #30
  4045b2:	bf58      	it	pl
  4045b4:	6962      	ldrpl	r2, [r4, #20]
  4045b6:	60a2      	str	r2, [r4, #8]
  4045b8:	2800      	cmp	r0, #0
  4045ba:	d1e0      	bne.n	40457e <__swsetup_r+0x32>
  4045bc:	f9b4 300c 	ldrsh.w	r3, [r4, #12]
  4045c0:	061a      	lsls	r2, r3, #24
  4045c2:	d5dd      	bpl.n	404580 <__swsetup_r+0x34>
  4045c4:	f043 0340 	orr.w	r3, r3, #64	; 0x40
  4045c8:	81a3      	strh	r3, [r4, #12]
  4045ca:	f04f 30ff 	mov.w	r0, #4294967295
  4045ce:	bd38      	pop	{r3, r4, r5, pc}
  4045d0:	4618      	mov	r0, r3
  4045d2:	f001 f8e7 	bl	4057a4 <__sinit>
  4045d6:	e7c2      	b.n	40455e <__swsetup_r+0x12>
  4045d8:	6b21      	ldr	r1, [r4, #48]	; 0x30
  4045da:	b151      	cbz	r1, 4045f2 <__swsetup_r+0xa6>
  4045dc:	f104 0340 	add.w	r3, r4, #64	; 0x40
  4045e0:	4299      	cmp	r1, r3
  4045e2:	d004      	beq.n	4045ee <__swsetup_r+0xa2>
  4045e4:	4628      	mov	r0, r5
  4045e6:	f001 fa03 	bl	4059f0 <_free_r>
  4045ea:	f9b4 200c 	ldrsh.w	r2, [r4, #12]
  4045ee:	2300      	movs	r3, #0
  4045f0:	6323      	str	r3, [r4, #48]	; 0x30
  4045f2:	2300      	movs	r3, #0
  4045f4:	6920      	ldr	r0, [r4, #16]
  4045f6:	6063      	str	r3, [r4, #4]
  4045f8:	f022 0224 	bic.w	r2, r2, #36	; 0x24
  4045fc:	6020      	str	r0, [r4, #0]
  4045fe:	e7c5      	b.n	40458c <__swsetup_r+0x40>
  404600:	f042 0240 	orr.w	r2, r2, #64	; 0x40
  404604:	2309      	movs	r3, #9
  404606:	602b      	str	r3, [r5, #0]
  404608:	f04f 30ff 	mov.w	r0, #4294967295
  40460c:	81a2      	strh	r2, [r4, #12]
  40460e:	bd38      	pop	{r3, r4, r5, pc}
  404610:	2000001c 	.word	0x2000001c

00404614 <register_fini>:
  404614:	4b02      	ldr	r3, [pc, #8]	; (404620 <register_fini+0xc>)
  404616:	b113      	cbz	r3, 40461e <register_fini+0xa>
  404618:	4802      	ldr	r0, [pc, #8]	; (404624 <register_fini+0x10>)
  40461a:	f000 b805 	b.w	404628 <atexit>
  40461e:	4770      	bx	lr
  404620:	00000000 	.word	0x00000000
  404624:	00405815 	.word	0x00405815

00404628 <atexit>:
  404628:	2300      	movs	r3, #0
  40462a:	4601      	mov	r1, r0
  40462c:	461a      	mov	r2, r3
  40462e:	4618      	mov	r0, r3
  404630:	f002 bf4a 	b.w	4074c8 <__register_exitproc>

00404634 <quorem>:
  404634:	6902      	ldr	r2, [r0, #16]
  404636:	690b      	ldr	r3, [r1, #16]
  404638:	4293      	cmp	r3, r2
  40463a:	f300 808d 	bgt.w	404758 <quorem+0x124>
  40463e:	e92d 4ff0 	stmdb	sp!, {r4, r5, r6, r7, r8, r9, sl, fp, lr}
  404642:	f103 38ff 	add.w	r8, r3, #4294967295
  404646:	f101 0714 	add.w	r7, r1, #20
  40464a:	f100 0b14 	add.w	fp, r0, #20
  40464e:	f857 2028 	ldr.w	r2, [r7, r8, lsl #2]
  404652:	f85b 3028 	ldr.w	r3, [fp, r8, lsl #2]
  404656:	ea4f 0488 	mov.w	r4, r8, lsl #2
  40465a:	b083      	sub	sp, #12
  40465c:	3201      	adds	r2, #1
  40465e:	fbb3 f9f2 	udiv	r9, r3, r2
  404662:	eb0b 0304 	add.w	r3, fp, r4
  404666:	9400      	str	r4, [sp, #0]
  404668:	eb07 0a04 	add.w	sl, r7, r4
  40466c:	9301      	str	r3, [sp, #4]
  40466e:	f1b9 0f00 	cmp.w	r9, #0
  404672:	d039      	beq.n	4046e8 <quorem+0xb4>
  404674:	2500      	movs	r5, #0
  404676:	462e      	mov	r6, r5
  404678:	46bc      	mov	ip, r7
  40467a:	46de      	mov	lr, fp
  40467c:	f85c 4b04 	ldr.w	r4, [ip], #4
  404680:	f8de 3000 	ldr.w	r3, [lr]
  404684:	b2a2      	uxth	r2, r4
  404686:	fb09 5502 	mla	r5, r9, r2, r5
  40468a:	0c22      	lsrs	r2, r4, #16
  40468c:	0c2c      	lsrs	r4, r5, #16
  40468e:	fb09 4202 	mla	r2, r9, r2, r4
  404692:	b2ad      	uxth	r5, r5
  404694:	1b75      	subs	r5, r6, r5
  404696:	b296      	uxth	r6, r2
  404698:	ebc6 4613 	rsb	r6, r6, r3, lsr #16
  40469c:	fa15 f383 	uxtah	r3, r5, r3
  4046a0:	eb06 4623 	add.w	r6, r6, r3, asr #16
  4046a4:	b29b      	uxth	r3, r3
  4046a6:	ea43 4306 	orr.w	r3, r3, r6, lsl #16
  4046aa:	45e2      	cmp	sl, ip
  4046ac:	ea4f 4512 	mov.w	r5, r2, lsr #16
  4046b0:	f84e 3b04 	str.w	r3, [lr], #4
  4046b4:	ea4f 4626 	mov.w	r6, r6, asr #16
  4046b8:	d2e0      	bcs.n	40467c <quorem+0x48>
  4046ba:	9b00      	ldr	r3, [sp, #0]
  4046bc:	f85b 3003 	ldr.w	r3, [fp, r3]
  4046c0:	b993      	cbnz	r3, 4046e8 <quorem+0xb4>
  4046c2:	9c01      	ldr	r4, [sp, #4]
  4046c4:	1f23      	subs	r3, r4, #4
  4046c6:	459b      	cmp	fp, r3
  4046c8:	d20c      	bcs.n	4046e4 <quorem+0xb0>
  4046ca:	f854 3c04 	ldr.w	r3, [r4, #-4]
  4046ce:	b94b      	cbnz	r3, 4046e4 <quorem+0xb0>
  4046d0:	f1a4 0308 	sub.w	r3, r4, #8
  4046d4:	e002      	b.n	4046dc <quorem+0xa8>
  4046d6:	681a      	ldr	r2, [r3, #0]
  4046d8:	3b04      	subs	r3, #4
  4046da:	b91a      	cbnz	r2, 4046e4 <quorem+0xb0>
  4046dc:	459b      	cmp	fp, r3
  4046de:	f108 38ff 	add.w	r8, r8, #4294967295
  4046e2:	d3f8      	bcc.n	4046d6 <quorem+0xa2>
  4046e4:	f8c0 8010 	str.w	r8, [r0, #16]
  4046e8:	4604      	mov	r4, r0
  4046ea:	f002 fad1 	bl	406c90 <__mcmp>
  4046ee:	2800      	cmp	r0, #0
  4046f0:	db2e      	blt.n	404750 <quorem+0x11c>
  4046f2:	f109 0901 	add.w	r9, r9, #1
  4046f6:	465d      	mov	r5, fp
  4046f8:	2300      	movs	r3, #0
  4046fa:	f857 1b04 	ldr.w	r1, [r7], #4
  4046fe:	6828      	ldr	r0, [r5, #0]
  404700:	b28a      	uxth	r2, r1
  404702:	1a9a      	subs	r2, r3, r2
  404704:	0c0b      	lsrs	r3, r1, #16
  404706:	fa12 f280 	uxtah	r2, r2, r0
  40470a:	ebc3 4310 	rsb	r3, r3, r0, lsr #16
  40470e:	eb03 4322 	add.w	r3, r3, r2, asr #16
  404712:	b292      	uxth	r2, r2
  404714:	ea42 4203 	orr.w	r2, r2, r3, lsl #16
  404718:	45ba      	cmp	sl, r7
  40471a:	f845 2b04 	str.w	r2, [r5], #4
  40471e:	ea4f 4323 	mov.w	r3, r3, asr #16
  404722:	d2ea      	bcs.n	4046fa <quorem+0xc6>
  404724:	f85b 2028 	ldr.w	r2, [fp, r8, lsl #2]
  404728:	eb0b 0388 	add.w	r3, fp, r8, lsl #2
  40472c:	b982      	cbnz	r2, 404750 <quorem+0x11c>
  40472e:	1f1a      	subs	r2, r3, #4
  404730:	4593      	cmp	fp, r2
  404732:	d20b      	bcs.n	40474c <quorem+0x118>
  404734:	f853 2c04 	ldr.w	r2, [r3, #-4]
  404738:	b942      	cbnz	r2, 40474c <quorem+0x118>
  40473a:	3b08      	subs	r3, #8
  40473c:	e002      	b.n	404744 <quorem+0x110>
  40473e:	681a      	ldr	r2, [r3, #0]
  404740:	3b04      	subs	r3, #4
  404742:	b91a      	cbnz	r2, 40474c <quorem+0x118>
  404744:	459b      	cmp	fp, r3
  404746:	f108 38ff 	add.w	r8, r8, #4294967295
  40474a:	d3f8      	bcc.n	40473e <quorem+0x10a>
  40474c:	f8c4 8010 	str.w	r8, [r4, #16]
  404750:	4648      	mov	r0, r9
  404752:	b003      	add	sp, #12
  404754:	e8bd 8ff0 	ldmia.w	sp!, {r4, r5, r6, r7, r8, r9, sl, fp, pc}
  404758:	2000      	movs	r0, #0
  40475a:	4770      	bx	lr
  40475c:	0000      	movs	r0, r0
	...

00404760 <_dtoa_r>:
  404760:	e92d 4ff0 	stmdb	sp!, {r4, r5, r6, r7, r8, r9, sl, fp, lr}
  404764:	6c01      	ldr	r1, [r0, #64]	; 0x40
  404766:	b09b      	sub	sp, #108	; 0x6c
  404768:	4604      	mov	r4, r0
  40476a:	9e27      	ldr	r6, [sp, #156]	; 0x9c
  40476c:	4692      	mov	sl, r2
  40476e:	469b      	mov	fp, r3
  404770:	b141      	cbz	r1, 404784 <_dtoa_r+0x24>
  404772:	6c42      	ldr	r2, [r0, #68]	; 0x44
  404774:	604a      	str	r2, [r1, #4]
  404776:	2301      	movs	r3, #1
  404778:	4093      	lsls	r3, r2
  40477a:	608b      	str	r3, [r1, #8]
  40477c:	f002 f8b0 	bl	4068e0 <_Bfree>
  404780:	2300      	movs	r3, #0
  404782:	6423      	str	r3, [r4, #64]	; 0x40
  404784:	f1bb 0f00 	cmp.w	fp, #0
  404788:	465d      	mov	r5, fp
  40478a:	db35      	blt.n	4047f8 <_dtoa_r+0x98>
  40478c:	2300      	movs	r3, #0
  40478e:	6033      	str	r3, [r6, #0]
  404790:	4b9d      	ldr	r3, [pc, #628]	; (404a08 <_dtoa_r+0x2a8>)
  404792:	43ab      	bics	r3, r5
  404794:	d015      	beq.n	4047c2 <_dtoa_r+0x62>
  404796:	4650      	mov	r0, sl
  404798:	4659      	mov	r1, fp
  40479a:	2200      	movs	r2, #0
  40479c:	2300      	movs	r3, #0
  40479e:	f003 fc0b 	bl	407fb8 <__aeabi_dcmpeq>
  4047a2:	4680      	mov	r8, r0
  4047a4:	2800      	cmp	r0, #0
  4047a6:	d02d      	beq.n	404804 <_dtoa_r+0xa4>
  4047a8:	9a26      	ldr	r2, [sp, #152]	; 0x98
  4047aa:	2301      	movs	r3, #1
  4047ac:	6013      	str	r3, [r2, #0]
  4047ae:	9b28      	ldr	r3, [sp, #160]	; 0xa0
  4047b0:	2b00      	cmp	r3, #0
  4047b2:	f000 80bd 	beq.w	404930 <_dtoa_r+0x1d0>
  4047b6:	4895      	ldr	r0, [pc, #596]	; (404a0c <_dtoa_r+0x2ac>)
  4047b8:	6018      	str	r0, [r3, #0]
  4047ba:	3801      	subs	r0, #1
  4047bc:	b01b      	add	sp, #108	; 0x6c
  4047be:	e8bd 8ff0 	ldmia.w	sp!, {r4, r5, r6, r7, r8, r9, sl, fp, pc}
  4047c2:	9a26      	ldr	r2, [sp, #152]	; 0x98
  4047c4:	f242 730f 	movw	r3, #9999	; 0x270f
  4047c8:	6013      	str	r3, [r2, #0]
  4047ca:	f1ba 0f00 	cmp.w	sl, #0
  4047ce:	d10d      	bne.n	4047ec <_dtoa_r+0x8c>
  4047d0:	f3c5 0513 	ubfx	r5, r5, #0, #20
  4047d4:	b955      	cbnz	r5, 4047ec <_dtoa_r+0x8c>
  4047d6:	9b28      	ldr	r3, [sp, #160]	; 0xa0
  4047d8:	488d      	ldr	r0, [pc, #564]	; (404a10 <_dtoa_r+0x2b0>)
  4047da:	2b00      	cmp	r3, #0
  4047dc:	d0ee      	beq.n	4047bc <_dtoa_r+0x5c>
  4047de:	f100 0308 	add.w	r3, r0, #8
  4047e2:	9a28      	ldr	r2, [sp, #160]	; 0xa0
  4047e4:	6013      	str	r3, [r2, #0]
  4047e6:	b01b      	add	sp, #108	; 0x6c
  4047e8:	e8bd 8ff0 	ldmia.w	sp!, {r4, r5, r6, r7, r8, r9, sl, fp, pc}
  4047ec:	9b28      	ldr	r3, [sp, #160]	; 0xa0
  4047ee:	4889      	ldr	r0, [pc, #548]	; (404a14 <_dtoa_r+0x2b4>)
  4047f0:	2b00      	cmp	r3, #0
  4047f2:	d0e3      	beq.n	4047bc <_dtoa_r+0x5c>
  4047f4:	1cc3      	adds	r3, r0, #3
  4047f6:	e7f4      	b.n	4047e2 <_dtoa_r+0x82>
  4047f8:	2301      	movs	r3, #1
  4047fa:	f02b 4500 	bic.w	r5, fp, #2147483648	; 0x80000000
  4047fe:	6033      	str	r3, [r6, #0]
  404800:	46ab      	mov	fp, r5
  404802:	e7c5      	b.n	404790 <_dtoa_r+0x30>
  404804:	aa18      	add	r2, sp, #96	; 0x60
  404806:	ab19      	add	r3, sp, #100	; 0x64
  404808:	9201      	str	r2, [sp, #4]
  40480a:	9300      	str	r3, [sp, #0]
  40480c:	4652      	mov	r2, sl
  40480e:	465b      	mov	r3, fp
  404810:	4620      	mov	r0, r4
  404812:	f002 fadd 	bl	406dd0 <__d2b>
  404816:	0d2b      	lsrs	r3, r5, #20
  404818:	4681      	mov	r9, r0
  40481a:	d071      	beq.n	404900 <_dtoa_r+0x1a0>
  40481c:	f3cb 0213 	ubfx	r2, fp, #0, #20
  404820:	f042 517f 	orr.w	r1, r2, #1069547520	; 0x3fc00000
  404824:	9f18      	ldr	r7, [sp, #96]	; 0x60
  404826:	f8cd 8050 	str.w	r8, [sp, #80]	; 0x50
  40482a:	4650      	mov	r0, sl
  40482c:	f2a3 36ff 	subw	r6, r3, #1023	; 0x3ff
  404830:	f441 1140 	orr.w	r1, r1, #3145728	; 0x300000
  404834:	2200      	movs	r2, #0
  404836:	4b78      	ldr	r3, [pc, #480]	; (404a18 <_dtoa_r+0x2b8>)
  404838:	f002 ffa2 	bl	407780 <__aeabi_dsub>
  40483c:	a36c      	add	r3, pc, #432	; (adr r3, 4049f0 <_dtoa_r+0x290>)
  40483e:	e9d3 2300 	ldrd	r2, r3, [r3]
  404842:	f003 f951 	bl	407ae8 <__aeabi_dmul>
  404846:	a36c      	add	r3, pc, #432	; (adr r3, 4049f8 <_dtoa_r+0x298>)
  404848:	e9d3 2300 	ldrd	r2, r3, [r3]
  40484c:	f002 ff9a 	bl	407784 <__adddf3>
  404850:	e9cd 0102 	strd	r0, r1, [sp, #8]
  404854:	4630      	mov	r0, r6
  404856:	f003 f8e1 	bl	407a1c <__aeabi_i2d>
  40485a:	a369      	add	r3, pc, #420	; (adr r3, 404a00 <_dtoa_r+0x2a0>)
  40485c:	e9d3 2300 	ldrd	r2, r3, [r3]
  404860:	f003 f942 	bl	407ae8 <__aeabi_dmul>
  404864:	4602      	mov	r2, r0
  404866:	460b      	mov	r3, r1
  404868:	e9dd 0102 	ldrd	r0, r1, [sp, #8]
  40486c:	f002 ff8a 	bl	407784 <__adddf3>
  404870:	e9cd 0104 	strd	r0, r1, [sp, #16]
  404874:	f003 fbe8 	bl	408048 <__aeabi_d2iz>
  404878:	2200      	movs	r2, #0
  40487a:	9002      	str	r0, [sp, #8]
  40487c:	2300      	movs	r3, #0
  40487e:	e9dd 0104 	ldrd	r0, r1, [sp, #16]
  404882:	f003 fba3 	bl	407fcc <__aeabi_dcmplt>
  404886:	2800      	cmp	r0, #0
  404888:	f040 8173 	bne.w	404b72 <_dtoa_r+0x412>
  40488c:	9d02      	ldr	r5, [sp, #8]
  40488e:	2d16      	cmp	r5, #22
  404890:	f200 815d 	bhi.w	404b4e <_dtoa_r+0x3ee>
  404894:	4b61      	ldr	r3, [pc, #388]	; (404a1c <_dtoa_r+0x2bc>)
  404896:	eb03 03c5 	add.w	r3, r3, r5, lsl #3
  40489a:	e9d3 0100 	ldrd	r0, r1, [r3]
  40489e:	4652      	mov	r2, sl
  4048a0:	465b      	mov	r3, fp
  4048a2:	f003 fbb1 	bl	408008 <__aeabi_dcmpgt>
  4048a6:	2800      	cmp	r0, #0
  4048a8:	f000 81c5 	beq.w	404c36 <_dtoa_r+0x4d6>
  4048ac:	1e6b      	subs	r3, r5, #1
  4048ae:	9302      	str	r3, [sp, #8]
  4048b0:	2300      	movs	r3, #0
  4048b2:	930e      	str	r3, [sp, #56]	; 0x38
  4048b4:	1bbf      	subs	r7, r7, r6
  4048b6:	1e7b      	subs	r3, r7, #1
  4048b8:	9306      	str	r3, [sp, #24]
  4048ba:	f100 8154 	bmi.w	404b66 <_dtoa_r+0x406>
  4048be:	2300      	movs	r3, #0
  4048c0:	9308      	str	r3, [sp, #32]
  4048c2:	9b02      	ldr	r3, [sp, #8]
  4048c4:	2b00      	cmp	r3, #0
  4048c6:	f2c0 8145 	blt.w	404b54 <_dtoa_r+0x3f4>
  4048ca:	9a06      	ldr	r2, [sp, #24]
  4048cc:	930d      	str	r3, [sp, #52]	; 0x34
  4048ce:	4611      	mov	r1, r2
  4048d0:	4419      	add	r1, r3
  4048d2:	2300      	movs	r3, #0
  4048d4:	9106      	str	r1, [sp, #24]
  4048d6:	930c      	str	r3, [sp, #48]	; 0x30
  4048d8:	9b24      	ldr	r3, [sp, #144]	; 0x90
  4048da:	2b09      	cmp	r3, #9
  4048dc:	d82a      	bhi.n	404934 <_dtoa_r+0x1d4>
  4048de:	2b05      	cmp	r3, #5
  4048e0:	f340 865b 	ble.w	40559a <_dtoa_r+0xe3a>
  4048e4:	3b04      	subs	r3, #4
  4048e6:	9324      	str	r3, [sp, #144]	; 0x90
  4048e8:	2500      	movs	r5, #0
  4048ea:	9b24      	ldr	r3, [sp, #144]	; 0x90
  4048ec:	3b02      	subs	r3, #2
  4048ee:	2b03      	cmp	r3, #3
  4048f0:	f200 8642 	bhi.w	405578 <_dtoa_r+0xe18>
  4048f4:	e8df f013 	tbh	[pc, r3, lsl #1]
  4048f8:	02c903d4 	.word	0x02c903d4
  4048fc:	046103df 	.word	0x046103df
  404900:	9f18      	ldr	r7, [sp, #96]	; 0x60
  404902:	9e19      	ldr	r6, [sp, #100]	; 0x64
  404904:	443e      	add	r6, r7
  404906:	f206 4332 	addw	r3, r6, #1074	; 0x432
  40490a:	2b20      	cmp	r3, #32
  40490c:	f340 818e 	ble.w	404c2c <_dtoa_r+0x4cc>
  404910:	f1c3 0340 	rsb	r3, r3, #64	; 0x40
  404914:	f206 4012 	addw	r0, r6, #1042	; 0x412
  404918:	409d      	lsls	r5, r3
  40491a:	fa2a f000 	lsr.w	r0, sl, r0
  40491e:	4328      	orrs	r0, r5
  404920:	f003 f86c 	bl	4079fc <__aeabi_ui2d>
  404924:	2301      	movs	r3, #1
  404926:	3e01      	subs	r6, #1
  404928:	f1a1 71f8 	sub.w	r1, r1, #32505856	; 0x1f00000
  40492c:	9314      	str	r3, [sp, #80]	; 0x50
  40492e:	e781      	b.n	404834 <_dtoa_r+0xd4>
  404930:	483b      	ldr	r0, [pc, #236]	; (404a20 <_dtoa_r+0x2c0>)
  404932:	e743      	b.n	4047bc <_dtoa_r+0x5c>
  404934:	2100      	movs	r1, #0
  404936:	6461      	str	r1, [r4, #68]	; 0x44
  404938:	4620      	mov	r0, r4
  40493a:	9125      	str	r1, [sp, #148]	; 0x94
  40493c:	f001 ffaa 	bl	406894 <_Balloc>
  404940:	f04f 33ff 	mov.w	r3, #4294967295
  404944:	930a      	str	r3, [sp, #40]	; 0x28
  404946:	9a25      	ldr	r2, [sp, #148]	; 0x94
  404948:	930f      	str	r3, [sp, #60]	; 0x3c
  40494a:	2301      	movs	r3, #1
  40494c:	9004      	str	r0, [sp, #16]
  40494e:	6420      	str	r0, [r4, #64]	; 0x40
  404950:	9224      	str	r2, [sp, #144]	; 0x90
  404952:	930b      	str	r3, [sp, #44]	; 0x2c
  404954:	9b19      	ldr	r3, [sp, #100]	; 0x64
  404956:	2b00      	cmp	r3, #0
  404958:	f2c0 80d9 	blt.w	404b0e <_dtoa_r+0x3ae>
  40495c:	9a02      	ldr	r2, [sp, #8]
  40495e:	2a0e      	cmp	r2, #14
  404960:	f300 80d5 	bgt.w	404b0e <_dtoa_r+0x3ae>
  404964:	4b2d      	ldr	r3, [pc, #180]	; (404a1c <_dtoa_r+0x2bc>)
  404966:	eb03 03c2 	add.w	r3, r3, r2, lsl #3
  40496a:	e9d3 2300 	ldrd	r2, r3, [r3]
  40496e:	e9cd 2308 	strd	r2, r3, [sp, #32]
  404972:	9b25      	ldr	r3, [sp, #148]	; 0x94
  404974:	2b00      	cmp	r3, #0
  404976:	f2c0 83ba 	blt.w	4050ee <_dtoa_r+0x98e>
  40497a:	e9dd 5608 	ldrd	r5, r6, [sp, #32]
  40497e:	4650      	mov	r0, sl
  404980:	462a      	mov	r2, r5
  404982:	4633      	mov	r3, r6
  404984:	4659      	mov	r1, fp
  404986:	f003 f9d9 	bl	407d3c <__aeabi_ddiv>
  40498a:	f003 fb5d 	bl	408048 <__aeabi_d2iz>
  40498e:	4680      	mov	r8, r0
  404990:	f003 f844 	bl	407a1c <__aeabi_i2d>
  404994:	462a      	mov	r2, r5
  404996:	4633      	mov	r3, r6
  404998:	f003 f8a6 	bl	407ae8 <__aeabi_dmul>
  40499c:	460b      	mov	r3, r1
  40499e:	4602      	mov	r2, r0
  4049a0:	4659      	mov	r1, fp
  4049a2:	4650      	mov	r0, sl
  4049a4:	f002 feec 	bl	407780 <__aeabi_dsub>
  4049a8:	9d04      	ldr	r5, [sp, #16]
  4049aa:	f108 0330 	add.w	r3, r8, #48	; 0x30
  4049ae:	702b      	strb	r3, [r5, #0]
  4049b0:	9b0a      	ldr	r3, [sp, #40]	; 0x28
  4049b2:	2b01      	cmp	r3, #1
  4049b4:	4606      	mov	r6, r0
  4049b6:	460f      	mov	r7, r1
  4049b8:	f105 0501 	add.w	r5, r5, #1
  4049bc:	d068      	beq.n	404a90 <_dtoa_r+0x330>
  4049be:	2200      	movs	r2, #0
  4049c0:	4b18      	ldr	r3, [pc, #96]	; (404a24 <_dtoa_r+0x2c4>)
  4049c2:	f003 f891 	bl	407ae8 <__aeabi_dmul>
  4049c6:	2200      	movs	r2, #0
  4049c8:	2300      	movs	r3, #0
  4049ca:	4606      	mov	r6, r0
  4049cc:	460f      	mov	r7, r1
  4049ce:	f003 faf3 	bl	407fb8 <__aeabi_dcmpeq>
  4049d2:	2800      	cmp	r0, #0
  4049d4:	f040 8088 	bne.w	404ae8 <_dtoa_r+0x388>
  4049d8:	f8cd 902c 	str.w	r9, [sp, #44]	; 0x2c
  4049dc:	f04f 0a00 	mov.w	sl, #0
  4049e0:	f8df b040 	ldr.w	fp, [pc, #64]	; 404a24 <_dtoa_r+0x2c4>
  4049e4:	940c      	str	r4, [sp, #48]	; 0x30
  4049e6:	e9dd 8908 	ldrd	r8, r9, [sp, #32]
  4049ea:	e028      	b.n	404a3e <_dtoa_r+0x2de>
  4049ec:	f3af 8000 	nop.w
  4049f0:	636f4361 	.word	0x636f4361
  4049f4:	3fd287a7 	.word	0x3fd287a7
  4049f8:	8b60c8b3 	.word	0x8b60c8b3
  4049fc:	3fc68a28 	.word	0x3fc68a28
  404a00:	509f79fb 	.word	0x509f79fb
  404a04:	3fd34413 	.word	0x3fd34413
  404a08:	7ff00000 	.word	0x7ff00000
  404a0c:	00408cbd 	.word	0x00408cbd
  404a10:	00408d00 	.word	0x00408d00
  404a14:	00408d0c 	.word	0x00408d0c
  404a18:	3ff80000 	.word	0x3ff80000
  404a1c:	00408d48 	.word	0x00408d48
  404a20:	00408cbc 	.word	0x00408cbc
  404a24:	40240000 	.word	0x40240000
  404a28:	f003 f85e 	bl	407ae8 <__aeabi_dmul>
  404a2c:	2200      	movs	r2, #0
  404a2e:	2300      	movs	r3, #0
  404a30:	4606      	mov	r6, r0
  404a32:	460f      	mov	r7, r1
  404a34:	f003 fac0 	bl	407fb8 <__aeabi_dcmpeq>
  404a38:	2800      	cmp	r0, #0
  404a3a:	f040 83c1 	bne.w	4051c0 <_dtoa_r+0xa60>
  404a3e:	4642      	mov	r2, r8
  404a40:	464b      	mov	r3, r9
  404a42:	4630      	mov	r0, r6
  404a44:	4639      	mov	r1, r7
  404a46:	f003 f979 	bl	407d3c <__aeabi_ddiv>
  404a4a:	f003 fafd 	bl	408048 <__aeabi_d2iz>
  404a4e:	4604      	mov	r4, r0
  404a50:	f002 ffe4 	bl	407a1c <__aeabi_i2d>
  404a54:	4642      	mov	r2, r8
  404a56:	464b      	mov	r3, r9
  404a58:	f003 f846 	bl	407ae8 <__aeabi_dmul>
  404a5c:	4602      	mov	r2, r0
  404a5e:	460b      	mov	r3, r1
  404a60:	4630      	mov	r0, r6
  404a62:	4639      	mov	r1, r7
  404a64:	f002 fe8c 	bl	407780 <__aeabi_dsub>
  404a68:	f104 0e30 	add.w	lr, r4, #48	; 0x30
  404a6c:	9e04      	ldr	r6, [sp, #16]
  404a6e:	f805 eb01 	strb.w	lr, [r5], #1
  404a72:	eba5 0e06 	sub.w	lr, r5, r6
  404a76:	9e0a      	ldr	r6, [sp, #40]	; 0x28
  404a78:	45b6      	cmp	lr, r6
  404a7a:	e9cd 0106 	strd	r0, r1, [sp, #24]
  404a7e:	4652      	mov	r2, sl
  404a80:	465b      	mov	r3, fp
  404a82:	d1d1      	bne.n	404a28 <_dtoa_r+0x2c8>
  404a84:	46a0      	mov	r8, r4
  404a86:	f8dd 902c 	ldr.w	r9, [sp, #44]	; 0x2c
  404a8a:	9c0c      	ldr	r4, [sp, #48]	; 0x30
  404a8c:	4606      	mov	r6, r0
  404a8e:	460f      	mov	r7, r1
  404a90:	4632      	mov	r2, r6
  404a92:	463b      	mov	r3, r7
  404a94:	4630      	mov	r0, r6
  404a96:	4639      	mov	r1, r7
  404a98:	f002 fe74 	bl	407784 <__adddf3>
  404a9c:	4606      	mov	r6, r0
  404a9e:	460f      	mov	r7, r1
  404aa0:	4602      	mov	r2, r0
  404aa2:	460b      	mov	r3, r1
  404aa4:	e9dd 0108 	ldrd	r0, r1, [sp, #32]
  404aa8:	f003 fa90 	bl	407fcc <__aeabi_dcmplt>
  404aac:	b948      	cbnz	r0, 404ac2 <_dtoa_r+0x362>
  404aae:	4632      	mov	r2, r6
  404ab0:	463b      	mov	r3, r7
  404ab2:	e9dd 0108 	ldrd	r0, r1, [sp, #32]
  404ab6:	f003 fa7f 	bl	407fb8 <__aeabi_dcmpeq>
  404aba:	b1a8      	cbz	r0, 404ae8 <_dtoa_r+0x388>
  404abc:	f018 0f01 	tst.w	r8, #1
  404ac0:	d012      	beq.n	404ae8 <_dtoa_r+0x388>
  404ac2:	f815 8c01 	ldrb.w	r8, [r5, #-1]
  404ac6:	9a04      	ldr	r2, [sp, #16]
  404ac8:	1e6b      	subs	r3, r5, #1
  404aca:	e004      	b.n	404ad6 <_dtoa_r+0x376>
  404acc:	429a      	cmp	r2, r3
  404ace:	f000 8401 	beq.w	4052d4 <_dtoa_r+0xb74>
  404ad2:	f813 8d01 	ldrb.w	r8, [r3, #-1]!
  404ad6:	f1b8 0f39 	cmp.w	r8, #57	; 0x39
  404ada:	f103 0501 	add.w	r5, r3, #1
  404ade:	d0f5      	beq.n	404acc <_dtoa_r+0x36c>
  404ae0:	f108 0801 	add.w	r8, r8, #1
  404ae4:	f883 8000 	strb.w	r8, [r3]
  404ae8:	4649      	mov	r1, r9
  404aea:	4620      	mov	r0, r4
  404aec:	f001 fef8 	bl	4068e0 <_Bfree>
  404af0:	2200      	movs	r2, #0
  404af2:	9b02      	ldr	r3, [sp, #8]
  404af4:	702a      	strb	r2, [r5, #0]
  404af6:	9a26      	ldr	r2, [sp, #152]	; 0x98
  404af8:	3301      	adds	r3, #1
  404afa:	6013      	str	r3, [r2, #0]
  404afc:	9b28      	ldr	r3, [sp, #160]	; 0xa0
  404afe:	2b00      	cmp	r3, #0
  404b00:	f000 839e 	beq.w	405240 <_dtoa_r+0xae0>
  404b04:	9804      	ldr	r0, [sp, #16]
  404b06:	601d      	str	r5, [r3, #0]
  404b08:	b01b      	add	sp, #108	; 0x6c
  404b0a:	e8bd 8ff0 	ldmia.w	sp!, {r4, r5, r6, r7, r8, r9, sl, fp, pc}
  404b0e:	9a0b      	ldr	r2, [sp, #44]	; 0x2c
  404b10:	2a00      	cmp	r2, #0
  404b12:	d03e      	beq.n	404b92 <_dtoa_r+0x432>
  404b14:	9a24      	ldr	r2, [sp, #144]	; 0x90
  404b16:	2a01      	cmp	r2, #1
  404b18:	f340 8311 	ble.w	40513e <_dtoa_r+0x9de>
  404b1c:	9b0a      	ldr	r3, [sp, #40]	; 0x28
  404b1e:	9a0c      	ldr	r2, [sp, #48]	; 0x30
  404b20:	1e5f      	subs	r7, r3, #1
  404b22:	42ba      	cmp	r2, r7
  404b24:	f2c0 838f 	blt.w	405246 <_dtoa_r+0xae6>
  404b28:	1bd7      	subs	r7, r2, r7
  404b2a:	9b0a      	ldr	r3, [sp, #40]	; 0x28
  404b2c:	2b00      	cmp	r3, #0
  404b2e:	f2c0 848b 	blt.w	405448 <_dtoa_r+0xce8>
  404b32:	9d08      	ldr	r5, [sp, #32]
  404b34:	9b0a      	ldr	r3, [sp, #40]	; 0x28
  404b36:	9a08      	ldr	r2, [sp, #32]
  404b38:	441a      	add	r2, r3
  404b3a:	9208      	str	r2, [sp, #32]
  404b3c:	9a06      	ldr	r2, [sp, #24]
  404b3e:	2101      	movs	r1, #1
  404b40:	441a      	add	r2, r3
  404b42:	4620      	mov	r0, r4
  404b44:	9206      	str	r2, [sp, #24]
  404b46:	f001 ff65 	bl	406a14 <__i2b>
  404b4a:	4606      	mov	r6, r0
  404b4c:	e024      	b.n	404b98 <_dtoa_r+0x438>
  404b4e:	2301      	movs	r3, #1
  404b50:	930e      	str	r3, [sp, #56]	; 0x38
  404b52:	e6af      	b.n	4048b4 <_dtoa_r+0x154>
  404b54:	9a08      	ldr	r2, [sp, #32]
  404b56:	9b02      	ldr	r3, [sp, #8]
  404b58:	1ad2      	subs	r2, r2, r3
  404b5a:	425b      	negs	r3, r3
  404b5c:	930c      	str	r3, [sp, #48]	; 0x30
  404b5e:	2300      	movs	r3, #0
  404b60:	9208      	str	r2, [sp, #32]
  404b62:	930d      	str	r3, [sp, #52]	; 0x34
  404b64:	e6b8      	b.n	4048d8 <_dtoa_r+0x178>
  404b66:	f1c7 0301 	rsb	r3, r7, #1
  404b6a:	9308      	str	r3, [sp, #32]
  404b6c:	2300      	movs	r3, #0
  404b6e:	9306      	str	r3, [sp, #24]
  404b70:	e6a7      	b.n	4048c2 <_dtoa_r+0x162>
  404b72:	9d02      	ldr	r5, [sp, #8]
  404b74:	4628      	mov	r0, r5
  404b76:	f002 ff51 	bl	407a1c <__aeabi_i2d>
  404b7a:	4602      	mov	r2, r0
  404b7c:	460b      	mov	r3, r1
  404b7e:	e9dd 0104 	ldrd	r0, r1, [sp, #16]
  404b82:	f003 fa19 	bl	407fb8 <__aeabi_dcmpeq>
  404b86:	2800      	cmp	r0, #0
  404b88:	f47f ae80 	bne.w	40488c <_dtoa_r+0x12c>
  404b8c:	1e6b      	subs	r3, r5, #1
  404b8e:	9302      	str	r3, [sp, #8]
  404b90:	e67c      	b.n	40488c <_dtoa_r+0x12c>
  404b92:	9f0c      	ldr	r7, [sp, #48]	; 0x30
  404b94:	9d08      	ldr	r5, [sp, #32]
  404b96:	9e0b      	ldr	r6, [sp, #44]	; 0x2c
  404b98:	2d00      	cmp	r5, #0
  404b9a:	dd0c      	ble.n	404bb6 <_dtoa_r+0x456>
  404b9c:	9906      	ldr	r1, [sp, #24]
  404b9e:	2900      	cmp	r1, #0
  404ba0:	460b      	mov	r3, r1
  404ba2:	dd08      	ble.n	404bb6 <_dtoa_r+0x456>
  404ba4:	42a9      	cmp	r1, r5
  404ba6:	9a08      	ldr	r2, [sp, #32]
  404ba8:	bfa8      	it	ge
  404baa:	462b      	movge	r3, r5
  404bac:	1ad2      	subs	r2, r2, r3
  404bae:	1aed      	subs	r5, r5, r3
  404bb0:	1acb      	subs	r3, r1, r3
  404bb2:	9208      	str	r2, [sp, #32]
  404bb4:	9306      	str	r3, [sp, #24]
  404bb6:	9b0c      	ldr	r3, [sp, #48]	; 0x30
  404bb8:	b1d3      	cbz	r3, 404bf0 <_dtoa_r+0x490>
  404bba:	9b0b      	ldr	r3, [sp, #44]	; 0x2c
  404bbc:	2b00      	cmp	r3, #0
  404bbe:	f000 82b7 	beq.w	405130 <_dtoa_r+0x9d0>
  404bc2:	2f00      	cmp	r7, #0
  404bc4:	dd10      	ble.n	404be8 <_dtoa_r+0x488>
  404bc6:	4631      	mov	r1, r6
  404bc8:	463a      	mov	r2, r7
  404bca:	4620      	mov	r0, r4
  404bcc:	f001 ffbe 	bl	406b4c <__pow5mult>
  404bd0:	464a      	mov	r2, r9
  404bd2:	4601      	mov	r1, r0
  404bd4:	4606      	mov	r6, r0
  404bd6:	4620      	mov	r0, r4
  404bd8:	f001 ff26 	bl	406a28 <__multiply>
  404bdc:	4649      	mov	r1, r9
  404bde:	4680      	mov	r8, r0
  404be0:	4620      	mov	r0, r4
  404be2:	f001 fe7d 	bl	4068e0 <_Bfree>
  404be6:	46c1      	mov	r9, r8
  404be8:	9b0c      	ldr	r3, [sp, #48]	; 0x30
  404bea:	1bda      	subs	r2, r3, r7
  404bec:	f040 82a1 	bne.w	405132 <_dtoa_r+0x9d2>
  404bf0:	2101      	movs	r1, #1
  404bf2:	4620      	mov	r0, r4
  404bf4:	f001 ff0e 	bl	406a14 <__i2b>
  404bf8:	9b0d      	ldr	r3, [sp, #52]	; 0x34
  404bfa:	2b00      	cmp	r3, #0
  404bfc:	4680      	mov	r8, r0
  404bfe:	dd1c      	ble.n	404c3a <_dtoa_r+0x4da>
  404c00:	4601      	mov	r1, r0
  404c02:	461a      	mov	r2, r3
  404c04:	4620      	mov	r0, r4
  404c06:	f001 ffa1 	bl	406b4c <__pow5mult>
  404c0a:	9b24      	ldr	r3, [sp, #144]	; 0x90
  404c0c:	2b01      	cmp	r3, #1
  404c0e:	4680      	mov	r8, r0
  404c10:	f340 8254 	ble.w	4050bc <_dtoa_r+0x95c>
  404c14:	2300      	movs	r3, #0
  404c16:	930c      	str	r3, [sp, #48]	; 0x30
  404c18:	f8d8 3010 	ldr.w	r3, [r8, #16]
  404c1c:	eb08 0383 	add.w	r3, r8, r3, lsl #2
  404c20:	6918      	ldr	r0, [r3, #16]
  404c22:	f001 fea7 	bl	406974 <__hi0bits>
  404c26:	f1c0 0020 	rsb	r0, r0, #32
  404c2a:	e010      	b.n	404c4e <_dtoa_r+0x4ee>
  404c2c:	f1c3 0520 	rsb	r5, r3, #32
  404c30:	fa0a f005 	lsl.w	r0, sl, r5
  404c34:	e674      	b.n	404920 <_dtoa_r+0x1c0>
  404c36:	900e      	str	r0, [sp, #56]	; 0x38
  404c38:	e63c      	b.n	4048b4 <_dtoa_r+0x154>
  404c3a:	9b24      	ldr	r3, [sp, #144]	; 0x90
  404c3c:	2b01      	cmp	r3, #1
  404c3e:	f340 8287 	ble.w	405150 <_dtoa_r+0x9f0>
  404c42:	2300      	movs	r3, #0
  404c44:	930c      	str	r3, [sp, #48]	; 0x30
  404c46:	9b0d      	ldr	r3, [sp, #52]	; 0x34
  404c48:	2001      	movs	r0, #1
  404c4a:	2b00      	cmp	r3, #0
  404c4c:	d1e4      	bne.n	404c18 <_dtoa_r+0x4b8>
  404c4e:	9a06      	ldr	r2, [sp, #24]
  404c50:	4410      	add	r0, r2
  404c52:	f010 001f 	ands.w	r0, r0, #31
  404c56:	f000 80a1 	beq.w	404d9c <_dtoa_r+0x63c>
  404c5a:	f1c0 0320 	rsb	r3, r0, #32
  404c5e:	2b04      	cmp	r3, #4
  404c60:	f340 849e 	ble.w	4055a0 <_dtoa_r+0xe40>
  404c64:	9b08      	ldr	r3, [sp, #32]
  404c66:	f1c0 001c 	rsb	r0, r0, #28
  404c6a:	4403      	add	r3, r0
  404c6c:	9308      	str	r3, [sp, #32]
  404c6e:	4613      	mov	r3, r2
  404c70:	4403      	add	r3, r0
  404c72:	4405      	add	r5, r0
  404c74:	9306      	str	r3, [sp, #24]
  404c76:	9b08      	ldr	r3, [sp, #32]
  404c78:	2b00      	cmp	r3, #0
  404c7a:	dd05      	ble.n	404c88 <_dtoa_r+0x528>
  404c7c:	4649      	mov	r1, r9
  404c7e:	461a      	mov	r2, r3
  404c80:	4620      	mov	r0, r4
  404c82:	f001 ffb3 	bl	406bec <__lshift>
  404c86:	4681      	mov	r9, r0
  404c88:	9b06      	ldr	r3, [sp, #24]
  404c8a:	2b00      	cmp	r3, #0
  404c8c:	dd05      	ble.n	404c9a <_dtoa_r+0x53a>
  404c8e:	4641      	mov	r1, r8
  404c90:	461a      	mov	r2, r3
  404c92:	4620      	mov	r0, r4
  404c94:	f001 ffaa 	bl	406bec <__lshift>
  404c98:	4680      	mov	r8, r0
  404c9a:	9b0e      	ldr	r3, [sp, #56]	; 0x38
  404c9c:	2b00      	cmp	r3, #0
  404c9e:	f040 8086 	bne.w	404dae <_dtoa_r+0x64e>
  404ca2:	9b0a      	ldr	r3, [sp, #40]	; 0x28
  404ca4:	2b00      	cmp	r3, #0
  404ca6:	f340 8266 	ble.w	405176 <_dtoa_r+0xa16>
  404caa:	9b0b      	ldr	r3, [sp, #44]	; 0x2c
  404cac:	2b00      	cmp	r3, #0
  404cae:	f000 8098 	beq.w	404de2 <_dtoa_r+0x682>
  404cb2:	2d00      	cmp	r5, #0
  404cb4:	dd05      	ble.n	404cc2 <_dtoa_r+0x562>
  404cb6:	4631      	mov	r1, r6
  404cb8:	462a      	mov	r2, r5
  404cba:	4620      	mov	r0, r4
  404cbc:	f001 ff96 	bl	406bec <__lshift>
  404cc0:	4606      	mov	r6, r0
  404cc2:	9b0c      	ldr	r3, [sp, #48]	; 0x30
  404cc4:	2b00      	cmp	r3, #0
  404cc6:	f040 8337 	bne.w	405338 <_dtoa_r+0xbd8>
  404cca:	9606      	str	r6, [sp, #24]
  404ccc:	9b0a      	ldr	r3, [sp, #40]	; 0x28
  404cce:	9a04      	ldr	r2, [sp, #16]
  404cd0:	f8dd b018 	ldr.w	fp, [sp, #24]
  404cd4:	3b01      	subs	r3, #1
  404cd6:	18d3      	adds	r3, r2, r3
  404cd8:	930b      	str	r3, [sp, #44]	; 0x2c
  404cda:	f00a 0301 	and.w	r3, sl, #1
  404cde:	930c      	str	r3, [sp, #48]	; 0x30
  404ce0:	4617      	mov	r7, r2
  404ce2:	46c2      	mov	sl, r8
  404ce4:	4651      	mov	r1, sl
  404ce6:	4648      	mov	r0, r9
  404ce8:	f7ff fca4 	bl	404634 <quorem>
  404cec:	4631      	mov	r1, r6
  404cee:	4605      	mov	r5, r0
  404cf0:	4648      	mov	r0, r9
  404cf2:	f001 ffcd 	bl	406c90 <__mcmp>
  404cf6:	465a      	mov	r2, fp
  404cf8:	900a      	str	r0, [sp, #40]	; 0x28
  404cfa:	4651      	mov	r1, sl
  404cfc:	4620      	mov	r0, r4
  404cfe:	f001 ffe3 	bl	406cc8 <__mdiff>
  404d02:	68c2      	ldr	r2, [r0, #12]
  404d04:	4680      	mov	r8, r0
  404d06:	f105 0330 	add.w	r3, r5, #48	; 0x30
  404d0a:	2a00      	cmp	r2, #0
  404d0c:	f040 822b 	bne.w	405166 <_dtoa_r+0xa06>
  404d10:	4601      	mov	r1, r0
  404d12:	4648      	mov	r0, r9
  404d14:	9308      	str	r3, [sp, #32]
  404d16:	f001 ffbb 	bl	406c90 <__mcmp>
  404d1a:	4641      	mov	r1, r8
  404d1c:	9006      	str	r0, [sp, #24]
  404d1e:	4620      	mov	r0, r4
  404d20:	f001 fdde 	bl	4068e0 <_Bfree>
  404d24:	9a06      	ldr	r2, [sp, #24]
  404d26:	9b08      	ldr	r3, [sp, #32]
  404d28:	b932      	cbnz	r2, 404d38 <_dtoa_r+0x5d8>
  404d2a:	9924      	ldr	r1, [sp, #144]	; 0x90
  404d2c:	b921      	cbnz	r1, 404d38 <_dtoa_r+0x5d8>
  404d2e:	9a0c      	ldr	r2, [sp, #48]	; 0x30
  404d30:	2a00      	cmp	r2, #0
  404d32:	f000 83ef 	beq.w	405514 <_dtoa_r+0xdb4>
  404d36:	9a24      	ldr	r2, [sp, #144]	; 0x90
  404d38:	990a      	ldr	r1, [sp, #40]	; 0x28
  404d3a:	2900      	cmp	r1, #0
  404d3c:	f2c0 829f 	blt.w	40527e <_dtoa_r+0xb1e>
  404d40:	d105      	bne.n	404d4e <_dtoa_r+0x5ee>
  404d42:	9924      	ldr	r1, [sp, #144]	; 0x90
  404d44:	b919      	cbnz	r1, 404d4e <_dtoa_r+0x5ee>
  404d46:	990c      	ldr	r1, [sp, #48]	; 0x30
  404d48:	2900      	cmp	r1, #0
  404d4a:	f000 8298 	beq.w	40527e <_dtoa_r+0xb1e>
  404d4e:	2a00      	cmp	r2, #0
  404d50:	f300 8306 	bgt.w	405360 <_dtoa_r+0xc00>
  404d54:	9a0b      	ldr	r2, [sp, #44]	; 0x2c
  404d56:	703b      	strb	r3, [r7, #0]
  404d58:	f107 0801 	add.w	r8, r7, #1
  404d5c:	4297      	cmp	r7, r2
  404d5e:	4645      	mov	r5, r8
  404d60:	f000 830c 	beq.w	40537c <_dtoa_r+0xc1c>
  404d64:	4649      	mov	r1, r9
  404d66:	2300      	movs	r3, #0
  404d68:	220a      	movs	r2, #10
  404d6a:	4620      	mov	r0, r4
  404d6c:	f001 fdc2 	bl	4068f4 <__multadd>
  404d70:	455e      	cmp	r6, fp
  404d72:	4681      	mov	r9, r0
  404d74:	4631      	mov	r1, r6
  404d76:	f04f 0300 	mov.w	r3, #0
  404d7a:	f04f 020a 	mov.w	r2, #10
  404d7e:	4620      	mov	r0, r4
  404d80:	f000 81eb 	beq.w	40515a <_dtoa_r+0x9fa>
  404d84:	f001 fdb6 	bl	4068f4 <__multadd>
  404d88:	4659      	mov	r1, fp
  404d8a:	4606      	mov	r6, r0
  404d8c:	2300      	movs	r3, #0
  404d8e:	220a      	movs	r2, #10
  404d90:	4620      	mov	r0, r4
  404d92:	f001 fdaf 	bl	4068f4 <__multadd>
  404d96:	4647      	mov	r7, r8
  404d98:	4683      	mov	fp, r0
  404d9a:	e7a3      	b.n	404ce4 <_dtoa_r+0x584>
  404d9c:	201c      	movs	r0, #28
  404d9e:	9b08      	ldr	r3, [sp, #32]
  404da0:	4403      	add	r3, r0
  404da2:	9308      	str	r3, [sp, #32]
  404da4:	9b06      	ldr	r3, [sp, #24]
  404da6:	4403      	add	r3, r0
  404da8:	4405      	add	r5, r0
  404daa:	9306      	str	r3, [sp, #24]
  404dac:	e763      	b.n	404c76 <_dtoa_r+0x516>
  404dae:	4641      	mov	r1, r8
  404db0:	4648      	mov	r0, r9
  404db2:	f001 ff6d 	bl	406c90 <__mcmp>
  404db6:	2800      	cmp	r0, #0
  404db8:	f6bf af73 	bge.w	404ca2 <_dtoa_r+0x542>
  404dbc:	9f02      	ldr	r7, [sp, #8]
  404dbe:	4649      	mov	r1, r9
  404dc0:	2300      	movs	r3, #0
  404dc2:	220a      	movs	r2, #10
  404dc4:	4620      	mov	r0, r4
  404dc6:	3f01      	subs	r7, #1
  404dc8:	9702      	str	r7, [sp, #8]
  404dca:	f001 fd93 	bl	4068f4 <__multadd>
  404dce:	9b0b      	ldr	r3, [sp, #44]	; 0x2c
  404dd0:	4681      	mov	r9, r0
  404dd2:	2b00      	cmp	r3, #0
  404dd4:	f040 83b6 	bne.w	405544 <_dtoa_r+0xde4>
  404dd8:	9b0f      	ldr	r3, [sp, #60]	; 0x3c
  404dda:	2b00      	cmp	r3, #0
  404ddc:	f340 83bf 	ble.w	40555e <_dtoa_r+0xdfe>
  404de0:	930a      	str	r3, [sp, #40]	; 0x28
  404de2:	f8dd b010 	ldr.w	fp, [sp, #16]
  404de6:	9f0a      	ldr	r7, [sp, #40]	; 0x28
  404de8:	465d      	mov	r5, fp
  404dea:	e002      	b.n	404df2 <_dtoa_r+0x692>
  404dec:	f001 fd82 	bl	4068f4 <__multadd>
  404df0:	4681      	mov	r9, r0
  404df2:	4641      	mov	r1, r8
  404df4:	4648      	mov	r0, r9
  404df6:	f7ff fc1d 	bl	404634 <quorem>
  404dfa:	f100 0a30 	add.w	sl, r0, #48	; 0x30
  404dfe:	f805 ab01 	strb.w	sl, [r5], #1
  404e02:	eba5 030b 	sub.w	r3, r5, fp
  404e06:	42bb      	cmp	r3, r7
  404e08:	f04f 020a 	mov.w	r2, #10
  404e0c:	f04f 0300 	mov.w	r3, #0
  404e10:	4649      	mov	r1, r9
  404e12:	4620      	mov	r0, r4
  404e14:	dbea      	blt.n	404dec <_dtoa_r+0x68c>
  404e16:	9b04      	ldr	r3, [sp, #16]
  404e18:	9a0a      	ldr	r2, [sp, #40]	; 0x28
  404e1a:	2a01      	cmp	r2, #1
  404e1c:	bfac      	ite	ge
  404e1e:	189b      	addge	r3, r3, r2
  404e20:	3301      	addlt	r3, #1
  404e22:	461d      	mov	r5, r3
  404e24:	f04f 0b00 	mov.w	fp, #0
  404e28:	4649      	mov	r1, r9
  404e2a:	2201      	movs	r2, #1
  404e2c:	4620      	mov	r0, r4
  404e2e:	f001 fedd 	bl	406bec <__lshift>
  404e32:	4641      	mov	r1, r8
  404e34:	4681      	mov	r9, r0
  404e36:	f001 ff2b 	bl	406c90 <__mcmp>
  404e3a:	2800      	cmp	r0, #0
  404e3c:	f340 823d 	ble.w	4052ba <_dtoa_r+0xb5a>
  404e40:	f815 2c01 	ldrb.w	r2, [r5, #-1]
  404e44:	9904      	ldr	r1, [sp, #16]
  404e46:	1e6b      	subs	r3, r5, #1
  404e48:	e004      	b.n	404e54 <_dtoa_r+0x6f4>
  404e4a:	428b      	cmp	r3, r1
  404e4c:	f000 81ae 	beq.w	4051ac <_dtoa_r+0xa4c>
  404e50:	f813 2d01 	ldrb.w	r2, [r3, #-1]!
  404e54:	2a39      	cmp	r2, #57	; 0x39
  404e56:	f103 0501 	add.w	r5, r3, #1
  404e5a:	d0f6      	beq.n	404e4a <_dtoa_r+0x6ea>
  404e5c:	3201      	adds	r2, #1
  404e5e:	701a      	strb	r2, [r3, #0]
  404e60:	4641      	mov	r1, r8
  404e62:	4620      	mov	r0, r4
  404e64:	f001 fd3c 	bl	4068e0 <_Bfree>
  404e68:	2e00      	cmp	r6, #0
  404e6a:	f43f ae3d 	beq.w	404ae8 <_dtoa_r+0x388>
  404e6e:	f1bb 0f00 	cmp.w	fp, #0
  404e72:	d005      	beq.n	404e80 <_dtoa_r+0x720>
  404e74:	45b3      	cmp	fp, r6
  404e76:	d003      	beq.n	404e80 <_dtoa_r+0x720>
  404e78:	4659      	mov	r1, fp
  404e7a:	4620      	mov	r0, r4
  404e7c:	f001 fd30 	bl	4068e0 <_Bfree>
  404e80:	4631      	mov	r1, r6
  404e82:	4620      	mov	r0, r4
  404e84:	f001 fd2c 	bl	4068e0 <_Bfree>
  404e88:	e62e      	b.n	404ae8 <_dtoa_r+0x388>
  404e8a:	2300      	movs	r3, #0
  404e8c:	930b      	str	r3, [sp, #44]	; 0x2c
  404e8e:	9b02      	ldr	r3, [sp, #8]
  404e90:	9a25      	ldr	r2, [sp, #148]	; 0x94
  404e92:	4413      	add	r3, r2
  404e94:	930f      	str	r3, [sp, #60]	; 0x3c
  404e96:	3301      	adds	r3, #1
  404e98:	2b01      	cmp	r3, #1
  404e9a:	461f      	mov	r7, r3
  404e9c:	461e      	mov	r6, r3
  404e9e:	930a      	str	r3, [sp, #40]	; 0x28
  404ea0:	bfb8      	it	lt
  404ea2:	2701      	movlt	r7, #1
  404ea4:	2100      	movs	r1, #0
  404ea6:	2f17      	cmp	r7, #23
  404ea8:	6461      	str	r1, [r4, #68]	; 0x44
  404eaa:	d90a      	bls.n	404ec2 <_dtoa_r+0x762>
  404eac:	2201      	movs	r2, #1
  404eae:	2304      	movs	r3, #4
  404eb0:	005b      	lsls	r3, r3, #1
  404eb2:	f103 0014 	add.w	r0, r3, #20
  404eb6:	4287      	cmp	r7, r0
  404eb8:	4611      	mov	r1, r2
  404eba:	f102 0201 	add.w	r2, r2, #1
  404ebe:	d2f7      	bcs.n	404eb0 <_dtoa_r+0x750>
  404ec0:	6461      	str	r1, [r4, #68]	; 0x44
  404ec2:	4620      	mov	r0, r4
  404ec4:	f001 fce6 	bl	406894 <_Balloc>
  404ec8:	2e0e      	cmp	r6, #14
  404eca:	9004      	str	r0, [sp, #16]
  404ecc:	6420      	str	r0, [r4, #64]	; 0x40
  404ece:	f63f ad41 	bhi.w	404954 <_dtoa_r+0x1f4>
  404ed2:	2d00      	cmp	r5, #0
  404ed4:	f43f ad3e 	beq.w	404954 <_dtoa_r+0x1f4>
  404ed8:	9902      	ldr	r1, [sp, #8]
  404eda:	2900      	cmp	r1, #0
  404edc:	e9cd ab10 	strd	sl, fp, [sp, #64]	; 0x40
  404ee0:	f340 8202 	ble.w	4052e8 <_dtoa_r+0xb88>
  404ee4:	4bb8      	ldr	r3, [pc, #736]	; (4051c8 <_dtoa_r+0xa68>)
  404ee6:	f001 020f 	and.w	r2, r1, #15
  404eea:	110d      	asrs	r5, r1, #4
  404eec:	eb03 03c2 	add.w	r3, r3, r2, lsl #3
  404ef0:	06e9      	lsls	r1, r5, #27
  404ef2:	e9d3 6700 	ldrd	r6, r7, [r3]
  404ef6:	f140 81ae 	bpl.w	405256 <_dtoa_r+0xaf6>
  404efa:	4bb4      	ldr	r3, [pc, #720]	; (4051cc <_dtoa_r+0xa6c>)
  404efc:	4650      	mov	r0, sl
  404efe:	4659      	mov	r1, fp
  404f00:	e9d3 2308 	ldrd	r2, r3, [r3, #32]
  404f04:	f002 ff1a 	bl	407d3c <__aeabi_ddiv>
  404f08:	e9cd 0112 	strd	r0, r1, [sp, #72]	; 0x48
  404f0c:	f005 050f 	and.w	r5, r5, #15
  404f10:	f04f 0a03 	mov.w	sl, #3
  404f14:	b18d      	cbz	r5, 404f3a <_dtoa_r+0x7da>
  404f16:	f8df 82b4 	ldr.w	r8, [pc, #692]	; 4051cc <_dtoa_r+0xa6c>
  404f1a:	07ea      	lsls	r2, r5, #31
  404f1c:	d509      	bpl.n	404f32 <_dtoa_r+0x7d2>
  404f1e:	4630      	mov	r0, r6
  404f20:	4639      	mov	r1, r7
  404f22:	e9d8 2300 	ldrd	r2, r3, [r8]
  404f26:	f002 fddf 	bl	407ae8 <__aeabi_dmul>
  404f2a:	f10a 0a01 	add.w	sl, sl, #1
  404f2e:	4606      	mov	r6, r0
  404f30:	460f      	mov	r7, r1
  404f32:	106d      	asrs	r5, r5, #1
  404f34:	f108 0808 	add.w	r8, r8, #8
  404f38:	d1ef      	bne.n	404f1a <_dtoa_r+0x7ba>
  404f3a:	463b      	mov	r3, r7
  404f3c:	4632      	mov	r2, r6
  404f3e:	e9dd 0112 	ldrd	r0, r1, [sp, #72]	; 0x48
  404f42:	f002 fefb 	bl	407d3c <__aeabi_ddiv>
  404f46:	4607      	mov	r7, r0
  404f48:	4688      	mov	r8, r1
  404f4a:	9b0e      	ldr	r3, [sp, #56]	; 0x38
  404f4c:	b143      	cbz	r3, 404f60 <_dtoa_r+0x800>
  404f4e:	2200      	movs	r2, #0
  404f50:	4b9f      	ldr	r3, [pc, #636]	; (4051d0 <_dtoa_r+0xa70>)
  404f52:	4638      	mov	r0, r7
  404f54:	4641      	mov	r1, r8
  404f56:	f003 f839 	bl	407fcc <__aeabi_dcmplt>
  404f5a:	2800      	cmp	r0, #0
  404f5c:	f040 8286 	bne.w	40546c <_dtoa_r+0xd0c>
  404f60:	4650      	mov	r0, sl
  404f62:	f002 fd5b 	bl	407a1c <__aeabi_i2d>
  404f66:	463a      	mov	r2, r7
  404f68:	4643      	mov	r3, r8
  404f6a:	f002 fdbd 	bl	407ae8 <__aeabi_dmul>
  404f6e:	4b99      	ldr	r3, [pc, #612]	; (4051d4 <_dtoa_r+0xa74>)
  404f70:	2200      	movs	r2, #0
  404f72:	f002 fc07 	bl	407784 <__adddf3>
  404f76:	9b0a      	ldr	r3, [sp, #40]	; 0x28
  404f78:	4605      	mov	r5, r0
  404f7a:	f1a1 7650 	sub.w	r6, r1, #54525952	; 0x3400000
  404f7e:	2b00      	cmp	r3, #0
  404f80:	f000 813e 	beq.w	405200 <_dtoa_r+0xaa0>
  404f84:	9b02      	ldr	r3, [sp, #8]
  404f86:	9315      	str	r3, [sp, #84]	; 0x54
  404f88:	9b0a      	ldr	r3, [sp, #40]	; 0x28
  404f8a:	9312      	str	r3, [sp, #72]	; 0x48
  404f8c:	9b0b      	ldr	r3, [sp, #44]	; 0x2c
  404f8e:	2b00      	cmp	r3, #0
  404f90:	f000 81fa 	beq.w	405388 <_dtoa_r+0xc28>
  404f94:	9a12      	ldr	r2, [sp, #72]	; 0x48
  404f96:	4b8c      	ldr	r3, [pc, #560]	; (4051c8 <_dtoa_r+0xa68>)
  404f98:	498f      	ldr	r1, [pc, #572]	; (4051d8 <_dtoa_r+0xa78>)
  404f9a:	eb03 03c2 	add.w	r3, r3, r2, lsl #3
  404f9e:	e953 2302 	ldrd	r2, r3, [r3, #-8]
  404fa2:	2000      	movs	r0, #0
  404fa4:	f002 feca 	bl	407d3c <__aeabi_ddiv>
  404fa8:	462a      	mov	r2, r5
  404faa:	4633      	mov	r3, r6
  404fac:	f002 fbe8 	bl	407780 <__aeabi_dsub>
  404fb0:	4682      	mov	sl, r0
  404fb2:	468b      	mov	fp, r1
  404fb4:	4638      	mov	r0, r7
  404fb6:	4641      	mov	r1, r8
  404fb8:	f003 f846 	bl	408048 <__aeabi_d2iz>
  404fbc:	4605      	mov	r5, r0
  404fbe:	f002 fd2d 	bl	407a1c <__aeabi_i2d>
  404fc2:	4602      	mov	r2, r0
  404fc4:	460b      	mov	r3, r1
  404fc6:	4638      	mov	r0, r7
  404fc8:	4641      	mov	r1, r8
  404fca:	f002 fbd9 	bl	407780 <__aeabi_dsub>
  404fce:	3530      	adds	r5, #48	; 0x30
  404fd0:	fa5f f885 	uxtb.w	r8, r5
  404fd4:	9d04      	ldr	r5, [sp, #16]
  404fd6:	4606      	mov	r6, r0
  404fd8:	460f      	mov	r7, r1
  404fda:	f885 8000 	strb.w	r8, [r5]
  404fde:	4602      	mov	r2, r0
  404fe0:	460b      	mov	r3, r1
  404fe2:	4650      	mov	r0, sl
  404fe4:	4659      	mov	r1, fp
  404fe6:	3501      	adds	r5, #1
  404fe8:	f003 f80e 	bl	408008 <__aeabi_dcmpgt>
  404fec:	2800      	cmp	r0, #0
  404fee:	d154      	bne.n	40509a <_dtoa_r+0x93a>
  404ff0:	4632      	mov	r2, r6
  404ff2:	463b      	mov	r3, r7
  404ff4:	2000      	movs	r0, #0
  404ff6:	4976      	ldr	r1, [pc, #472]	; (4051d0 <_dtoa_r+0xa70>)
  404ff8:	f002 fbc2 	bl	407780 <__aeabi_dsub>
  404ffc:	4602      	mov	r2, r0
  404ffe:	460b      	mov	r3, r1
  405000:	4650      	mov	r0, sl
  405002:	4659      	mov	r1, fp
  405004:	f003 f800 	bl	408008 <__aeabi_dcmpgt>
  405008:	2800      	cmp	r0, #0
  40500a:	f040 8270 	bne.w	4054ee <_dtoa_r+0xd8e>
  40500e:	9a12      	ldr	r2, [sp, #72]	; 0x48
  405010:	2a01      	cmp	r2, #1
  405012:	f000 8111 	beq.w	405238 <_dtoa_r+0xad8>
  405016:	9b12      	ldr	r3, [sp, #72]	; 0x48
  405018:	9a04      	ldr	r2, [sp, #16]
  40501a:	f8cd 9048 	str.w	r9, [sp, #72]	; 0x48
  40501e:	4413      	add	r3, r2
  405020:	4699      	mov	r9, r3
  405022:	e00d      	b.n	405040 <_dtoa_r+0x8e0>
  405024:	2000      	movs	r0, #0
  405026:	496a      	ldr	r1, [pc, #424]	; (4051d0 <_dtoa_r+0xa70>)
  405028:	f002 fbaa 	bl	407780 <__aeabi_dsub>
  40502c:	4652      	mov	r2, sl
  40502e:	465b      	mov	r3, fp
  405030:	f002 ffcc 	bl	407fcc <__aeabi_dcmplt>
  405034:	2800      	cmp	r0, #0
  405036:	f040 8258 	bne.w	4054ea <_dtoa_r+0xd8a>
  40503a:	454d      	cmp	r5, r9
  40503c:	f000 80fa 	beq.w	405234 <_dtoa_r+0xad4>
  405040:	4650      	mov	r0, sl
  405042:	4659      	mov	r1, fp
  405044:	2200      	movs	r2, #0
  405046:	4b65      	ldr	r3, [pc, #404]	; (4051dc <_dtoa_r+0xa7c>)
  405048:	f002 fd4e 	bl	407ae8 <__aeabi_dmul>
  40504c:	2200      	movs	r2, #0
  40504e:	4b63      	ldr	r3, [pc, #396]	; (4051dc <_dtoa_r+0xa7c>)
  405050:	4682      	mov	sl, r0
  405052:	468b      	mov	fp, r1
  405054:	4630      	mov	r0, r6
  405056:	4639      	mov	r1, r7
  405058:	f002 fd46 	bl	407ae8 <__aeabi_dmul>
  40505c:	460f      	mov	r7, r1
  40505e:	4606      	mov	r6, r0
  405060:	f002 fff2 	bl	408048 <__aeabi_d2iz>
  405064:	4680      	mov	r8, r0
  405066:	f002 fcd9 	bl	407a1c <__aeabi_i2d>
  40506a:	4602      	mov	r2, r0
  40506c:	460b      	mov	r3, r1
  40506e:	4630      	mov	r0, r6
  405070:	4639      	mov	r1, r7
  405072:	f002 fb85 	bl	407780 <__aeabi_dsub>
  405076:	f108 0830 	add.w	r8, r8, #48	; 0x30
  40507a:	fa5f f888 	uxtb.w	r8, r8
  40507e:	4652      	mov	r2, sl
  405080:	465b      	mov	r3, fp
  405082:	f805 8b01 	strb.w	r8, [r5], #1
  405086:	4606      	mov	r6, r0
  405088:	460f      	mov	r7, r1
  40508a:	f002 ff9f 	bl	407fcc <__aeabi_dcmplt>
  40508e:	4632      	mov	r2, r6
  405090:	463b      	mov	r3, r7
  405092:	2800      	cmp	r0, #0
  405094:	d0c6      	beq.n	405024 <_dtoa_r+0x8c4>
  405096:	f8dd 9048 	ldr.w	r9, [sp, #72]	; 0x48
  40509a:	9b15      	ldr	r3, [sp, #84]	; 0x54
  40509c:	9302      	str	r3, [sp, #8]
  40509e:	e523      	b.n	404ae8 <_dtoa_r+0x388>
  4050a0:	2300      	movs	r3, #0
  4050a2:	930b      	str	r3, [sp, #44]	; 0x2c
  4050a4:	9b25      	ldr	r3, [sp, #148]	; 0x94
  4050a6:	2b00      	cmp	r3, #0
  4050a8:	f340 80dc 	ble.w	405264 <_dtoa_r+0xb04>
  4050ac:	461f      	mov	r7, r3
  4050ae:	461e      	mov	r6, r3
  4050b0:	930f      	str	r3, [sp, #60]	; 0x3c
  4050b2:	930a      	str	r3, [sp, #40]	; 0x28
  4050b4:	e6f6      	b.n	404ea4 <_dtoa_r+0x744>
  4050b6:	2301      	movs	r3, #1
  4050b8:	930b      	str	r3, [sp, #44]	; 0x2c
  4050ba:	e7f3      	b.n	4050a4 <_dtoa_r+0x944>
  4050bc:	f1ba 0f00 	cmp.w	sl, #0
  4050c0:	f47f ada8 	bne.w	404c14 <_dtoa_r+0x4b4>
  4050c4:	f3cb 0313 	ubfx	r3, fp, #0, #20
  4050c8:	2b00      	cmp	r3, #0
  4050ca:	f47f adba 	bne.w	404c42 <_dtoa_r+0x4e2>
  4050ce:	f02b 4700 	bic.w	r7, fp, #2147483648	; 0x80000000
  4050d2:	0d3f      	lsrs	r7, r7, #20
  4050d4:	053f      	lsls	r7, r7, #20
  4050d6:	2f00      	cmp	r7, #0
  4050d8:	f000 820d 	beq.w	4054f6 <_dtoa_r+0xd96>
  4050dc:	9b08      	ldr	r3, [sp, #32]
  4050de:	3301      	adds	r3, #1
  4050e0:	9308      	str	r3, [sp, #32]
  4050e2:	9b06      	ldr	r3, [sp, #24]
  4050e4:	3301      	adds	r3, #1
  4050e6:	9306      	str	r3, [sp, #24]
  4050e8:	2301      	movs	r3, #1
  4050ea:	930c      	str	r3, [sp, #48]	; 0x30
  4050ec:	e5ab      	b.n	404c46 <_dtoa_r+0x4e6>
  4050ee:	9b0a      	ldr	r3, [sp, #40]	; 0x28
  4050f0:	2b00      	cmp	r3, #0
  4050f2:	f73f ac42 	bgt.w	40497a <_dtoa_r+0x21a>
  4050f6:	f040 8221 	bne.w	40553c <_dtoa_r+0xddc>
  4050fa:	2200      	movs	r2, #0
  4050fc:	4b38      	ldr	r3, [pc, #224]	; (4051e0 <_dtoa_r+0xa80>)
  4050fe:	e9dd 0108 	ldrd	r0, r1, [sp, #32]
  405102:	f002 fcf1 	bl	407ae8 <__aeabi_dmul>
  405106:	4652      	mov	r2, sl
  405108:	465b      	mov	r3, fp
  40510a:	f002 ff73 	bl	407ff4 <__aeabi_dcmpge>
  40510e:	f8dd 8028 	ldr.w	r8, [sp, #40]	; 0x28
  405112:	4646      	mov	r6, r8
  405114:	2800      	cmp	r0, #0
  405116:	d041      	beq.n	40519c <_dtoa_r+0xa3c>
  405118:	9b25      	ldr	r3, [sp, #148]	; 0x94
  40511a:	9d04      	ldr	r5, [sp, #16]
  40511c:	43db      	mvns	r3, r3
  40511e:	9302      	str	r3, [sp, #8]
  405120:	4641      	mov	r1, r8
  405122:	4620      	mov	r0, r4
  405124:	f001 fbdc 	bl	4068e0 <_Bfree>
  405128:	2e00      	cmp	r6, #0
  40512a:	f43f acdd 	beq.w	404ae8 <_dtoa_r+0x388>
  40512e:	e6a7      	b.n	404e80 <_dtoa_r+0x720>
  405130:	9a0c      	ldr	r2, [sp, #48]	; 0x30
  405132:	4649      	mov	r1, r9
  405134:	4620      	mov	r0, r4
  405136:	f001 fd09 	bl	406b4c <__pow5mult>
  40513a:	4681      	mov	r9, r0
  40513c:	e558      	b.n	404bf0 <_dtoa_r+0x490>
  40513e:	9a14      	ldr	r2, [sp, #80]	; 0x50
  405140:	2a00      	cmp	r2, #0
  405142:	f000 8187 	beq.w	405454 <_dtoa_r+0xcf4>
  405146:	f203 4333 	addw	r3, r3, #1075	; 0x433
  40514a:	9f0c      	ldr	r7, [sp, #48]	; 0x30
  40514c:	9d08      	ldr	r5, [sp, #32]
  40514e:	e4f2      	b.n	404b36 <_dtoa_r+0x3d6>
  405150:	f1ba 0f00 	cmp.w	sl, #0
  405154:	f47f ad75 	bne.w	404c42 <_dtoa_r+0x4e2>
  405158:	e7b4      	b.n	4050c4 <_dtoa_r+0x964>
  40515a:	f001 fbcb 	bl	4068f4 <__multadd>
  40515e:	4647      	mov	r7, r8
  405160:	4606      	mov	r6, r0
  405162:	4683      	mov	fp, r0
  405164:	e5be      	b.n	404ce4 <_dtoa_r+0x584>
  405166:	4601      	mov	r1, r0
  405168:	4620      	mov	r0, r4
  40516a:	9306      	str	r3, [sp, #24]
  40516c:	f001 fbb8 	bl	4068e0 <_Bfree>
  405170:	2201      	movs	r2, #1
  405172:	9b06      	ldr	r3, [sp, #24]
  405174:	e5e0      	b.n	404d38 <_dtoa_r+0x5d8>
  405176:	9b24      	ldr	r3, [sp, #144]	; 0x90
  405178:	2b02      	cmp	r3, #2
  40517a:	f77f ad96 	ble.w	404caa <_dtoa_r+0x54a>
  40517e:	9b0a      	ldr	r3, [sp, #40]	; 0x28
  405180:	2b00      	cmp	r3, #0
  405182:	d1c9      	bne.n	405118 <_dtoa_r+0x9b8>
  405184:	4641      	mov	r1, r8
  405186:	2205      	movs	r2, #5
  405188:	4620      	mov	r0, r4
  40518a:	f001 fbb3 	bl	4068f4 <__multadd>
  40518e:	4601      	mov	r1, r0
  405190:	4680      	mov	r8, r0
  405192:	4648      	mov	r0, r9
  405194:	f001 fd7c 	bl	406c90 <__mcmp>
  405198:	2800      	cmp	r0, #0
  40519a:	ddbd      	ble.n	405118 <_dtoa_r+0x9b8>
  40519c:	9a02      	ldr	r2, [sp, #8]
  40519e:	9904      	ldr	r1, [sp, #16]
  4051a0:	2331      	movs	r3, #49	; 0x31
  4051a2:	3201      	adds	r2, #1
  4051a4:	9202      	str	r2, [sp, #8]
  4051a6:	700b      	strb	r3, [r1, #0]
  4051a8:	1c4d      	adds	r5, r1, #1
  4051aa:	e7b9      	b.n	405120 <_dtoa_r+0x9c0>
  4051ac:	9a02      	ldr	r2, [sp, #8]
  4051ae:	3201      	adds	r2, #1
  4051b0:	9202      	str	r2, [sp, #8]
  4051b2:	9a04      	ldr	r2, [sp, #16]
  4051b4:	2331      	movs	r3, #49	; 0x31
  4051b6:	7013      	strb	r3, [r2, #0]
  4051b8:	e652      	b.n	404e60 <_dtoa_r+0x700>
  4051ba:	2301      	movs	r3, #1
  4051bc:	930b      	str	r3, [sp, #44]	; 0x2c
  4051be:	e666      	b.n	404e8e <_dtoa_r+0x72e>
  4051c0:	f8dd 902c 	ldr.w	r9, [sp, #44]	; 0x2c
  4051c4:	9c0c      	ldr	r4, [sp, #48]	; 0x30
  4051c6:	e48f      	b.n	404ae8 <_dtoa_r+0x388>
  4051c8:	00408d48 	.word	0x00408d48
  4051cc:	00408d20 	.word	0x00408d20
  4051d0:	3ff00000 	.word	0x3ff00000
  4051d4:	401c0000 	.word	0x401c0000
  4051d8:	3fe00000 	.word	0x3fe00000
  4051dc:	40240000 	.word	0x40240000
  4051e0:	40140000 	.word	0x40140000
  4051e4:	4650      	mov	r0, sl
  4051e6:	f002 fc19 	bl	407a1c <__aeabi_i2d>
  4051ea:	463a      	mov	r2, r7
  4051ec:	4643      	mov	r3, r8
  4051ee:	f002 fc7b 	bl	407ae8 <__aeabi_dmul>
  4051f2:	2200      	movs	r2, #0
  4051f4:	4bc1      	ldr	r3, [pc, #772]	; (4054fc <_dtoa_r+0xd9c>)
  4051f6:	f002 fac5 	bl	407784 <__adddf3>
  4051fa:	4605      	mov	r5, r0
  4051fc:	f1a1 7650 	sub.w	r6, r1, #54525952	; 0x3400000
  405200:	4641      	mov	r1, r8
  405202:	2200      	movs	r2, #0
  405204:	4bbe      	ldr	r3, [pc, #760]	; (405500 <_dtoa_r+0xda0>)
  405206:	4638      	mov	r0, r7
  405208:	f002 faba 	bl	407780 <__aeabi_dsub>
  40520c:	462a      	mov	r2, r5
  40520e:	4633      	mov	r3, r6
  405210:	4682      	mov	sl, r0
  405212:	468b      	mov	fp, r1
  405214:	f002 fef8 	bl	408008 <__aeabi_dcmpgt>
  405218:	4680      	mov	r8, r0
  40521a:	2800      	cmp	r0, #0
  40521c:	f040 8110 	bne.w	405440 <_dtoa_r+0xce0>
  405220:	462a      	mov	r2, r5
  405222:	f106 4300 	add.w	r3, r6, #2147483648	; 0x80000000
  405226:	4650      	mov	r0, sl
  405228:	4659      	mov	r1, fp
  40522a:	f002 fecf 	bl	407fcc <__aeabi_dcmplt>
  40522e:	b118      	cbz	r0, 405238 <_dtoa_r+0xad8>
  405230:	4646      	mov	r6, r8
  405232:	e771      	b.n	405118 <_dtoa_r+0x9b8>
  405234:	f8dd 9048 	ldr.w	r9, [sp, #72]	; 0x48
  405238:	e9dd ab10 	ldrd	sl, fp, [sp, #64]	; 0x40
  40523c:	f7ff bb8a 	b.w	404954 <_dtoa_r+0x1f4>
  405240:	9804      	ldr	r0, [sp, #16]
  405242:	f7ff babb 	b.w	4047bc <_dtoa_r+0x5c>
  405246:	9b0c      	ldr	r3, [sp, #48]	; 0x30
  405248:	9a0d      	ldr	r2, [sp, #52]	; 0x34
  40524a:	970c      	str	r7, [sp, #48]	; 0x30
  40524c:	1afb      	subs	r3, r7, r3
  40524e:	441a      	add	r2, r3
  405250:	920d      	str	r2, [sp, #52]	; 0x34
  405252:	2700      	movs	r7, #0
  405254:	e469      	b.n	404b2a <_dtoa_r+0x3ca>
  405256:	e9dd 2310 	ldrd	r2, r3, [sp, #64]	; 0x40
  40525a:	f04f 0a02 	mov.w	sl, #2
  40525e:	e9cd 2312 	strd	r2, r3, [sp, #72]	; 0x48
  405262:	e657      	b.n	404f14 <_dtoa_r+0x7b4>
  405264:	2100      	movs	r1, #0
  405266:	2301      	movs	r3, #1
  405268:	6461      	str	r1, [r4, #68]	; 0x44
  40526a:	4620      	mov	r0, r4
  40526c:	9325      	str	r3, [sp, #148]	; 0x94
  40526e:	f001 fb11 	bl	406894 <_Balloc>
  405272:	9b25      	ldr	r3, [sp, #148]	; 0x94
  405274:	9004      	str	r0, [sp, #16]
  405276:	6420      	str	r0, [r4, #64]	; 0x40
  405278:	930a      	str	r3, [sp, #40]	; 0x28
  40527a:	930f      	str	r3, [sp, #60]	; 0x3c
  40527c:	e629      	b.n	404ed2 <_dtoa_r+0x772>
  40527e:	2a00      	cmp	r2, #0
  405280:	46d0      	mov	r8, sl
  405282:	f8cd b018 	str.w	fp, [sp, #24]
  405286:	469a      	mov	sl, r3
  405288:	dd11      	ble.n	4052ae <_dtoa_r+0xb4e>
  40528a:	4649      	mov	r1, r9
  40528c:	2201      	movs	r2, #1
  40528e:	4620      	mov	r0, r4
  405290:	f001 fcac 	bl	406bec <__lshift>
  405294:	4641      	mov	r1, r8
  405296:	4681      	mov	r9, r0
  405298:	f001 fcfa 	bl	406c90 <__mcmp>
  40529c:	2800      	cmp	r0, #0
  40529e:	f340 8146 	ble.w	40552e <_dtoa_r+0xdce>
  4052a2:	f1ba 0f39 	cmp.w	sl, #57	; 0x39
  4052a6:	f000 8106 	beq.w	4054b6 <_dtoa_r+0xd56>
  4052aa:	f105 0a31 	add.w	sl, r5, #49	; 0x31
  4052ae:	46b3      	mov	fp, r6
  4052b0:	f887 a000 	strb.w	sl, [r7]
  4052b4:	1c7d      	adds	r5, r7, #1
  4052b6:	9e06      	ldr	r6, [sp, #24]
  4052b8:	e5d2      	b.n	404e60 <_dtoa_r+0x700>
  4052ba:	d104      	bne.n	4052c6 <_dtoa_r+0xb66>
  4052bc:	f01a 0f01 	tst.w	sl, #1
  4052c0:	d001      	beq.n	4052c6 <_dtoa_r+0xb66>
  4052c2:	e5bd      	b.n	404e40 <_dtoa_r+0x6e0>
  4052c4:	4615      	mov	r5, r2
  4052c6:	f815 3c01 	ldrb.w	r3, [r5, #-1]
  4052ca:	2b30      	cmp	r3, #48	; 0x30
  4052cc:	f105 32ff 	add.w	r2, r5, #4294967295
  4052d0:	d0f8      	beq.n	4052c4 <_dtoa_r+0xb64>
  4052d2:	e5c5      	b.n	404e60 <_dtoa_r+0x700>
  4052d4:	9904      	ldr	r1, [sp, #16]
  4052d6:	2230      	movs	r2, #48	; 0x30
  4052d8:	700a      	strb	r2, [r1, #0]
  4052da:	9a02      	ldr	r2, [sp, #8]
  4052dc:	f815 8c01 	ldrb.w	r8, [r5, #-1]
  4052e0:	3201      	adds	r2, #1
  4052e2:	9202      	str	r2, [sp, #8]
  4052e4:	f7ff bbfc 	b.w	404ae0 <_dtoa_r+0x380>
  4052e8:	f000 80bb 	beq.w	405462 <_dtoa_r+0xd02>
  4052ec:	9b02      	ldr	r3, [sp, #8]
  4052ee:	425d      	negs	r5, r3
  4052f0:	4b84      	ldr	r3, [pc, #528]	; (405504 <_dtoa_r+0xda4>)
  4052f2:	f005 020f 	and.w	r2, r5, #15
  4052f6:	eb03 03c2 	add.w	r3, r3, r2, lsl #3
  4052fa:	e9d3 2300 	ldrd	r2, r3, [r3]
  4052fe:	e9dd 0110 	ldrd	r0, r1, [sp, #64]	; 0x40
  405302:	f002 fbf1 	bl	407ae8 <__aeabi_dmul>
  405306:	112d      	asrs	r5, r5, #4
  405308:	4607      	mov	r7, r0
  40530a:	4688      	mov	r8, r1
  40530c:	f000 812c 	beq.w	405568 <_dtoa_r+0xe08>
  405310:	4e7d      	ldr	r6, [pc, #500]	; (405508 <_dtoa_r+0xda8>)
  405312:	f04f 0a02 	mov.w	sl, #2
  405316:	07eb      	lsls	r3, r5, #31
  405318:	d509      	bpl.n	40532e <_dtoa_r+0xbce>
  40531a:	4638      	mov	r0, r7
  40531c:	4641      	mov	r1, r8
  40531e:	e9d6 2300 	ldrd	r2, r3, [r6]
  405322:	f002 fbe1 	bl	407ae8 <__aeabi_dmul>
  405326:	f10a 0a01 	add.w	sl, sl, #1
  40532a:	4607      	mov	r7, r0
  40532c:	4688      	mov	r8, r1
  40532e:	106d      	asrs	r5, r5, #1
  405330:	f106 0608 	add.w	r6, r6, #8
  405334:	d1ef      	bne.n	405316 <_dtoa_r+0xbb6>
  405336:	e608      	b.n	404f4a <_dtoa_r+0x7ea>
  405338:	6871      	ldr	r1, [r6, #4]
  40533a:	4620      	mov	r0, r4
  40533c:	f001 faaa 	bl	406894 <_Balloc>
  405340:	6933      	ldr	r3, [r6, #16]
  405342:	3302      	adds	r3, #2
  405344:	009a      	lsls	r2, r3, #2
  405346:	4605      	mov	r5, r0
  405348:	f106 010c 	add.w	r1, r6, #12
  40534c:	300c      	adds	r0, #12
  40534e:	f001 f997 	bl	406680 <memcpy>
  405352:	4629      	mov	r1, r5
  405354:	2201      	movs	r2, #1
  405356:	4620      	mov	r0, r4
  405358:	f001 fc48 	bl	406bec <__lshift>
  40535c:	9006      	str	r0, [sp, #24]
  40535e:	e4b5      	b.n	404ccc <_dtoa_r+0x56c>
  405360:	2b39      	cmp	r3, #57	; 0x39
  405362:	f8cd b018 	str.w	fp, [sp, #24]
  405366:	46d0      	mov	r8, sl
  405368:	f000 80a5 	beq.w	4054b6 <_dtoa_r+0xd56>
  40536c:	f103 0a01 	add.w	sl, r3, #1
  405370:	46b3      	mov	fp, r6
  405372:	f887 a000 	strb.w	sl, [r7]
  405376:	1c7d      	adds	r5, r7, #1
  405378:	9e06      	ldr	r6, [sp, #24]
  40537a:	e571      	b.n	404e60 <_dtoa_r+0x700>
  40537c:	465a      	mov	r2, fp
  40537e:	46d0      	mov	r8, sl
  405380:	46b3      	mov	fp, r6
  405382:	469a      	mov	sl, r3
  405384:	4616      	mov	r6, r2
  405386:	e54f      	b.n	404e28 <_dtoa_r+0x6c8>
  405388:	9b12      	ldr	r3, [sp, #72]	; 0x48
  40538a:	495e      	ldr	r1, [pc, #376]	; (405504 <_dtoa_r+0xda4>)
  40538c:	eb01 01c3 	add.w	r1, r1, r3, lsl #3
  405390:	462a      	mov	r2, r5
  405392:	4633      	mov	r3, r6
  405394:	e951 0102 	ldrd	r0, r1, [r1, #-8]
  405398:	f002 fba6 	bl	407ae8 <__aeabi_dmul>
  40539c:	e9cd 0116 	strd	r0, r1, [sp, #88]	; 0x58
  4053a0:	4638      	mov	r0, r7
  4053a2:	4641      	mov	r1, r8
  4053a4:	f002 fe50 	bl	408048 <__aeabi_d2iz>
  4053a8:	4605      	mov	r5, r0
  4053aa:	f002 fb37 	bl	407a1c <__aeabi_i2d>
  4053ae:	460b      	mov	r3, r1
  4053b0:	4602      	mov	r2, r0
  4053b2:	4641      	mov	r1, r8
  4053b4:	4638      	mov	r0, r7
  4053b6:	f002 f9e3 	bl	407780 <__aeabi_dsub>
  4053ba:	9b12      	ldr	r3, [sp, #72]	; 0x48
  4053bc:	460f      	mov	r7, r1
  4053be:	9904      	ldr	r1, [sp, #16]
  4053c0:	3530      	adds	r5, #48	; 0x30
  4053c2:	2b01      	cmp	r3, #1
  4053c4:	700d      	strb	r5, [r1, #0]
  4053c6:	4606      	mov	r6, r0
  4053c8:	f101 0501 	add.w	r5, r1, #1
  4053cc:	d026      	beq.n	40541c <_dtoa_r+0xcbc>
  4053ce:	9b12      	ldr	r3, [sp, #72]	; 0x48
  4053d0:	9a04      	ldr	r2, [sp, #16]
  4053d2:	f8df b13c 	ldr.w	fp, [pc, #316]	; 405510 <_dtoa_r+0xdb0>
  4053d6:	f8cd 9048 	str.w	r9, [sp, #72]	; 0x48
  4053da:	4413      	add	r3, r2
  4053dc:	f04f 0a00 	mov.w	sl, #0
  4053e0:	4699      	mov	r9, r3
  4053e2:	4652      	mov	r2, sl
  4053e4:	465b      	mov	r3, fp
  4053e6:	4630      	mov	r0, r6
  4053e8:	4639      	mov	r1, r7
  4053ea:	f002 fb7d 	bl	407ae8 <__aeabi_dmul>
  4053ee:	460f      	mov	r7, r1
  4053f0:	4606      	mov	r6, r0
  4053f2:	f002 fe29 	bl	408048 <__aeabi_d2iz>
  4053f6:	4680      	mov	r8, r0
  4053f8:	f002 fb10 	bl	407a1c <__aeabi_i2d>
  4053fc:	f108 0830 	add.w	r8, r8, #48	; 0x30
  405400:	4602      	mov	r2, r0
  405402:	460b      	mov	r3, r1
  405404:	4630      	mov	r0, r6
  405406:	4639      	mov	r1, r7
  405408:	f002 f9ba 	bl	407780 <__aeabi_dsub>
  40540c:	f805 8b01 	strb.w	r8, [r5], #1
  405410:	454d      	cmp	r5, r9
  405412:	4606      	mov	r6, r0
  405414:	460f      	mov	r7, r1
  405416:	d1e4      	bne.n	4053e2 <_dtoa_r+0xc82>
  405418:	f8dd 9048 	ldr.w	r9, [sp, #72]	; 0x48
  40541c:	4b3b      	ldr	r3, [pc, #236]	; (40550c <_dtoa_r+0xdac>)
  40541e:	2200      	movs	r2, #0
  405420:	e9dd 0116 	ldrd	r0, r1, [sp, #88]	; 0x58
  405424:	f002 f9ae 	bl	407784 <__adddf3>
  405428:	4632      	mov	r2, r6
  40542a:	463b      	mov	r3, r7
  40542c:	f002 fdce 	bl	407fcc <__aeabi_dcmplt>
  405430:	2800      	cmp	r0, #0
  405432:	d046      	beq.n	4054c2 <_dtoa_r+0xd62>
  405434:	9b15      	ldr	r3, [sp, #84]	; 0x54
  405436:	9302      	str	r3, [sp, #8]
  405438:	f815 8c01 	ldrb.w	r8, [r5, #-1]
  40543c:	f7ff bb43 	b.w	404ac6 <_dtoa_r+0x366>
  405440:	f04f 0800 	mov.w	r8, #0
  405444:	4646      	mov	r6, r8
  405446:	e6a9      	b.n	40519c <_dtoa_r+0xa3c>
  405448:	9b08      	ldr	r3, [sp, #32]
  40544a:	9a0a      	ldr	r2, [sp, #40]	; 0x28
  40544c:	1a9d      	subs	r5, r3, r2
  40544e:	2300      	movs	r3, #0
  405450:	f7ff bb71 	b.w	404b36 <_dtoa_r+0x3d6>
  405454:	9b18      	ldr	r3, [sp, #96]	; 0x60
  405456:	9f0c      	ldr	r7, [sp, #48]	; 0x30
  405458:	9d08      	ldr	r5, [sp, #32]
  40545a:	f1c3 0336 	rsb	r3, r3, #54	; 0x36
  40545e:	f7ff bb6a 	b.w	404b36 <_dtoa_r+0x3d6>
  405462:	e9dd 7810 	ldrd	r7, r8, [sp, #64]	; 0x40
  405466:	f04f 0a02 	mov.w	sl, #2
  40546a:	e56e      	b.n	404f4a <_dtoa_r+0x7ea>
  40546c:	9b0a      	ldr	r3, [sp, #40]	; 0x28
  40546e:	2b00      	cmp	r3, #0
  405470:	f43f aeb8 	beq.w	4051e4 <_dtoa_r+0xa84>
  405474:	9b0f      	ldr	r3, [sp, #60]	; 0x3c
  405476:	2b00      	cmp	r3, #0
  405478:	f77f aede 	ble.w	405238 <_dtoa_r+0xad8>
  40547c:	2200      	movs	r2, #0
  40547e:	4b24      	ldr	r3, [pc, #144]	; (405510 <_dtoa_r+0xdb0>)
  405480:	4638      	mov	r0, r7
  405482:	4641      	mov	r1, r8
  405484:	f002 fb30 	bl	407ae8 <__aeabi_dmul>
  405488:	4607      	mov	r7, r0
  40548a:	4688      	mov	r8, r1
  40548c:	f10a 0001 	add.w	r0, sl, #1
  405490:	f002 fac4 	bl	407a1c <__aeabi_i2d>
  405494:	463a      	mov	r2, r7
  405496:	4643      	mov	r3, r8
  405498:	f002 fb26 	bl	407ae8 <__aeabi_dmul>
  40549c:	2200      	movs	r2, #0
  40549e:	4b17      	ldr	r3, [pc, #92]	; (4054fc <_dtoa_r+0xd9c>)
  4054a0:	f002 f970 	bl	407784 <__adddf3>
  4054a4:	9a02      	ldr	r2, [sp, #8]
  4054a6:	9b0f      	ldr	r3, [sp, #60]	; 0x3c
  4054a8:	9312      	str	r3, [sp, #72]	; 0x48
  4054aa:	3a01      	subs	r2, #1
  4054ac:	4605      	mov	r5, r0
  4054ae:	f1a1 7650 	sub.w	r6, r1, #54525952	; 0x3400000
  4054b2:	9215      	str	r2, [sp, #84]	; 0x54
  4054b4:	e56a      	b.n	404f8c <_dtoa_r+0x82c>
  4054b6:	2239      	movs	r2, #57	; 0x39
  4054b8:	46b3      	mov	fp, r6
  4054ba:	703a      	strb	r2, [r7, #0]
  4054bc:	9e06      	ldr	r6, [sp, #24]
  4054be:	1c7d      	adds	r5, r7, #1
  4054c0:	e4c0      	b.n	404e44 <_dtoa_r+0x6e4>
  4054c2:	e9dd 2316 	ldrd	r2, r3, [sp, #88]	; 0x58
  4054c6:	2000      	movs	r0, #0
  4054c8:	4910      	ldr	r1, [pc, #64]	; (40550c <_dtoa_r+0xdac>)
  4054ca:	f002 f959 	bl	407780 <__aeabi_dsub>
  4054ce:	4632      	mov	r2, r6
  4054d0:	463b      	mov	r3, r7
  4054d2:	f002 fd99 	bl	408008 <__aeabi_dcmpgt>
  4054d6:	b908      	cbnz	r0, 4054dc <_dtoa_r+0xd7c>
  4054d8:	e6ae      	b.n	405238 <_dtoa_r+0xad8>
  4054da:	4615      	mov	r5, r2
  4054dc:	f815 3c01 	ldrb.w	r3, [r5, #-1]
  4054e0:	2b30      	cmp	r3, #48	; 0x30
  4054e2:	f105 32ff 	add.w	r2, r5, #4294967295
  4054e6:	d0f8      	beq.n	4054da <_dtoa_r+0xd7a>
  4054e8:	e5d7      	b.n	40509a <_dtoa_r+0x93a>
  4054ea:	f8dd 9048 	ldr.w	r9, [sp, #72]	; 0x48
  4054ee:	9b15      	ldr	r3, [sp, #84]	; 0x54
  4054f0:	9302      	str	r3, [sp, #8]
  4054f2:	f7ff bae8 	b.w	404ac6 <_dtoa_r+0x366>
  4054f6:	970c      	str	r7, [sp, #48]	; 0x30
  4054f8:	f7ff bba5 	b.w	404c46 <_dtoa_r+0x4e6>
  4054fc:	401c0000 	.word	0x401c0000
  405500:	40140000 	.word	0x40140000
  405504:	00408d48 	.word	0x00408d48
  405508:	00408d20 	.word	0x00408d20
  40550c:	3fe00000 	.word	0x3fe00000
  405510:	40240000 	.word	0x40240000
  405514:	2b39      	cmp	r3, #57	; 0x39
  405516:	f8cd b018 	str.w	fp, [sp, #24]
  40551a:	46d0      	mov	r8, sl
  40551c:	f8dd b028 	ldr.w	fp, [sp, #40]	; 0x28
  405520:	469a      	mov	sl, r3
  405522:	d0c8      	beq.n	4054b6 <_dtoa_r+0xd56>
  405524:	f1bb 0f00 	cmp.w	fp, #0
  405528:	f73f aebf 	bgt.w	4052aa <_dtoa_r+0xb4a>
  40552c:	e6bf      	b.n	4052ae <_dtoa_r+0xb4e>
  40552e:	f47f aebe 	bne.w	4052ae <_dtoa_r+0xb4e>
  405532:	f01a 0f01 	tst.w	sl, #1
  405536:	f43f aeba 	beq.w	4052ae <_dtoa_r+0xb4e>
  40553a:	e6b2      	b.n	4052a2 <_dtoa_r+0xb42>
  40553c:	f04f 0800 	mov.w	r8, #0
  405540:	4646      	mov	r6, r8
  405542:	e5e9      	b.n	405118 <_dtoa_r+0x9b8>
  405544:	4631      	mov	r1, r6
  405546:	2300      	movs	r3, #0
  405548:	220a      	movs	r2, #10
  40554a:	4620      	mov	r0, r4
  40554c:	f001 f9d2 	bl	4068f4 <__multadd>
  405550:	9b0f      	ldr	r3, [sp, #60]	; 0x3c
  405552:	2b00      	cmp	r3, #0
  405554:	4606      	mov	r6, r0
  405556:	dd0a      	ble.n	40556e <_dtoa_r+0xe0e>
  405558:	930a      	str	r3, [sp, #40]	; 0x28
  40555a:	f7ff bbaa 	b.w	404cb2 <_dtoa_r+0x552>
  40555e:	9b24      	ldr	r3, [sp, #144]	; 0x90
  405560:	2b02      	cmp	r3, #2
  405562:	dc23      	bgt.n	4055ac <_dtoa_r+0xe4c>
  405564:	9b0f      	ldr	r3, [sp, #60]	; 0x3c
  405566:	e43b      	b.n	404de0 <_dtoa_r+0x680>
  405568:	f04f 0a02 	mov.w	sl, #2
  40556c:	e4ed      	b.n	404f4a <_dtoa_r+0x7ea>
  40556e:	9b24      	ldr	r3, [sp, #144]	; 0x90
  405570:	2b02      	cmp	r3, #2
  405572:	dc1b      	bgt.n	4055ac <_dtoa_r+0xe4c>
  405574:	9b0f      	ldr	r3, [sp, #60]	; 0x3c
  405576:	e7ef      	b.n	405558 <_dtoa_r+0xdf8>
  405578:	2500      	movs	r5, #0
  40557a:	6465      	str	r5, [r4, #68]	; 0x44
  40557c:	4629      	mov	r1, r5
  40557e:	4620      	mov	r0, r4
  405580:	f001 f988 	bl	406894 <_Balloc>
  405584:	f04f 33ff 	mov.w	r3, #4294967295
  405588:	930a      	str	r3, [sp, #40]	; 0x28
  40558a:	930f      	str	r3, [sp, #60]	; 0x3c
  40558c:	2301      	movs	r3, #1
  40558e:	9004      	str	r0, [sp, #16]
  405590:	9525      	str	r5, [sp, #148]	; 0x94
  405592:	6420      	str	r0, [r4, #64]	; 0x40
  405594:	930b      	str	r3, [sp, #44]	; 0x2c
  405596:	f7ff b9dd 	b.w	404954 <_dtoa_r+0x1f4>
  40559a:	2501      	movs	r5, #1
  40559c:	f7ff b9a5 	b.w	4048ea <_dtoa_r+0x18a>
  4055a0:	f43f ab69 	beq.w	404c76 <_dtoa_r+0x516>
  4055a4:	f1c0 003c 	rsb	r0, r0, #60	; 0x3c
  4055a8:	f7ff bbf9 	b.w	404d9e <_dtoa_r+0x63e>
  4055ac:	9b0f      	ldr	r3, [sp, #60]	; 0x3c
  4055ae:	930a      	str	r3, [sp, #40]	; 0x28
  4055b0:	e5e5      	b.n	40517e <_dtoa_r+0xa1e>
  4055b2:	bf00      	nop

004055b4 <__sflush_r>:
  4055b4:	f9b1 300c 	ldrsh.w	r3, [r1, #12]
  4055b8:	b29a      	uxth	r2, r3
  4055ba:	e92d 41f0 	stmdb	sp!, {r4, r5, r6, r7, r8, lr}
  4055be:	460d      	mov	r5, r1
  4055c0:	0711      	lsls	r1, r2, #28
  4055c2:	4680      	mov	r8, r0
  4055c4:	d43a      	bmi.n	40563c <__sflush_r+0x88>
  4055c6:	686a      	ldr	r2, [r5, #4]
  4055c8:	f443 6300 	orr.w	r3, r3, #2048	; 0x800
  4055cc:	2a00      	cmp	r2, #0
  4055ce:	81ab      	strh	r3, [r5, #12]
  4055d0:	dd6f      	ble.n	4056b2 <__sflush_r+0xfe>
  4055d2:	6aac      	ldr	r4, [r5, #40]	; 0x28
  4055d4:	2c00      	cmp	r4, #0
  4055d6:	d049      	beq.n	40566c <__sflush_r+0xb8>
  4055d8:	2200      	movs	r2, #0
  4055da:	b29b      	uxth	r3, r3
  4055dc:	f8d8 6000 	ldr.w	r6, [r8]
  4055e0:	f8c8 2000 	str.w	r2, [r8]
  4055e4:	f413 5280 	ands.w	r2, r3, #4096	; 0x1000
  4055e8:	d067      	beq.n	4056ba <__sflush_r+0x106>
  4055ea:	6d2a      	ldr	r2, [r5, #80]	; 0x50
  4055ec:	075f      	lsls	r7, r3, #29
  4055ee:	d505      	bpl.n	4055fc <__sflush_r+0x48>
  4055f0:	6869      	ldr	r1, [r5, #4]
  4055f2:	6b2b      	ldr	r3, [r5, #48]	; 0x30
  4055f4:	1a52      	subs	r2, r2, r1
  4055f6:	b10b      	cbz	r3, 4055fc <__sflush_r+0x48>
  4055f8:	6beb      	ldr	r3, [r5, #60]	; 0x3c
  4055fa:	1ad2      	subs	r2, r2, r3
  4055fc:	2300      	movs	r3, #0
  4055fe:	69e9      	ldr	r1, [r5, #28]
  405600:	4640      	mov	r0, r8
  405602:	47a0      	blx	r4
  405604:	1c44      	adds	r4, r0, #1
  405606:	d03c      	beq.n	405682 <__sflush_r+0xce>
  405608:	f9b5 300c 	ldrsh.w	r3, [r5, #12]
  40560c:	692a      	ldr	r2, [r5, #16]
  40560e:	602a      	str	r2, [r5, #0]
  405610:	f423 6300 	bic.w	r3, r3, #2048	; 0x800
  405614:	2200      	movs	r2, #0
  405616:	81ab      	strh	r3, [r5, #12]
  405618:	04db      	lsls	r3, r3, #19
  40561a:	606a      	str	r2, [r5, #4]
  40561c:	d447      	bmi.n	4056ae <__sflush_r+0xfa>
  40561e:	6b29      	ldr	r1, [r5, #48]	; 0x30
  405620:	f8c8 6000 	str.w	r6, [r8]
  405624:	b311      	cbz	r1, 40566c <__sflush_r+0xb8>
  405626:	f105 0340 	add.w	r3, r5, #64	; 0x40
  40562a:	4299      	cmp	r1, r3
  40562c:	d002      	beq.n	405634 <__sflush_r+0x80>
  40562e:	4640      	mov	r0, r8
  405630:	f000 f9de 	bl	4059f0 <_free_r>
  405634:	2000      	movs	r0, #0
  405636:	6328      	str	r0, [r5, #48]	; 0x30
  405638:	e8bd 81f0 	ldmia.w	sp!, {r4, r5, r6, r7, r8, pc}
  40563c:	692e      	ldr	r6, [r5, #16]
  40563e:	b1ae      	cbz	r6, 40566c <__sflush_r+0xb8>
  405640:	682c      	ldr	r4, [r5, #0]
  405642:	602e      	str	r6, [r5, #0]
  405644:	0791      	lsls	r1, r2, #30
  405646:	bf0c      	ite	eq
  405648:	696b      	ldreq	r3, [r5, #20]
  40564a:	2300      	movne	r3, #0
  40564c:	1ba4      	subs	r4, r4, r6
  40564e:	60ab      	str	r3, [r5, #8]
  405650:	e00a      	b.n	405668 <__sflush_r+0xb4>
  405652:	4623      	mov	r3, r4
  405654:	4632      	mov	r2, r6
  405656:	6a6f      	ldr	r7, [r5, #36]	; 0x24
  405658:	69e9      	ldr	r1, [r5, #28]
  40565a:	4640      	mov	r0, r8
  40565c:	47b8      	blx	r7
  40565e:	2800      	cmp	r0, #0
  405660:	eba4 0400 	sub.w	r4, r4, r0
  405664:	4406      	add	r6, r0
  405666:	dd04      	ble.n	405672 <__sflush_r+0xbe>
  405668:	2c00      	cmp	r4, #0
  40566a:	dcf2      	bgt.n	405652 <__sflush_r+0x9e>
  40566c:	2000      	movs	r0, #0
  40566e:	e8bd 81f0 	ldmia.w	sp!, {r4, r5, r6, r7, r8, pc}
  405672:	89ab      	ldrh	r3, [r5, #12]
  405674:	f043 0340 	orr.w	r3, r3, #64	; 0x40
  405678:	81ab      	strh	r3, [r5, #12]
  40567a:	f04f 30ff 	mov.w	r0, #4294967295
  40567e:	e8bd 81f0 	ldmia.w	sp!, {r4, r5, r6, r7, r8, pc}
  405682:	f8d8 4000 	ldr.w	r4, [r8]
  405686:	2c1d      	cmp	r4, #29
  405688:	d8f3      	bhi.n	405672 <__sflush_r+0xbe>
  40568a:	4b19      	ldr	r3, [pc, #100]	; (4056f0 <__sflush_r+0x13c>)
  40568c:	40e3      	lsrs	r3, r4
  40568e:	43db      	mvns	r3, r3
  405690:	f013 0301 	ands.w	r3, r3, #1
  405694:	d1ed      	bne.n	405672 <__sflush_r+0xbe>
  405696:	f9b5 200c 	ldrsh.w	r2, [r5, #12]
  40569a:	606b      	str	r3, [r5, #4]
  40569c:	f422 6300 	bic.w	r3, r2, #2048	; 0x800
  4056a0:	6929      	ldr	r1, [r5, #16]
  4056a2:	81ab      	strh	r3, [r5, #12]
  4056a4:	04da      	lsls	r2, r3, #19
  4056a6:	6029      	str	r1, [r5, #0]
  4056a8:	d5b9      	bpl.n	40561e <__sflush_r+0x6a>
  4056aa:	2c00      	cmp	r4, #0
  4056ac:	d1b7      	bne.n	40561e <__sflush_r+0x6a>
  4056ae:	6528      	str	r0, [r5, #80]	; 0x50
  4056b0:	e7b5      	b.n	40561e <__sflush_r+0x6a>
  4056b2:	6bea      	ldr	r2, [r5, #60]	; 0x3c
  4056b4:	2a00      	cmp	r2, #0
  4056b6:	dc8c      	bgt.n	4055d2 <__sflush_r+0x1e>
  4056b8:	e7d8      	b.n	40566c <__sflush_r+0xb8>
  4056ba:	2301      	movs	r3, #1
  4056bc:	69e9      	ldr	r1, [r5, #28]
  4056be:	4640      	mov	r0, r8
  4056c0:	47a0      	blx	r4
  4056c2:	1c43      	adds	r3, r0, #1
  4056c4:	4602      	mov	r2, r0
  4056c6:	d002      	beq.n	4056ce <__sflush_r+0x11a>
  4056c8:	89ab      	ldrh	r3, [r5, #12]
  4056ca:	6aac      	ldr	r4, [r5, #40]	; 0x28
  4056cc:	e78e      	b.n	4055ec <__sflush_r+0x38>
  4056ce:	f8d8 3000 	ldr.w	r3, [r8]
  4056d2:	2b00      	cmp	r3, #0
  4056d4:	d0f8      	beq.n	4056c8 <__sflush_r+0x114>
  4056d6:	2b1d      	cmp	r3, #29
  4056d8:	d001      	beq.n	4056de <__sflush_r+0x12a>
  4056da:	2b16      	cmp	r3, #22
  4056dc:	d102      	bne.n	4056e4 <__sflush_r+0x130>
  4056de:	f8c8 6000 	str.w	r6, [r8]
  4056e2:	e7c3      	b.n	40566c <__sflush_r+0xb8>
  4056e4:	89ab      	ldrh	r3, [r5, #12]
  4056e6:	f043 0340 	orr.w	r3, r3, #64	; 0x40
  4056ea:	81ab      	strh	r3, [r5, #12]
  4056ec:	e8bd 81f0 	ldmia.w	sp!, {r4, r5, r6, r7, r8, pc}
  4056f0:	20400001 	.word	0x20400001

004056f4 <_fflush_r>:
  4056f4:	b538      	push	{r3, r4, r5, lr}
  4056f6:	460d      	mov	r5, r1
  4056f8:	4604      	mov	r4, r0
  4056fa:	b108      	cbz	r0, 405700 <_fflush_r+0xc>
  4056fc:	6b83      	ldr	r3, [r0, #56]	; 0x38
  4056fe:	b1bb      	cbz	r3, 405730 <_fflush_r+0x3c>
  405700:	f9b5 000c 	ldrsh.w	r0, [r5, #12]
  405704:	b188      	cbz	r0, 40572a <_fflush_r+0x36>
  405706:	6e6b      	ldr	r3, [r5, #100]	; 0x64
  405708:	07db      	lsls	r3, r3, #31
  40570a:	d401      	bmi.n	405710 <_fflush_r+0x1c>
  40570c:	0581      	lsls	r1, r0, #22
  40570e:	d517      	bpl.n	405740 <_fflush_r+0x4c>
  405710:	4620      	mov	r0, r4
  405712:	4629      	mov	r1, r5
  405714:	f7ff ff4e 	bl	4055b4 <__sflush_r>
  405718:	6e6b      	ldr	r3, [r5, #100]	; 0x64
  40571a:	07da      	lsls	r2, r3, #31
  40571c:	4604      	mov	r4, r0
  40571e:	d402      	bmi.n	405726 <_fflush_r+0x32>
  405720:	89ab      	ldrh	r3, [r5, #12]
  405722:	059b      	lsls	r3, r3, #22
  405724:	d507      	bpl.n	405736 <_fflush_r+0x42>
  405726:	4620      	mov	r0, r4
  405728:	bd38      	pop	{r3, r4, r5, pc}
  40572a:	4604      	mov	r4, r0
  40572c:	4620      	mov	r0, r4
  40572e:	bd38      	pop	{r3, r4, r5, pc}
  405730:	f000 f838 	bl	4057a4 <__sinit>
  405734:	e7e4      	b.n	405700 <_fflush_r+0xc>
  405736:	6da8      	ldr	r0, [r5, #88]	; 0x58
  405738:	f000 fc04 	bl	405f44 <__retarget_lock_release_recursive>
  40573c:	4620      	mov	r0, r4
  40573e:	bd38      	pop	{r3, r4, r5, pc}
  405740:	6da8      	ldr	r0, [r5, #88]	; 0x58
  405742:	f000 fbfd 	bl	405f40 <__retarget_lock_acquire_recursive>
  405746:	e7e3      	b.n	405710 <_fflush_r+0x1c>

00405748 <_cleanup_r>:
  405748:	4901      	ldr	r1, [pc, #4]	; (405750 <_cleanup_r+0x8>)
  40574a:	f000 bbaf 	b.w	405eac <_fwalk_reent>
  40574e:	bf00      	nop
  405750:	00407611 	.word	0x00407611

00405754 <std.isra.0>:
  405754:	b510      	push	{r4, lr}
  405756:	2300      	movs	r3, #0
  405758:	4604      	mov	r4, r0
  40575a:	8181      	strh	r1, [r0, #12]
  40575c:	81c2      	strh	r2, [r0, #14]
  40575e:	6003      	str	r3, [r0, #0]
  405760:	6043      	str	r3, [r0, #4]
  405762:	6083      	str	r3, [r0, #8]
  405764:	6643      	str	r3, [r0, #100]	; 0x64
  405766:	6103      	str	r3, [r0, #16]
  405768:	6143      	str	r3, [r0, #20]
  40576a:	6183      	str	r3, [r0, #24]
  40576c:	4619      	mov	r1, r3
  40576e:	2208      	movs	r2, #8
  405770:	305c      	adds	r0, #92	; 0x5c
  405772:	f7fc fc2f 	bl	401fd4 <memset>
  405776:	4807      	ldr	r0, [pc, #28]	; (405794 <std.isra.0+0x40>)
  405778:	4907      	ldr	r1, [pc, #28]	; (405798 <std.isra.0+0x44>)
  40577a:	4a08      	ldr	r2, [pc, #32]	; (40579c <std.isra.0+0x48>)
  40577c:	4b08      	ldr	r3, [pc, #32]	; (4057a0 <std.isra.0+0x4c>)
  40577e:	6220      	str	r0, [r4, #32]
  405780:	61e4      	str	r4, [r4, #28]
  405782:	6261      	str	r1, [r4, #36]	; 0x24
  405784:	62a2      	str	r2, [r4, #40]	; 0x28
  405786:	62e3      	str	r3, [r4, #44]	; 0x2c
  405788:	f104 0058 	add.w	r0, r4, #88	; 0x58
  40578c:	e8bd 4010 	ldmia.w	sp!, {r4, lr}
  405790:	f000 bbd2 	b.w	405f38 <__retarget_lock_init_recursive>
  405794:	004071f9 	.word	0x004071f9
  405798:	0040721d 	.word	0x0040721d
  40579c:	00407259 	.word	0x00407259
  4057a0:	00407279 	.word	0x00407279

004057a4 <__sinit>:
  4057a4:	b510      	push	{r4, lr}
  4057a6:	4604      	mov	r4, r0
  4057a8:	4812      	ldr	r0, [pc, #72]	; (4057f4 <__sinit+0x50>)
  4057aa:	f000 fbc9 	bl	405f40 <__retarget_lock_acquire_recursive>
  4057ae:	6ba2      	ldr	r2, [r4, #56]	; 0x38
  4057b0:	b9d2      	cbnz	r2, 4057e8 <__sinit+0x44>
  4057b2:	f504 733b 	add.w	r3, r4, #748	; 0x2ec
  4057b6:	4810      	ldr	r0, [pc, #64]	; (4057f8 <__sinit+0x54>)
  4057b8:	f8c4 32e8 	str.w	r3, [r4, #744]	; 0x2e8
  4057bc:	2103      	movs	r1, #3
  4057be:	f8c4 22e0 	str.w	r2, [r4, #736]	; 0x2e0
  4057c2:	63e0      	str	r0, [r4, #60]	; 0x3c
  4057c4:	f8c4 12e4 	str.w	r1, [r4, #740]	; 0x2e4
  4057c8:	6860      	ldr	r0, [r4, #4]
  4057ca:	2104      	movs	r1, #4
  4057cc:	f7ff ffc2 	bl	405754 <std.isra.0>
  4057d0:	2201      	movs	r2, #1
  4057d2:	2109      	movs	r1, #9
  4057d4:	68a0      	ldr	r0, [r4, #8]
  4057d6:	f7ff ffbd 	bl	405754 <std.isra.0>
  4057da:	2202      	movs	r2, #2
  4057dc:	2112      	movs	r1, #18
  4057de:	68e0      	ldr	r0, [r4, #12]
  4057e0:	f7ff ffb8 	bl	405754 <std.isra.0>
  4057e4:	2301      	movs	r3, #1
  4057e6:	63a3      	str	r3, [r4, #56]	; 0x38
  4057e8:	4802      	ldr	r0, [pc, #8]	; (4057f4 <__sinit+0x50>)
  4057ea:	e8bd 4010 	ldmia.w	sp!, {r4, lr}
  4057ee:	f000 bba9 	b.w	405f44 <__retarget_lock_release_recursive>
  4057f2:	bf00      	nop
  4057f4:	20000eb8 	.word	0x20000eb8
  4057f8:	00405749 	.word	0x00405749

004057fc <__sfp_lock_acquire>:
  4057fc:	4801      	ldr	r0, [pc, #4]	; (405804 <__sfp_lock_acquire+0x8>)
  4057fe:	f000 bb9f 	b.w	405f40 <__retarget_lock_acquire_recursive>
  405802:	bf00      	nop
  405804:	20000ecc 	.word	0x20000ecc

00405808 <__sfp_lock_release>:
  405808:	4801      	ldr	r0, [pc, #4]	; (405810 <__sfp_lock_release+0x8>)
  40580a:	f000 bb9b 	b.w	405f44 <__retarget_lock_release_recursive>
  40580e:	bf00      	nop
  405810:	20000ecc 	.word	0x20000ecc

00405814 <__libc_fini_array>:
  405814:	b538      	push	{r3, r4, r5, lr}
  405816:	4c0a      	ldr	r4, [pc, #40]	; (405840 <__libc_fini_array+0x2c>)
  405818:	4d0a      	ldr	r5, [pc, #40]	; (405844 <__libc_fini_array+0x30>)
  40581a:	1b64      	subs	r4, r4, r5
  40581c:	10a4      	asrs	r4, r4, #2
  40581e:	d00a      	beq.n	405836 <__libc_fini_array+0x22>
  405820:	f104 4380 	add.w	r3, r4, #1073741824	; 0x40000000
  405824:	3b01      	subs	r3, #1
  405826:	eb05 0583 	add.w	r5, r5, r3, lsl #2
  40582a:	3c01      	subs	r4, #1
  40582c:	f855 3904 	ldr.w	r3, [r5], #-4
  405830:	4798      	blx	r3
  405832:	2c00      	cmp	r4, #0
  405834:	d1f9      	bne.n	40582a <__libc_fini_array+0x16>
  405836:	e8bd 4038 	ldmia.w	sp!, {r3, r4, r5, lr}
  40583a:	f003 bb7b 	b.w	408f34 <_fini>
  40583e:	bf00      	nop
  405840:	00408f44 	.word	0x00408f44
  405844:	00408f40 	.word	0x00408f40

00405848 <__fputwc>:
  405848:	e92d 47f0 	stmdb	sp!, {r4, r5, r6, r7, r8, r9, sl, lr}
  40584c:	b082      	sub	sp, #8
  40584e:	4680      	mov	r8, r0
  405850:	4689      	mov	r9, r1
  405852:	4614      	mov	r4, r2
  405854:	f000 fb54 	bl	405f00 <__locale_mb_cur_max>
  405858:	2801      	cmp	r0, #1
  40585a:	d036      	beq.n	4058ca <__fputwc+0x82>
  40585c:	464a      	mov	r2, r9
  40585e:	f104 035c 	add.w	r3, r4, #92	; 0x5c
  405862:	a901      	add	r1, sp, #4
  405864:	4640      	mov	r0, r8
  405866:	f001 fde1 	bl	40742c <_wcrtomb_r>
  40586a:	1c42      	adds	r2, r0, #1
  40586c:	4606      	mov	r6, r0
  40586e:	d025      	beq.n	4058bc <__fputwc+0x74>
  405870:	b3a8      	cbz	r0, 4058de <__fputwc+0x96>
  405872:	f89d e004 	ldrb.w	lr, [sp, #4]
  405876:	2500      	movs	r5, #0
  405878:	f10d 0a04 	add.w	sl, sp, #4
  40587c:	e009      	b.n	405892 <__fputwc+0x4a>
  40587e:	6823      	ldr	r3, [r4, #0]
  405880:	1c5a      	adds	r2, r3, #1
  405882:	6022      	str	r2, [r4, #0]
  405884:	f883 e000 	strb.w	lr, [r3]
  405888:	3501      	adds	r5, #1
  40588a:	42b5      	cmp	r5, r6
  40588c:	d227      	bcs.n	4058de <__fputwc+0x96>
  40588e:	f815 e00a 	ldrb.w	lr, [r5, sl]
  405892:	68a3      	ldr	r3, [r4, #8]
  405894:	3b01      	subs	r3, #1
  405896:	2b00      	cmp	r3, #0
  405898:	60a3      	str	r3, [r4, #8]
  40589a:	daf0      	bge.n	40587e <__fputwc+0x36>
  40589c:	69a7      	ldr	r7, [r4, #24]
  40589e:	42bb      	cmp	r3, r7
  4058a0:	4671      	mov	r1, lr
  4058a2:	4622      	mov	r2, r4
  4058a4:	4640      	mov	r0, r8
  4058a6:	db02      	blt.n	4058ae <__fputwc+0x66>
  4058a8:	f1be 0f0a 	cmp.w	lr, #10
  4058ac:	d1e7      	bne.n	40587e <__fputwc+0x36>
  4058ae:	f001 fd65 	bl	40737c <__swbuf_r>
  4058b2:	1c43      	adds	r3, r0, #1
  4058b4:	d1e8      	bne.n	405888 <__fputwc+0x40>
  4058b6:	b002      	add	sp, #8
  4058b8:	e8bd 87f0 	ldmia.w	sp!, {r4, r5, r6, r7, r8, r9, sl, pc}
  4058bc:	89a3      	ldrh	r3, [r4, #12]
  4058be:	f043 0340 	orr.w	r3, r3, #64	; 0x40
  4058c2:	81a3      	strh	r3, [r4, #12]
  4058c4:	b002      	add	sp, #8
  4058c6:	e8bd 87f0 	ldmia.w	sp!, {r4, r5, r6, r7, r8, r9, sl, pc}
  4058ca:	f109 33ff 	add.w	r3, r9, #4294967295
  4058ce:	2bfe      	cmp	r3, #254	; 0xfe
  4058d0:	d8c4      	bhi.n	40585c <__fputwc+0x14>
  4058d2:	fa5f fe89 	uxtb.w	lr, r9
  4058d6:	4606      	mov	r6, r0
  4058d8:	f88d e004 	strb.w	lr, [sp, #4]
  4058dc:	e7cb      	b.n	405876 <__fputwc+0x2e>
  4058de:	4648      	mov	r0, r9
  4058e0:	b002      	add	sp, #8
  4058e2:	e8bd 87f0 	ldmia.w	sp!, {r4, r5, r6, r7, r8, r9, sl, pc}
  4058e6:	bf00      	nop

004058e8 <_fputwc_r>:
  4058e8:	b530      	push	{r4, r5, lr}
  4058ea:	6e53      	ldr	r3, [r2, #100]	; 0x64
  4058ec:	f013 0f01 	tst.w	r3, #1
  4058f0:	f9b2 300c 	ldrsh.w	r3, [r2, #12]
  4058f4:	4614      	mov	r4, r2
  4058f6:	b083      	sub	sp, #12
  4058f8:	4605      	mov	r5, r0
  4058fa:	b29a      	uxth	r2, r3
  4058fc:	d101      	bne.n	405902 <_fputwc_r+0x1a>
  4058fe:	0590      	lsls	r0, r2, #22
  405900:	d51c      	bpl.n	40593c <_fputwc_r+0x54>
  405902:	0490      	lsls	r0, r2, #18
  405904:	d406      	bmi.n	405914 <_fputwc_r+0x2c>
  405906:	6e62      	ldr	r2, [r4, #100]	; 0x64
  405908:	f443 5300 	orr.w	r3, r3, #8192	; 0x2000
  40590c:	f442 5200 	orr.w	r2, r2, #8192	; 0x2000
  405910:	81a3      	strh	r3, [r4, #12]
  405912:	6662      	str	r2, [r4, #100]	; 0x64
  405914:	4628      	mov	r0, r5
  405916:	4622      	mov	r2, r4
  405918:	f7ff ff96 	bl	405848 <__fputwc>
  40591c:	6e63      	ldr	r3, [r4, #100]	; 0x64
  40591e:	07da      	lsls	r2, r3, #31
  405920:	4605      	mov	r5, r0
  405922:	d402      	bmi.n	40592a <_fputwc_r+0x42>
  405924:	89a3      	ldrh	r3, [r4, #12]
  405926:	059b      	lsls	r3, r3, #22
  405928:	d502      	bpl.n	405930 <_fputwc_r+0x48>
  40592a:	4628      	mov	r0, r5
  40592c:	b003      	add	sp, #12
  40592e:	bd30      	pop	{r4, r5, pc}
  405930:	6da0      	ldr	r0, [r4, #88]	; 0x58
  405932:	f000 fb07 	bl	405f44 <__retarget_lock_release_recursive>
  405936:	4628      	mov	r0, r5
  405938:	b003      	add	sp, #12
  40593a:	bd30      	pop	{r4, r5, pc}
  40593c:	6da0      	ldr	r0, [r4, #88]	; 0x58
  40593e:	9101      	str	r1, [sp, #4]
  405940:	f000 fafe 	bl	405f40 <__retarget_lock_acquire_recursive>
  405944:	f9b4 300c 	ldrsh.w	r3, [r4, #12]
  405948:	9901      	ldr	r1, [sp, #4]
  40594a:	b29a      	uxth	r2, r3
  40594c:	e7d9      	b.n	405902 <_fputwc_r+0x1a>
  40594e:	bf00      	nop

00405950 <_malloc_trim_r>:
  405950:	b5f8      	push	{r3, r4, r5, r6, r7, lr}
  405952:	4f24      	ldr	r7, [pc, #144]	; (4059e4 <_malloc_trim_r+0x94>)
  405954:	460c      	mov	r4, r1
  405956:	4606      	mov	r6, r0
  405958:	f000 ff90 	bl	40687c <__malloc_lock>
  40595c:	68bb      	ldr	r3, [r7, #8]
  40595e:	685d      	ldr	r5, [r3, #4]
  405960:	f5c4 617e 	rsb	r1, r4, #4064	; 0xfe0
  405964:	310f      	adds	r1, #15
  405966:	f025 0503 	bic.w	r5, r5, #3
  40596a:	4429      	add	r1, r5
  40596c:	f421 617f 	bic.w	r1, r1, #4080	; 0xff0
  405970:	f021 010f 	bic.w	r1, r1, #15
  405974:	f5a1 5480 	sub.w	r4, r1, #4096	; 0x1000
  405978:	f5b4 5f80 	cmp.w	r4, #4096	; 0x1000
  40597c:	db07      	blt.n	40598e <_malloc_trim_r+0x3e>
  40597e:	2100      	movs	r1, #0
  405980:	4630      	mov	r0, r6
  405982:	f001 fc27 	bl	4071d4 <_sbrk_r>
  405986:	68bb      	ldr	r3, [r7, #8]
  405988:	442b      	add	r3, r5
  40598a:	4298      	cmp	r0, r3
  40598c:	d004      	beq.n	405998 <_malloc_trim_r+0x48>
  40598e:	4630      	mov	r0, r6
  405990:	f000 ff7a 	bl	406888 <__malloc_unlock>
  405994:	2000      	movs	r0, #0
  405996:	bdf8      	pop	{r3, r4, r5, r6, r7, pc}
  405998:	4261      	negs	r1, r4
  40599a:	4630      	mov	r0, r6
  40599c:	f001 fc1a 	bl	4071d4 <_sbrk_r>
  4059a0:	3001      	adds	r0, #1
  4059a2:	d00d      	beq.n	4059c0 <_malloc_trim_r+0x70>
  4059a4:	4b10      	ldr	r3, [pc, #64]	; (4059e8 <_malloc_trim_r+0x98>)
  4059a6:	68ba      	ldr	r2, [r7, #8]
  4059a8:	6819      	ldr	r1, [r3, #0]
  4059aa:	1b2d      	subs	r5, r5, r4
  4059ac:	f045 0501 	orr.w	r5, r5, #1
  4059b0:	4630      	mov	r0, r6
  4059b2:	1b09      	subs	r1, r1, r4
  4059b4:	6055      	str	r5, [r2, #4]
  4059b6:	6019      	str	r1, [r3, #0]
  4059b8:	f000 ff66 	bl	406888 <__malloc_unlock>
  4059bc:	2001      	movs	r0, #1
  4059be:	bdf8      	pop	{r3, r4, r5, r6, r7, pc}
  4059c0:	2100      	movs	r1, #0
  4059c2:	4630      	mov	r0, r6
  4059c4:	f001 fc06 	bl	4071d4 <_sbrk_r>
  4059c8:	68ba      	ldr	r2, [r7, #8]
  4059ca:	1a83      	subs	r3, r0, r2
  4059cc:	2b0f      	cmp	r3, #15
  4059ce:	ddde      	ble.n	40598e <_malloc_trim_r+0x3e>
  4059d0:	4c06      	ldr	r4, [pc, #24]	; (4059ec <_malloc_trim_r+0x9c>)
  4059d2:	4905      	ldr	r1, [pc, #20]	; (4059e8 <_malloc_trim_r+0x98>)
  4059d4:	6824      	ldr	r4, [r4, #0]
  4059d6:	f043 0301 	orr.w	r3, r3, #1
  4059da:	1b00      	subs	r0, r0, r4
  4059dc:	6053      	str	r3, [r2, #4]
  4059de:	6008      	str	r0, [r1, #0]
  4059e0:	e7d5      	b.n	40598e <_malloc_trim_r+0x3e>
  4059e2:	bf00      	nop
  4059e4:	200005b8 	.word	0x200005b8
  4059e8:	20000e24 	.word	0x20000e24
  4059ec:	200009c0 	.word	0x200009c0

004059f0 <_free_r>:
  4059f0:	2900      	cmp	r1, #0
  4059f2:	d044      	beq.n	405a7e <_free_r+0x8e>
  4059f4:	e92d 41f0 	stmdb	sp!, {r4, r5, r6, r7, r8, lr}
  4059f8:	460d      	mov	r5, r1
  4059fa:	4680      	mov	r8, r0
  4059fc:	f000 ff3e 	bl	40687c <__malloc_lock>
  405a00:	f855 7c04 	ldr.w	r7, [r5, #-4]
  405a04:	4969      	ldr	r1, [pc, #420]	; (405bac <_free_r+0x1bc>)
  405a06:	f027 0301 	bic.w	r3, r7, #1
  405a0a:	f1a5 0408 	sub.w	r4, r5, #8
  405a0e:	18e2      	adds	r2, r4, r3
  405a10:	688e      	ldr	r6, [r1, #8]
  405a12:	6850      	ldr	r0, [r2, #4]
  405a14:	42b2      	cmp	r2, r6
  405a16:	f020 0003 	bic.w	r0, r0, #3
  405a1a:	d05e      	beq.n	405ada <_free_r+0xea>
  405a1c:	07fe      	lsls	r6, r7, #31
  405a1e:	6050      	str	r0, [r2, #4]
  405a20:	d40b      	bmi.n	405a3a <_free_r+0x4a>
  405a22:	f855 7c08 	ldr.w	r7, [r5, #-8]
  405a26:	1be4      	subs	r4, r4, r7
  405a28:	f101 0e08 	add.w	lr, r1, #8
  405a2c:	68a5      	ldr	r5, [r4, #8]
  405a2e:	4575      	cmp	r5, lr
  405a30:	443b      	add	r3, r7
  405a32:	d06d      	beq.n	405b10 <_free_r+0x120>
  405a34:	68e7      	ldr	r7, [r4, #12]
  405a36:	60ef      	str	r7, [r5, #12]
  405a38:	60bd      	str	r5, [r7, #8]
  405a3a:	1815      	adds	r5, r2, r0
  405a3c:	686d      	ldr	r5, [r5, #4]
  405a3e:	07ed      	lsls	r5, r5, #31
  405a40:	d53e      	bpl.n	405ac0 <_free_r+0xd0>
  405a42:	f043 0201 	orr.w	r2, r3, #1
  405a46:	6062      	str	r2, [r4, #4]
  405a48:	50e3      	str	r3, [r4, r3]
  405a4a:	f5b3 7f00 	cmp.w	r3, #512	; 0x200
  405a4e:	d217      	bcs.n	405a80 <_free_r+0x90>
  405a50:	08db      	lsrs	r3, r3, #3
  405a52:	1c58      	adds	r0, r3, #1
  405a54:	109a      	asrs	r2, r3, #2
  405a56:	684d      	ldr	r5, [r1, #4]
  405a58:	f851 7030 	ldr.w	r7, [r1, r0, lsl #3]
  405a5c:	60a7      	str	r7, [r4, #8]
  405a5e:	2301      	movs	r3, #1
  405a60:	4093      	lsls	r3, r2
  405a62:	eb01 02c0 	add.w	r2, r1, r0, lsl #3
  405a66:	432b      	orrs	r3, r5
  405a68:	3a08      	subs	r2, #8
  405a6a:	60e2      	str	r2, [r4, #12]
  405a6c:	604b      	str	r3, [r1, #4]
  405a6e:	f841 4030 	str.w	r4, [r1, r0, lsl #3]
  405a72:	60fc      	str	r4, [r7, #12]
  405a74:	4640      	mov	r0, r8
  405a76:	e8bd 41f0 	ldmia.w	sp!, {r4, r5, r6, r7, r8, lr}
  405a7a:	f000 bf05 	b.w	406888 <__malloc_unlock>
  405a7e:	4770      	bx	lr
  405a80:	0a5a      	lsrs	r2, r3, #9
  405a82:	2a04      	cmp	r2, #4
  405a84:	d852      	bhi.n	405b2c <_free_r+0x13c>
  405a86:	099a      	lsrs	r2, r3, #6
  405a88:	f102 0739 	add.w	r7, r2, #57	; 0x39
  405a8c:	00ff      	lsls	r7, r7, #3
  405a8e:	f102 0538 	add.w	r5, r2, #56	; 0x38
  405a92:	19c8      	adds	r0, r1, r7
  405a94:	59ca      	ldr	r2, [r1, r7]
  405a96:	3808      	subs	r0, #8
  405a98:	4290      	cmp	r0, r2
  405a9a:	d04f      	beq.n	405b3c <_free_r+0x14c>
  405a9c:	6851      	ldr	r1, [r2, #4]
  405a9e:	f021 0103 	bic.w	r1, r1, #3
  405aa2:	428b      	cmp	r3, r1
  405aa4:	d232      	bcs.n	405b0c <_free_r+0x11c>
  405aa6:	6892      	ldr	r2, [r2, #8]
  405aa8:	4290      	cmp	r0, r2
  405aaa:	d1f7      	bne.n	405a9c <_free_r+0xac>
  405aac:	68c3      	ldr	r3, [r0, #12]
  405aae:	60a0      	str	r0, [r4, #8]
  405ab0:	60e3      	str	r3, [r4, #12]
  405ab2:	609c      	str	r4, [r3, #8]
  405ab4:	60c4      	str	r4, [r0, #12]
  405ab6:	4640      	mov	r0, r8
  405ab8:	e8bd 41f0 	ldmia.w	sp!, {r4, r5, r6, r7, r8, lr}
  405abc:	f000 bee4 	b.w	406888 <__malloc_unlock>
  405ac0:	6895      	ldr	r5, [r2, #8]
  405ac2:	4f3b      	ldr	r7, [pc, #236]	; (405bb0 <_free_r+0x1c0>)
  405ac4:	42bd      	cmp	r5, r7
  405ac6:	4403      	add	r3, r0
  405ac8:	d040      	beq.n	405b4c <_free_r+0x15c>
  405aca:	68d0      	ldr	r0, [r2, #12]
  405acc:	60e8      	str	r0, [r5, #12]
  405ace:	f043 0201 	orr.w	r2, r3, #1
  405ad2:	6085      	str	r5, [r0, #8]
  405ad4:	6062      	str	r2, [r4, #4]
  405ad6:	50e3      	str	r3, [r4, r3]
  405ad8:	e7b7      	b.n	405a4a <_free_r+0x5a>
  405ada:	07ff      	lsls	r7, r7, #31
  405adc:	4403      	add	r3, r0
  405ade:	d407      	bmi.n	405af0 <_free_r+0x100>
  405ae0:	f855 2c08 	ldr.w	r2, [r5, #-8]
  405ae4:	1aa4      	subs	r4, r4, r2
  405ae6:	4413      	add	r3, r2
  405ae8:	68a0      	ldr	r0, [r4, #8]
  405aea:	68e2      	ldr	r2, [r4, #12]
  405aec:	60c2      	str	r2, [r0, #12]
  405aee:	6090      	str	r0, [r2, #8]
  405af0:	4a30      	ldr	r2, [pc, #192]	; (405bb4 <_free_r+0x1c4>)
  405af2:	6812      	ldr	r2, [r2, #0]
  405af4:	f043 0001 	orr.w	r0, r3, #1
  405af8:	4293      	cmp	r3, r2
  405afa:	6060      	str	r0, [r4, #4]
  405afc:	608c      	str	r4, [r1, #8]
  405afe:	d3b9      	bcc.n	405a74 <_free_r+0x84>
  405b00:	4b2d      	ldr	r3, [pc, #180]	; (405bb8 <_free_r+0x1c8>)
  405b02:	4640      	mov	r0, r8
  405b04:	6819      	ldr	r1, [r3, #0]
  405b06:	f7ff ff23 	bl	405950 <_malloc_trim_r>
  405b0a:	e7b3      	b.n	405a74 <_free_r+0x84>
  405b0c:	4610      	mov	r0, r2
  405b0e:	e7cd      	b.n	405aac <_free_r+0xbc>
  405b10:	1811      	adds	r1, r2, r0
  405b12:	6849      	ldr	r1, [r1, #4]
  405b14:	07c9      	lsls	r1, r1, #31
  405b16:	d444      	bmi.n	405ba2 <_free_r+0x1b2>
  405b18:	6891      	ldr	r1, [r2, #8]
  405b1a:	68d2      	ldr	r2, [r2, #12]
  405b1c:	60ca      	str	r2, [r1, #12]
  405b1e:	4403      	add	r3, r0
  405b20:	f043 0001 	orr.w	r0, r3, #1
  405b24:	6091      	str	r1, [r2, #8]
  405b26:	6060      	str	r0, [r4, #4]
  405b28:	50e3      	str	r3, [r4, r3]
  405b2a:	e7a3      	b.n	405a74 <_free_r+0x84>
  405b2c:	2a14      	cmp	r2, #20
  405b2e:	d816      	bhi.n	405b5e <_free_r+0x16e>
  405b30:	f102 075c 	add.w	r7, r2, #92	; 0x5c
  405b34:	00ff      	lsls	r7, r7, #3
  405b36:	f102 055b 	add.w	r5, r2, #91	; 0x5b
  405b3a:	e7aa      	b.n	405a92 <_free_r+0xa2>
  405b3c:	10aa      	asrs	r2, r5, #2
  405b3e:	2301      	movs	r3, #1
  405b40:	684d      	ldr	r5, [r1, #4]
  405b42:	4093      	lsls	r3, r2
  405b44:	432b      	orrs	r3, r5
  405b46:	604b      	str	r3, [r1, #4]
  405b48:	4603      	mov	r3, r0
  405b4a:	e7b0      	b.n	405aae <_free_r+0xbe>
  405b4c:	f043 0201 	orr.w	r2, r3, #1
  405b50:	614c      	str	r4, [r1, #20]
  405b52:	610c      	str	r4, [r1, #16]
  405b54:	60e5      	str	r5, [r4, #12]
  405b56:	60a5      	str	r5, [r4, #8]
  405b58:	6062      	str	r2, [r4, #4]
  405b5a:	50e3      	str	r3, [r4, r3]
  405b5c:	e78a      	b.n	405a74 <_free_r+0x84>
  405b5e:	2a54      	cmp	r2, #84	; 0x54
  405b60:	d806      	bhi.n	405b70 <_free_r+0x180>
  405b62:	0b1a      	lsrs	r2, r3, #12
  405b64:	f102 076f 	add.w	r7, r2, #111	; 0x6f
  405b68:	00ff      	lsls	r7, r7, #3
  405b6a:	f102 056e 	add.w	r5, r2, #110	; 0x6e
  405b6e:	e790      	b.n	405a92 <_free_r+0xa2>
  405b70:	f5b2 7faa 	cmp.w	r2, #340	; 0x154
  405b74:	d806      	bhi.n	405b84 <_free_r+0x194>
  405b76:	0bda      	lsrs	r2, r3, #15
  405b78:	f102 0778 	add.w	r7, r2, #120	; 0x78
  405b7c:	00ff      	lsls	r7, r7, #3
  405b7e:	f102 0577 	add.w	r5, r2, #119	; 0x77
  405b82:	e786      	b.n	405a92 <_free_r+0xa2>
  405b84:	f240 5054 	movw	r0, #1364	; 0x554
  405b88:	4282      	cmp	r2, r0
  405b8a:	d806      	bhi.n	405b9a <_free_r+0x1aa>
  405b8c:	0c9a      	lsrs	r2, r3, #18
  405b8e:	f102 077d 	add.w	r7, r2, #125	; 0x7d
  405b92:	00ff      	lsls	r7, r7, #3
  405b94:	f102 057c 	add.w	r5, r2, #124	; 0x7c
  405b98:	e77b      	b.n	405a92 <_free_r+0xa2>
  405b9a:	f44f 777e 	mov.w	r7, #1016	; 0x3f8
  405b9e:	257e      	movs	r5, #126	; 0x7e
  405ba0:	e777      	b.n	405a92 <_free_r+0xa2>
  405ba2:	f043 0101 	orr.w	r1, r3, #1
  405ba6:	6061      	str	r1, [r4, #4]
  405ba8:	6013      	str	r3, [r2, #0]
  405baa:	e763      	b.n	405a74 <_free_r+0x84>
  405bac:	200005b8 	.word	0x200005b8
  405bb0:	200005c0 	.word	0x200005c0
  405bb4:	200009c4 	.word	0x200009c4
  405bb8:	20000e54 	.word	0x20000e54

00405bbc <__sfvwrite_r>:
  405bbc:	6893      	ldr	r3, [r2, #8]
  405bbe:	2b00      	cmp	r3, #0
  405bc0:	d073      	beq.n	405caa <__sfvwrite_r+0xee>
  405bc2:	e92d 4ff0 	stmdb	sp!, {r4, r5, r6, r7, r8, r9, sl, fp, lr}
  405bc6:	898b      	ldrh	r3, [r1, #12]
  405bc8:	b083      	sub	sp, #12
  405bca:	460c      	mov	r4, r1
  405bcc:	0719      	lsls	r1, r3, #28
  405bce:	9000      	str	r0, [sp, #0]
  405bd0:	4616      	mov	r6, r2
  405bd2:	d526      	bpl.n	405c22 <__sfvwrite_r+0x66>
  405bd4:	6922      	ldr	r2, [r4, #16]
  405bd6:	b322      	cbz	r2, 405c22 <__sfvwrite_r+0x66>
  405bd8:	f013 0002 	ands.w	r0, r3, #2
  405bdc:	6835      	ldr	r5, [r6, #0]
  405bde:	d02c      	beq.n	405c3a <__sfvwrite_r+0x7e>
  405be0:	f04f 0900 	mov.w	r9, #0
  405be4:	4fb0      	ldr	r7, [pc, #704]	; (405ea8 <__sfvwrite_r+0x2ec>)
  405be6:	46c8      	mov	r8, r9
  405be8:	46b2      	mov	sl, r6
  405bea:	45b8      	cmp	r8, r7
  405bec:	4643      	mov	r3, r8
  405bee:	464a      	mov	r2, r9
  405bf0:	bf28      	it	cs
  405bf2:	463b      	movcs	r3, r7
  405bf4:	9800      	ldr	r0, [sp, #0]
  405bf6:	f1b8 0f00 	cmp.w	r8, #0
  405bfa:	d050      	beq.n	405c9e <__sfvwrite_r+0xe2>
  405bfc:	69e1      	ldr	r1, [r4, #28]
  405bfe:	6a66      	ldr	r6, [r4, #36]	; 0x24
  405c00:	47b0      	blx	r6
  405c02:	2800      	cmp	r0, #0
  405c04:	dd58      	ble.n	405cb8 <__sfvwrite_r+0xfc>
  405c06:	f8da 3008 	ldr.w	r3, [sl, #8]
  405c0a:	1a1b      	subs	r3, r3, r0
  405c0c:	4481      	add	r9, r0
  405c0e:	eba8 0800 	sub.w	r8, r8, r0
  405c12:	f8ca 3008 	str.w	r3, [sl, #8]
  405c16:	2b00      	cmp	r3, #0
  405c18:	d1e7      	bne.n	405bea <__sfvwrite_r+0x2e>
  405c1a:	2000      	movs	r0, #0
  405c1c:	b003      	add	sp, #12
  405c1e:	e8bd 8ff0 	ldmia.w	sp!, {r4, r5, r6, r7, r8, r9, sl, fp, pc}
  405c22:	4621      	mov	r1, r4
  405c24:	9800      	ldr	r0, [sp, #0]
  405c26:	f7fe fc91 	bl	40454c <__swsetup_r>
  405c2a:	2800      	cmp	r0, #0
  405c2c:	f040 8133 	bne.w	405e96 <__sfvwrite_r+0x2da>
  405c30:	89a3      	ldrh	r3, [r4, #12]
  405c32:	6835      	ldr	r5, [r6, #0]
  405c34:	f013 0002 	ands.w	r0, r3, #2
  405c38:	d1d2      	bne.n	405be0 <__sfvwrite_r+0x24>
  405c3a:	f013 0901 	ands.w	r9, r3, #1
  405c3e:	d145      	bne.n	405ccc <__sfvwrite_r+0x110>
  405c40:	464f      	mov	r7, r9
  405c42:	9601      	str	r6, [sp, #4]
  405c44:	b337      	cbz	r7, 405c94 <__sfvwrite_r+0xd8>
  405c46:	059a      	lsls	r2, r3, #22
  405c48:	f8d4 8008 	ldr.w	r8, [r4, #8]
  405c4c:	f140 8083 	bpl.w	405d56 <__sfvwrite_r+0x19a>
  405c50:	4547      	cmp	r7, r8
  405c52:	46c3      	mov	fp, r8
  405c54:	f0c0 80ab 	bcc.w	405dae <__sfvwrite_r+0x1f2>
  405c58:	f413 6f90 	tst.w	r3, #1152	; 0x480
  405c5c:	f040 80ac 	bne.w	405db8 <__sfvwrite_r+0x1fc>
  405c60:	6820      	ldr	r0, [r4, #0]
  405c62:	46ba      	mov	sl, r7
  405c64:	465a      	mov	r2, fp
  405c66:	4649      	mov	r1, r9
  405c68:	f000 fda4 	bl	4067b4 <memmove>
  405c6c:	68a2      	ldr	r2, [r4, #8]
  405c6e:	6823      	ldr	r3, [r4, #0]
  405c70:	eba2 0208 	sub.w	r2, r2, r8
  405c74:	445b      	add	r3, fp
  405c76:	60a2      	str	r2, [r4, #8]
  405c78:	6023      	str	r3, [r4, #0]
  405c7a:	9a01      	ldr	r2, [sp, #4]
  405c7c:	6893      	ldr	r3, [r2, #8]
  405c7e:	eba3 030a 	sub.w	r3, r3, sl
  405c82:	44d1      	add	r9, sl
  405c84:	eba7 070a 	sub.w	r7, r7, sl
  405c88:	6093      	str	r3, [r2, #8]
  405c8a:	2b00      	cmp	r3, #0
  405c8c:	d0c5      	beq.n	405c1a <__sfvwrite_r+0x5e>
  405c8e:	89a3      	ldrh	r3, [r4, #12]
  405c90:	2f00      	cmp	r7, #0
  405c92:	d1d8      	bne.n	405c46 <__sfvwrite_r+0x8a>
  405c94:	f8d5 9000 	ldr.w	r9, [r5]
  405c98:	686f      	ldr	r7, [r5, #4]
  405c9a:	3508      	adds	r5, #8
  405c9c:	e7d2      	b.n	405c44 <__sfvwrite_r+0x88>
  405c9e:	f8d5 9000 	ldr.w	r9, [r5]
  405ca2:	f8d5 8004 	ldr.w	r8, [r5, #4]
  405ca6:	3508      	adds	r5, #8
  405ca8:	e79f      	b.n	405bea <__sfvwrite_r+0x2e>
  405caa:	2000      	movs	r0, #0
  405cac:	4770      	bx	lr
  405cae:	4621      	mov	r1, r4
  405cb0:	9800      	ldr	r0, [sp, #0]
  405cb2:	f7ff fd1f 	bl	4056f4 <_fflush_r>
  405cb6:	b370      	cbz	r0, 405d16 <__sfvwrite_r+0x15a>
  405cb8:	f9b4 300c 	ldrsh.w	r3, [r4, #12]
  405cbc:	f043 0340 	orr.w	r3, r3, #64	; 0x40
  405cc0:	f04f 30ff 	mov.w	r0, #4294967295
  405cc4:	81a3      	strh	r3, [r4, #12]
  405cc6:	b003      	add	sp, #12
  405cc8:	e8bd 8ff0 	ldmia.w	sp!, {r4, r5, r6, r7, r8, r9, sl, fp, pc}
  405ccc:	4681      	mov	r9, r0
  405cce:	4633      	mov	r3, r6
  405cd0:	464e      	mov	r6, r9
  405cd2:	46a8      	mov	r8, r5
  405cd4:	469a      	mov	sl, r3
  405cd6:	464d      	mov	r5, r9
  405cd8:	b34e      	cbz	r6, 405d2e <__sfvwrite_r+0x172>
  405cda:	b380      	cbz	r0, 405d3e <__sfvwrite_r+0x182>
  405cdc:	6820      	ldr	r0, [r4, #0]
  405cde:	6923      	ldr	r3, [r4, #16]
  405ce0:	6962      	ldr	r2, [r4, #20]
  405ce2:	45b1      	cmp	r9, r6
  405ce4:	46cb      	mov	fp, r9
  405ce6:	bf28      	it	cs
  405ce8:	46b3      	movcs	fp, r6
  405cea:	4298      	cmp	r0, r3
  405cec:	465f      	mov	r7, fp
  405cee:	d904      	bls.n	405cfa <__sfvwrite_r+0x13e>
  405cf0:	68a3      	ldr	r3, [r4, #8]
  405cf2:	4413      	add	r3, r2
  405cf4:	459b      	cmp	fp, r3
  405cf6:	f300 80a6 	bgt.w	405e46 <__sfvwrite_r+0x28a>
  405cfa:	4593      	cmp	fp, r2
  405cfc:	db4b      	blt.n	405d96 <__sfvwrite_r+0x1da>
  405cfe:	4613      	mov	r3, r2
  405d00:	6a67      	ldr	r7, [r4, #36]	; 0x24
  405d02:	69e1      	ldr	r1, [r4, #28]
  405d04:	9800      	ldr	r0, [sp, #0]
  405d06:	462a      	mov	r2, r5
  405d08:	47b8      	blx	r7
  405d0a:	1e07      	subs	r7, r0, #0
  405d0c:	ddd4      	ble.n	405cb8 <__sfvwrite_r+0xfc>
  405d0e:	ebb9 0907 	subs.w	r9, r9, r7
  405d12:	d0cc      	beq.n	405cae <__sfvwrite_r+0xf2>
  405d14:	2001      	movs	r0, #1
  405d16:	f8da 3008 	ldr.w	r3, [sl, #8]
  405d1a:	1bdb      	subs	r3, r3, r7
  405d1c:	443d      	add	r5, r7
  405d1e:	1bf6      	subs	r6, r6, r7
  405d20:	f8ca 3008 	str.w	r3, [sl, #8]
  405d24:	2b00      	cmp	r3, #0
  405d26:	f43f af78 	beq.w	405c1a <__sfvwrite_r+0x5e>
  405d2a:	2e00      	cmp	r6, #0
  405d2c:	d1d5      	bne.n	405cda <__sfvwrite_r+0x11e>
  405d2e:	f108 0308 	add.w	r3, r8, #8
  405d32:	e913 0060 	ldmdb	r3, {r5, r6}
  405d36:	4698      	mov	r8, r3
  405d38:	3308      	adds	r3, #8
  405d3a:	2e00      	cmp	r6, #0
  405d3c:	d0f9      	beq.n	405d32 <__sfvwrite_r+0x176>
  405d3e:	4632      	mov	r2, r6
  405d40:	210a      	movs	r1, #10
  405d42:	4628      	mov	r0, r5
  405d44:	f000 fc4c 	bl	4065e0 <memchr>
  405d48:	2800      	cmp	r0, #0
  405d4a:	f000 80a1 	beq.w	405e90 <__sfvwrite_r+0x2d4>
  405d4e:	3001      	adds	r0, #1
  405d50:	eba0 0905 	sub.w	r9, r0, r5
  405d54:	e7c2      	b.n	405cdc <__sfvwrite_r+0x120>
  405d56:	6820      	ldr	r0, [r4, #0]
  405d58:	6923      	ldr	r3, [r4, #16]
  405d5a:	4298      	cmp	r0, r3
  405d5c:	d802      	bhi.n	405d64 <__sfvwrite_r+0x1a8>
  405d5e:	6963      	ldr	r3, [r4, #20]
  405d60:	429f      	cmp	r7, r3
  405d62:	d25d      	bcs.n	405e20 <__sfvwrite_r+0x264>
  405d64:	45b8      	cmp	r8, r7
  405d66:	bf28      	it	cs
  405d68:	46b8      	movcs	r8, r7
  405d6a:	4642      	mov	r2, r8
  405d6c:	4649      	mov	r1, r9
  405d6e:	f000 fd21 	bl	4067b4 <memmove>
  405d72:	68a3      	ldr	r3, [r4, #8]
  405d74:	6822      	ldr	r2, [r4, #0]
  405d76:	eba3 0308 	sub.w	r3, r3, r8
  405d7a:	4442      	add	r2, r8
  405d7c:	60a3      	str	r3, [r4, #8]
  405d7e:	6022      	str	r2, [r4, #0]
  405d80:	b10b      	cbz	r3, 405d86 <__sfvwrite_r+0x1ca>
  405d82:	46c2      	mov	sl, r8
  405d84:	e779      	b.n	405c7a <__sfvwrite_r+0xbe>
  405d86:	4621      	mov	r1, r4
  405d88:	9800      	ldr	r0, [sp, #0]
  405d8a:	f7ff fcb3 	bl	4056f4 <_fflush_r>
  405d8e:	2800      	cmp	r0, #0
  405d90:	d192      	bne.n	405cb8 <__sfvwrite_r+0xfc>
  405d92:	46c2      	mov	sl, r8
  405d94:	e771      	b.n	405c7a <__sfvwrite_r+0xbe>
  405d96:	465a      	mov	r2, fp
  405d98:	4629      	mov	r1, r5
  405d9a:	f000 fd0b 	bl	4067b4 <memmove>
  405d9e:	68a2      	ldr	r2, [r4, #8]
  405da0:	6823      	ldr	r3, [r4, #0]
  405da2:	eba2 020b 	sub.w	r2, r2, fp
  405da6:	445b      	add	r3, fp
  405da8:	60a2      	str	r2, [r4, #8]
  405daa:	6023      	str	r3, [r4, #0]
  405dac:	e7af      	b.n	405d0e <__sfvwrite_r+0x152>
  405dae:	6820      	ldr	r0, [r4, #0]
  405db0:	46b8      	mov	r8, r7
  405db2:	46ba      	mov	sl, r7
  405db4:	46bb      	mov	fp, r7
  405db6:	e755      	b.n	405c64 <__sfvwrite_r+0xa8>
  405db8:	6962      	ldr	r2, [r4, #20]
  405dba:	6820      	ldr	r0, [r4, #0]
  405dbc:	6921      	ldr	r1, [r4, #16]
  405dbe:	eb02 0842 	add.w	r8, r2, r2, lsl #1
  405dc2:	eba0 0a01 	sub.w	sl, r0, r1
  405dc6:	eb08 78d8 	add.w	r8, r8, r8, lsr #31
  405dca:	f10a 0001 	add.w	r0, sl, #1
  405dce:	ea4f 0868 	mov.w	r8, r8, asr #1
  405dd2:	4438      	add	r0, r7
  405dd4:	4540      	cmp	r0, r8
  405dd6:	4642      	mov	r2, r8
  405dd8:	bf84      	itt	hi
  405dda:	4680      	movhi	r8, r0
  405ddc:	4642      	movhi	r2, r8
  405dde:	055b      	lsls	r3, r3, #21
  405de0:	d544      	bpl.n	405e6c <__sfvwrite_r+0x2b0>
  405de2:	4611      	mov	r1, r2
  405de4:	9800      	ldr	r0, [sp, #0]
  405de6:	f000 f92f 	bl	406048 <_malloc_r>
  405dea:	4683      	mov	fp, r0
  405dec:	2800      	cmp	r0, #0
  405dee:	d055      	beq.n	405e9c <__sfvwrite_r+0x2e0>
  405df0:	4652      	mov	r2, sl
  405df2:	6921      	ldr	r1, [r4, #16]
  405df4:	f000 fc44 	bl	406680 <memcpy>
  405df8:	89a3      	ldrh	r3, [r4, #12]
  405dfa:	f423 6390 	bic.w	r3, r3, #1152	; 0x480
  405dfe:	f043 0380 	orr.w	r3, r3, #128	; 0x80
  405e02:	81a3      	strh	r3, [r4, #12]
  405e04:	eb0b 000a 	add.w	r0, fp, sl
  405e08:	eba8 030a 	sub.w	r3, r8, sl
  405e0c:	f8c4 b010 	str.w	fp, [r4, #16]
  405e10:	f8c4 8014 	str.w	r8, [r4, #20]
  405e14:	6020      	str	r0, [r4, #0]
  405e16:	60a3      	str	r3, [r4, #8]
  405e18:	46b8      	mov	r8, r7
  405e1a:	46ba      	mov	sl, r7
  405e1c:	46bb      	mov	fp, r7
  405e1e:	e721      	b.n	405c64 <__sfvwrite_r+0xa8>
  405e20:	f06f 4100 	mvn.w	r1, #2147483648	; 0x80000000
  405e24:	42b9      	cmp	r1, r7
  405e26:	bf28      	it	cs
  405e28:	4639      	movcs	r1, r7
  405e2a:	464a      	mov	r2, r9
  405e2c:	fb91 f1f3 	sdiv	r1, r1, r3
  405e30:	9800      	ldr	r0, [sp, #0]
  405e32:	6a66      	ldr	r6, [r4, #36]	; 0x24
  405e34:	fb03 f301 	mul.w	r3, r3, r1
  405e38:	69e1      	ldr	r1, [r4, #28]
  405e3a:	47b0      	blx	r6
  405e3c:	f1b0 0a00 	subs.w	sl, r0, #0
  405e40:	f73f af1b 	bgt.w	405c7a <__sfvwrite_r+0xbe>
  405e44:	e738      	b.n	405cb8 <__sfvwrite_r+0xfc>
  405e46:	461a      	mov	r2, r3
  405e48:	4629      	mov	r1, r5
  405e4a:	9301      	str	r3, [sp, #4]
  405e4c:	f000 fcb2 	bl	4067b4 <memmove>
  405e50:	6822      	ldr	r2, [r4, #0]
  405e52:	9b01      	ldr	r3, [sp, #4]
  405e54:	9800      	ldr	r0, [sp, #0]
  405e56:	441a      	add	r2, r3
  405e58:	6022      	str	r2, [r4, #0]
  405e5a:	4621      	mov	r1, r4
  405e5c:	f7ff fc4a 	bl	4056f4 <_fflush_r>
  405e60:	9b01      	ldr	r3, [sp, #4]
  405e62:	2800      	cmp	r0, #0
  405e64:	f47f af28 	bne.w	405cb8 <__sfvwrite_r+0xfc>
  405e68:	461f      	mov	r7, r3
  405e6a:	e750      	b.n	405d0e <__sfvwrite_r+0x152>
  405e6c:	9800      	ldr	r0, [sp, #0]
  405e6e:	f001 f80b 	bl	406e88 <_realloc_r>
  405e72:	4683      	mov	fp, r0
  405e74:	2800      	cmp	r0, #0
  405e76:	d1c5      	bne.n	405e04 <__sfvwrite_r+0x248>
  405e78:	9d00      	ldr	r5, [sp, #0]
  405e7a:	6921      	ldr	r1, [r4, #16]
  405e7c:	4628      	mov	r0, r5
  405e7e:	f7ff fdb7 	bl	4059f0 <_free_r>
  405e82:	f9b4 300c 	ldrsh.w	r3, [r4, #12]
  405e86:	220c      	movs	r2, #12
  405e88:	f023 0380 	bic.w	r3, r3, #128	; 0x80
  405e8c:	602a      	str	r2, [r5, #0]
  405e8e:	e715      	b.n	405cbc <__sfvwrite_r+0x100>
  405e90:	f106 0901 	add.w	r9, r6, #1
  405e94:	e722      	b.n	405cdc <__sfvwrite_r+0x120>
  405e96:	f04f 30ff 	mov.w	r0, #4294967295
  405e9a:	e6bf      	b.n	405c1c <__sfvwrite_r+0x60>
  405e9c:	9a00      	ldr	r2, [sp, #0]
  405e9e:	230c      	movs	r3, #12
  405ea0:	6013      	str	r3, [r2, #0]
  405ea2:	f9b4 300c 	ldrsh.w	r3, [r4, #12]
  405ea6:	e709      	b.n	405cbc <__sfvwrite_r+0x100>
  405ea8:	7ffffc00 	.word	0x7ffffc00

00405eac <_fwalk_reent>:
  405eac:	e92d 43f8 	stmdb	sp!, {r3, r4, r5, r6, r7, r8, r9, lr}
  405eb0:	f510 7738 	adds.w	r7, r0, #736	; 0x2e0
  405eb4:	d01f      	beq.n	405ef6 <_fwalk_reent+0x4a>
  405eb6:	4688      	mov	r8, r1
  405eb8:	4606      	mov	r6, r0
  405eba:	f04f 0900 	mov.w	r9, #0
  405ebe:	687d      	ldr	r5, [r7, #4]
  405ec0:	68bc      	ldr	r4, [r7, #8]
  405ec2:	3d01      	subs	r5, #1
  405ec4:	d411      	bmi.n	405eea <_fwalk_reent+0x3e>
  405ec6:	89a3      	ldrh	r3, [r4, #12]
  405ec8:	2b01      	cmp	r3, #1
  405eca:	f105 35ff 	add.w	r5, r5, #4294967295
  405ece:	d908      	bls.n	405ee2 <_fwalk_reent+0x36>
  405ed0:	f9b4 300e 	ldrsh.w	r3, [r4, #14]
  405ed4:	3301      	adds	r3, #1
  405ed6:	4621      	mov	r1, r4
  405ed8:	4630      	mov	r0, r6
  405eda:	d002      	beq.n	405ee2 <_fwalk_reent+0x36>
  405edc:	47c0      	blx	r8
  405ede:	ea49 0900 	orr.w	r9, r9, r0
  405ee2:	1c6b      	adds	r3, r5, #1
  405ee4:	f104 0468 	add.w	r4, r4, #104	; 0x68
  405ee8:	d1ed      	bne.n	405ec6 <_fwalk_reent+0x1a>
  405eea:	683f      	ldr	r7, [r7, #0]
  405eec:	2f00      	cmp	r7, #0
  405eee:	d1e6      	bne.n	405ebe <_fwalk_reent+0x12>
  405ef0:	4648      	mov	r0, r9
  405ef2:	e8bd 83f8 	ldmia.w	sp!, {r3, r4, r5, r6, r7, r8, r9, pc}
  405ef6:	46b9      	mov	r9, r7
  405ef8:	4648      	mov	r0, r9
  405efa:	e8bd 83f8 	ldmia.w	sp!, {r3, r4, r5, r6, r7, r8, r9, pc}
  405efe:	bf00      	nop

00405f00 <__locale_mb_cur_max>:
  405f00:	4b04      	ldr	r3, [pc, #16]	; (405f14 <__locale_mb_cur_max+0x14>)
  405f02:	4a05      	ldr	r2, [pc, #20]	; (405f18 <__locale_mb_cur_max+0x18>)
  405f04:	681b      	ldr	r3, [r3, #0]
  405f06:	6b5b      	ldr	r3, [r3, #52]	; 0x34
  405f08:	2b00      	cmp	r3, #0
  405f0a:	bf08      	it	eq
  405f0c:	4613      	moveq	r3, r2
  405f0e:	f893 0128 	ldrb.w	r0, [r3, #296]	; 0x128
  405f12:	4770      	bx	lr
  405f14:	2000001c 	.word	0x2000001c
  405f18:	2000044c 	.word	0x2000044c

00405f1c <_localeconv_r>:
  405f1c:	4a04      	ldr	r2, [pc, #16]	; (405f30 <_localeconv_r+0x14>)
  405f1e:	4b05      	ldr	r3, [pc, #20]	; (405f34 <_localeconv_r+0x18>)
  405f20:	6812      	ldr	r2, [r2, #0]
  405f22:	6b50      	ldr	r0, [r2, #52]	; 0x34
  405f24:	2800      	cmp	r0, #0
  405f26:	bf08      	it	eq
  405f28:	4618      	moveq	r0, r3
  405f2a:	30f0      	adds	r0, #240	; 0xf0
  405f2c:	4770      	bx	lr
  405f2e:	bf00      	nop
  405f30:	2000001c 	.word	0x2000001c
  405f34:	2000044c 	.word	0x2000044c

00405f38 <__retarget_lock_init_recursive>:
  405f38:	4770      	bx	lr
  405f3a:	bf00      	nop

00405f3c <__retarget_lock_close_recursive>:
  405f3c:	4770      	bx	lr
  405f3e:	bf00      	nop

00405f40 <__retarget_lock_acquire_recursive>:
  405f40:	4770      	bx	lr
  405f42:	bf00      	nop

00405f44 <__retarget_lock_release_recursive>:
  405f44:	4770      	bx	lr
  405f46:	bf00      	nop

00405f48 <__swhatbuf_r>:
  405f48:	b570      	push	{r4, r5, r6, lr}
  405f4a:	460c      	mov	r4, r1
  405f4c:	f9b1 100e 	ldrsh.w	r1, [r1, #14]
  405f50:	2900      	cmp	r1, #0
  405f52:	b090      	sub	sp, #64	; 0x40
  405f54:	4615      	mov	r5, r2
  405f56:	461e      	mov	r6, r3
  405f58:	db14      	blt.n	405f84 <__swhatbuf_r+0x3c>
  405f5a:	aa01      	add	r2, sp, #4
  405f5c:	f001 fbba 	bl	4076d4 <_fstat_r>
  405f60:	2800      	cmp	r0, #0
  405f62:	db0f      	blt.n	405f84 <__swhatbuf_r+0x3c>
  405f64:	9a02      	ldr	r2, [sp, #8]
  405f66:	f402 4270 	and.w	r2, r2, #61440	; 0xf000
  405f6a:	f5a2 5200 	sub.w	r2, r2, #8192	; 0x2000
  405f6e:	fab2 f282 	clz	r2, r2
  405f72:	0952      	lsrs	r2, r2, #5
  405f74:	f44f 6380 	mov.w	r3, #1024	; 0x400
  405f78:	f44f 6000 	mov.w	r0, #2048	; 0x800
  405f7c:	6032      	str	r2, [r6, #0]
  405f7e:	602b      	str	r3, [r5, #0]
  405f80:	b010      	add	sp, #64	; 0x40
  405f82:	bd70      	pop	{r4, r5, r6, pc}
  405f84:	89a2      	ldrh	r2, [r4, #12]
  405f86:	2300      	movs	r3, #0
  405f88:	f012 0080 	ands.w	r0, r2, #128	; 0x80
  405f8c:	6033      	str	r3, [r6, #0]
  405f8e:	d004      	beq.n	405f9a <__swhatbuf_r+0x52>
  405f90:	2240      	movs	r2, #64	; 0x40
  405f92:	4618      	mov	r0, r3
  405f94:	602a      	str	r2, [r5, #0]
  405f96:	b010      	add	sp, #64	; 0x40
  405f98:	bd70      	pop	{r4, r5, r6, pc}
  405f9a:	f44f 6380 	mov.w	r3, #1024	; 0x400
  405f9e:	602b      	str	r3, [r5, #0]
  405fa0:	b010      	add	sp, #64	; 0x40
  405fa2:	bd70      	pop	{r4, r5, r6, pc}

00405fa4 <__smakebuf_r>:
  405fa4:	898a      	ldrh	r2, [r1, #12]
  405fa6:	0792      	lsls	r2, r2, #30
  405fa8:	460b      	mov	r3, r1
  405faa:	d506      	bpl.n	405fba <__smakebuf_r+0x16>
  405fac:	f101 0243 	add.w	r2, r1, #67	; 0x43
  405fb0:	2101      	movs	r1, #1
  405fb2:	601a      	str	r2, [r3, #0]
  405fb4:	611a      	str	r2, [r3, #16]
  405fb6:	6159      	str	r1, [r3, #20]
  405fb8:	4770      	bx	lr
  405fba:	b5f0      	push	{r4, r5, r6, r7, lr}
  405fbc:	b083      	sub	sp, #12
  405fbe:	ab01      	add	r3, sp, #4
  405fc0:	466a      	mov	r2, sp
  405fc2:	460c      	mov	r4, r1
  405fc4:	4606      	mov	r6, r0
  405fc6:	f7ff ffbf 	bl	405f48 <__swhatbuf_r>
  405fca:	9900      	ldr	r1, [sp, #0]
  405fcc:	4605      	mov	r5, r0
  405fce:	4630      	mov	r0, r6
  405fd0:	f000 f83a 	bl	406048 <_malloc_r>
  405fd4:	f9b4 300c 	ldrsh.w	r3, [r4, #12]
  405fd8:	b1d8      	cbz	r0, 406012 <__smakebuf_r+0x6e>
  405fda:	9a01      	ldr	r2, [sp, #4]
  405fdc:	4f15      	ldr	r7, [pc, #84]	; (406034 <__smakebuf_r+0x90>)
  405fde:	9900      	ldr	r1, [sp, #0]
  405fe0:	63f7      	str	r7, [r6, #60]	; 0x3c
  405fe2:	f043 0380 	orr.w	r3, r3, #128	; 0x80
  405fe6:	81a3      	strh	r3, [r4, #12]
  405fe8:	6020      	str	r0, [r4, #0]
  405fea:	6120      	str	r0, [r4, #16]
  405fec:	6161      	str	r1, [r4, #20]
  405fee:	b91a      	cbnz	r2, 405ff8 <__smakebuf_r+0x54>
  405ff0:	432b      	orrs	r3, r5
  405ff2:	81a3      	strh	r3, [r4, #12]
  405ff4:	b003      	add	sp, #12
  405ff6:	bdf0      	pop	{r4, r5, r6, r7, pc}
  405ff8:	4630      	mov	r0, r6
  405ffa:	f9b4 100e 	ldrsh.w	r1, [r4, #14]
  405ffe:	f001 fb7d 	bl	4076fc <_isatty_r>
  406002:	b1a0      	cbz	r0, 40602e <__smakebuf_r+0x8a>
  406004:	89a3      	ldrh	r3, [r4, #12]
  406006:	f023 0303 	bic.w	r3, r3, #3
  40600a:	f043 0301 	orr.w	r3, r3, #1
  40600e:	b21b      	sxth	r3, r3
  406010:	e7ee      	b.n	405ff0 <__smakebuf_r+0x4c>
  406012:	059a      	lsls	r2, r3, #22
  406014:	d4ee      	bmi.n	405ff4 <__smakebuf_r+0x50>
  406016:	f023 0303 	bic.w	r3, r3, #3
  40601a:	f104 0243 	add.w	r2, r4, #67	; 0x43
  40601e:	f043 0302 	orr.w	r3, r3, #2
  406022:	2101      	movs	r1, #1
  406024:	81a3      	strh	r3, [r4, #12]
  406026:	6022      	str	r2, [r4, #0]
  406028:	6122      	str	r2, [r4, #16]
  40602a:	6161      	str	r1, [r4, #20]
  40602c:	e7e2      	b.n	405ff4 <__smakebuf_r+0x50>
  40602e:	f9b4 300c 	ldrsh.w	r3, [r4, #12]
  406032:	e7dd      	b.n	405ff0 <__smakebuf_r+0x4c>
  406034:	00405749 	.word	0x00405749

00406038 <malloc>:
  406038:	4b02      	ldr	r3, [pc, #8]	; (406044 <malloc+0xc>)
  40603a:	4601      	mov	r1, r0
  40603c:	6818      	ldr	r0, [r3, #0]
  40603e:	f000 b803 	b.w	406048 <_malloc_r>
  406042:	bf00      	nop
  406044:	2000001c 	.word	0x2000001c

00406048 <_malloc_r>:
  406048:	e92d 4ff0 	stmdb	sp!, {r4, r5, r6, r7, r8, r9, sl, fp, lr}
  40604c:	f101 060b 	add.w	r6, r1, #11
  406050:	2e16      	cmp	r6, #22
  406052:	b083      	sub	sp, #12
  406054:	4605      	mov	r5, r0
  406056:	f240 809e 	bls.w	406196 <_malloc_r+0x14e>
  40605a:	f036 0607 	bics.w	r6, r6, #7
  40605e:	f100 80bd 	bmi.w	4061dc <_malloc_r+0x194>
  406062:	42b1      	cmp	r1, r6
  406064:	f200 80ba 	bhi.w	4061dc <_malloc_r+0x194>
  406068:	f000 fc08 	bl	40687c <__malloc_lock>
  40606c:	f5b6 7ffc 	cmp.w	r6, #504	; 0x1f8
  406070:	f0c0 8293 	bcc.w	40659a <_malloc_r+0x552>
  406074:	0a73      	lsrs	r3, r6, #9
  406076:	f000 80b8 	beq.w	4061ea <_malloc_r+0x1a2>
  40607a:	2b04      	cmp	r3, #4
  40607c:	f200 8179 	bhi.w	406372 <_malloc_r+0x32a>
  406080:	09b3      	lsrs	r3, r6, #6
  406082:	f103 0039 	add.w	r0, r3, #57	; 0x39
  406086:	f103 0e38 	add.w	lr, r3, #56	; 0x38
  40608a:	00c3      	lsls	r3, r0, #3
  40608c:	4fbf      	ldr	r7, [pc, #764]	; (40638c <_malloc_r+0x344>)
  40608e:	443b      	add	r3, r7
  406090:	f1a3 0108 	sub.w	r1, r3, #8
  406094:	685c      	ldr	r4, [r3, #4]
  406096:	42a1      	cmp	r1, r4
  406098:	d106      	bne.n	4060a8 <_malloc_r+0x60>
  40609a:	e00c      	b.n	4060b6 <_malloc_r+0x6e>
  40609c:	2a00      	cmp	r2, #0
  40609e:	f280 80aa 	bge.w	4061f6 <_malloc_r+0x1ae>
  4060a2:	68e4      	ldr	r4, [r4, #12]
  4060a4:	42a1      	cmp	r1, r4
  4060a6:	d006      	beq.n	4060b6 <_malloc_r+0x6e>
  4060a8:	6863      	ldr	r3, [r4, #4]
  4060aa:	f023 0303 	bic.w	r3, r3, #3
  4060ae:	1b9a      	subs	r2, r3, r6
  4060b0:	2a0f      	cmp	r2, #15
  4060b2:	ddf3      	ble.n	40609c <_malloc_r+0x54>
  4060b4:	4670      	mov	r0, lr
  4060b6:	693c      	ldr	r4, [r7, #16]
  4060b8:	f8df e2e4 	ldr.w	lr, [pc, #740]	; 4063a0 <_malloc_r+0x358>
  4060bc:	4574      	cmp	r4, lr
  4060be:	f000 81ab 	beq.w	406418 <_malloc_r+0x3d0>
  4060c2:	6863      	ldr	r3, [r4, #4]
  4060c4:	f023 0303 	bic.w	r3, r3, #3
  4060c8:	1b9a      	subs	r2, r3, r6
  4060ca:	2a0f      	cmp	r2, #15
  4060cc:	f300 8190 	bgt.w	4063f0 <_malloc_r+0x3a8>
  4060d0:	2a00      	cmp	r2, #0
  4060d2:	f8c7 e014 	str.w	lr, [r7, #20]
  4060d6:	f8c7 e010 	str.w	lr, [r7, #16]
  4060da:	f280 809d 	bge.w	406218 <_malloc_r+0x1d0>
  4060de:	f5b3 7f00 	cmp.w	r3, #512	; 0x200
  4060e2:	f080 8161 	bcs.w	4063a8 <_malloc_r+0x360>
  4060e6:	08db      	lsrs	r3, r3, #3
  4060e8:	f103 0c01 	add.w	ip, r3, #1
  4060ec:	1099      	asrs	r1, r3, #2
  4060ee:	687a      	ldr	r2, [r7, #4]
  4060f0:	f857 803c 	ldr.w	r8, [r7, ip, lsl #3]
  4060f4:	f8c4 8008 	str.w	r8, [r4, #8]
  4060f8:	2301      	movs	r3, #1
  4060fa:	408b      	lsls	r3, r1
  4060fc:	eb07 01cc 	add.w	r1, r7, ip, lsl #3
  406100:	4313      	orrs	r3, r2
  406102:	3908      	subs	r1, #8
  406104:	60e1      	str	r1, [r4, #12]
  406106:	607b      	str	r3, [r7, #4]
  406108:	f847 403c 	str.w	r4, [r7, ip, lsl #3]
  40610c:	f8c8 400c 	str.w	r4, [r8, #12]
  406110:	1082      	asrs	r2, r0, #2
  406112:	2401      	movs	r4, #1
  406114:	4094      	lsls	r4, r2
  406116:	429c      	cmp	r4, r3
  406118:	f200 808b 	bhi.w	406232 <_malloc_r+0x1ea>
  40611c:	421c      	tst	r4, r3
  40611e:	d106      	bne.n	40612e <_malloc_r+0xe6>
  406120:	f020 0003 	bic.w	r0, r0, #3
  406124:	0064      	lsls	r4, r4, #1
  406126:	421c      	tst	r4, r3
  406128:	f100 0004 	add.w	r0, r0, #4
  40612c:	d0fa      	beq.n	406124 <_malloc_r+0xdc>
  40612e:	eb07 09c0 	add.w	r9, r7, r0, lsl #3
  406132:	46cc      	mov	ip, r9
  406134:	4680      	mov	r8, r0
  406136:	f8dc 300c 	ldr.w	r3, [ip, #12]
  40613a:	459c      	cmp	ip, r3
  40613c:	d107      	bne.n	40614e <_malloc_r+0x106>
  40613e:	e16d      	b.n	40641c <_malloc_r+0x3d4>
  406140:	2a00      	cmp	r2, #0
  406142:	f280 817b 	bge.w	40643c <_malloc_r+0x3f4>
  406146:	68db      	ldr	r3, [r3, #12]
  406148:	459c      	cmp	ip, r3
  40614a:	f000 8167 	beq.w	40641c <_malloc_r+0x3d4>
  40614e:	6859      	ldr	r1, [r3, #4]
  406150:	f021 0103 	bic.w	r1, r1, #3
  406154:	1b8a      	subs	r2, r1, r6
  406156:	2a0f      	cmp	r2, #15
  406158:	ddf2      	ble.n	406140 <_malloc_r+0xf8>
  40615a:	f8d3 c00c 	ldr.w	ip, [r3, #12]
  40615e:	f8d3 8008 	ldr.w	r8, [r3, #8]
  406162:	9300      	str	r3, [sp, #0]
  406164:	199c      	adds	r4, r3, r6
  406166:	4628      	mov	r0, r5
  406168:	f046 0601 	orr.w	r6, r6, #1
  40616c:	f042 0501 	orr.w	r5, r2, #1
  406170:	605e      	str	r6, [r3, #4]
  406172:	f8c8 c00c 	str.w	ip, [r8, #12]
  406176:	f8cc 8008 	str.w	r8, [ip, #8]
  40617a:	617c      	str	r4, [r7, #20]
  40617c:	613c      	str	r4, [r7, #16]
  40617e:	f8c4 e00c 	str.w	lr, [r4, #12]
  406182:	f8c4 e008 	str.w	lr, [r4, #8]
  406186:	6065      	str	r5, [r4, #4]
  406188:	505a      	str	r2, [r3, r1]
  40618a:	f000 fb7d 	bl	406888 <__malloc_unlock>
  40618e:	9b00      	ldr	r3, [sp, #0]
  406190:	f103 0408 	add.w	r4, r3, #8
  406194:	e01e      	b.n	4061d4 <_malloc_r+0x18c>
  406196:	2910      	cmp	r1, #16
  406198:	d820      	bhi.n	4061dc <_malloc_r+0x194>
  40619a:	f000 fb6f 	bl	40687c <__malloc_lock>
  40619e:	2610      	movs	r6, #16
  4061a0:	2318      	movs	r3, #24
  4061a2:	2002      	movs	r0, #2
  4061a4:	4f79      	ldr	r7, [pc, #484]	; (40638c <_malloc_r+0x344>)
  4061a6:	443b      	add	r3, r7
  4061a8:	f1a3 0208 	sub.w	r2, r3, #8
  4061ac:	685c      	ldr	r4, [r3, #4]
  4061ae:	4294      	cmp	r4, r2
  4061b0:	f000 813d 	beq.w	40642e <_malloc_r+0x3e6>
  4061b4:	6863      	ldr	r3, [r4, #4]
  4061b6:	68e1      	ldr	r1, [r4, #12]
  4061b8:	68a6      	ldr	r6, [r4, #8]
  4061ba:	f023 0303 	bic.w	r3, r3, #3
  4061be:	4423      	add	r3, r4
  4061c0:	4628      	mov	r0, r5
  4061c2:	685a      	ldr	r2, [r3, #4]
  4061c4:	60f1      	str	r1, [r6, #12]
  4061c6:	f042 0201 	orr.w	r2, r2, #1
  4061ca:	608e      	str	r6, [r1, #8]
  4061cc:	605a      	str	r2, [r3, #4]
  4061ce:	f000 fb5b 	bl	406888 <__malloc_unlock>
  4061d2:	3408      	adds	r4, #8
  4061d4:	4620      	mov	r0, r4
  4061d6:	b003      	add	sp, #12
  4061d8:	e8bd 8ff0 	ldmia.w	sp!, {r4, r5, r6, r7, r8, r9, sl, fp, pc}
  4061dc:	2400      	movs	r4, #0
  4061de:	230c      	movs	r3, #12
  4061e0:	4620      	mov	r0, r4
  4061e2:	602b      	str	r3, [r5, #0]
  4061e4:	b003      	add	sp, #12
  4061e6:	e8bd 8ff0 	ldmia.w	sp!, {r4, r5, r6, r7, r8, r9, sl, fp, pc}
  4061ea:	2040      	movs	r0, #64	; 0x40
  4061ec:	f44f 7300 	mov.w	r3, #512	; 0x200
  4061f0:	f04f 0e3f 	mov.w	lr, #63	; 0x3f
  4061f4:	e74a      	b.n	40608c <_malloc_r+0x44>
  4061f6:	4423      	add	r3, r4
  4061f8:	68e1      	ldr	r1, [r4, #12]
  4061fa:	685a      	ldr	r2, [r3, #4]
  4061fc:	68a6      	ldr	r6, [r4, #8]
  4061fe:	f042 0201 	orr.w	r2, r2, #1
  406202:	60f1      	str	r1, [r6, #12]
  406204:	4628      	mov	r0, r5
  406206:	608e      	str	r6, [r1, #8]
  406208:	605a      	str	r2, [r3, #4]
  40620a:	f000 fb3d 	bl	406888 <__malloc_unlock>
  40620e:	3408      	adds	r4, #8
  406210:	4620      	mov	r0, r4
  406212:	b003      	add	sp, #12
  406214:	e8bd 8ff0 	ldmia.w	sp!, {r4, r5, r6, r7, r8, r9, sl, fp, pc}
  406218:	4423      	add	r3, r4
  40621a:	4628      	mov	r0, r5
  40621c:	685a      	ldr	r2, [r3, #4]
  40621e:	f042 0201 	orr.w	r2, r2, #1
  406222:	605a      	str	r2, [r3, #4]
  406224:	f000 fb30 	bl	406888 <__malloc_unlock>
  406228:	3408      	adds	r4, #8
  40622a:	4620      	mov	r0, r4
  40622c:	b003      	add	sp, #12
  40622e:	e8bd 8ff0 	ldmia.w	sp!, {r4, r5, r6, r7, r8, r9, sl, fp, pc}
  406232:	68bc      	ldr	r4, [r7, #8]
  406234:	6863      	ldr	r3, [r4, #4]
  406236:	f023 0803 	bic.w	r8, r3, #3
  40623a:	45b0      	cmp	r8, r6
  40623c:	d304      	bcc.n	406248 <_malloc_r+0x200>
  40623e:	eba8 0306 	sub.w	r3, r8, r6
  406242:	2b0f      	cmp	r3, #15
  406244:	f300 8085 	bgt.w	406352 <_malloc_r+0x30a>
  406248:	f8df 9158 	ldr.w	r9, [pc, #344]	; 4063a4 <_malloc_r+0x35c>
  40624c:	4b50      	ldr	r3, [pc, #320]	; (406390 <_malloc_r+0x348>)
  40624e:	f8d9 2000 	ldr.w	r2, [r9]
  406252:	681b      	ldr	r3, [r3, #0]
  406254:	3201      	adds	r2, #1
  406256:	4433      	add	r3, r6
  406258:	eb04 0a08 	add.w	sl, r4, r8
  40625c:	f000 8155 	beq.w	40650a <_malloc_r+0x4c2>
  406260:	f503 5380 	add.w	r3, r3, #4096	; 0x1000
  406264:	330f      	adds	r3, #15
  406266:	f423 6b7f 	bic.w	fp, r3, #4080	; 0xff0
  40626a:	f02b 0b0f 	bic.w	fp, fp, #15
  40626e:	4659      	mov	r1, fp
  406270:	4628      	mov	r0, r5
  406272:	f000 ffaf 	bl	4071d4 <_sbrk_r>
  406276:	1c41      	adds	r1, r0, #1
  406278:	4602      	mov	r2, r0
  40627a:	f000 80fc 	beq.w	406476 <_malloc_r+0x42e>
  40627e:	4582      	cmp	sl, r0
  406280:	f200 80f7 	bhi.w	406472 <_malloc_r+0x42a>
  406284:	4b43      	ldr	r3, [pc, #268]	; (406394 <_malloc_r+0x34c>)
  406286:	6819      	ldr	r1, [r3, #0]
  406288:	4459      	add	r1, fp
  40628a:	6019      	str	r1, [r3, #0]
  40628c:	f000 814d 	beq.w	40652a <_malloc_r+0x4e2>
  406290:	f8d9 0000 	ldr.w	r0, [r9]
  406294:	3001      	adds	r0, #1
  406296:	bf1b      	ittet	ne
  406298:	eba2 0a0a 	subne.w	sl, r2, sl
  40629c:	4451      	addne	r1, sl
  40629e:	f8c9 2000 	streq.w	r2, [r9]
  4062a2:	6019      	strne	r1, [r3, #0]
  4062a4:	f012 0107 	ands.w	r1, r2, #7
  4062a8:	f000 8115 	beq.w	4064d6 <_malloc_r+0x48e>
  4062ac:	f1c1 0008 	rsb	r0, r1, #8
  4062b0:	f5c1 5180 	rsb	r1, r1, #4096	; 0x1000
  4062b4:	4402      	add	r2, r0
  4062b6:	3108      	adds	r1, #8
  4062b8:	eb02 090b 	add.w	r9, r2, fp
  4062bc:	f3c9 090b 	ubfx	r9, r9, #0, #12
  4062c0:	eba1 0909 	sub.w	r9, r1, r9
  4062c4:	4649      	mov	r1, r9
  4062c6:	4628      	mov	r0, r5
  4062c8:	9301      	str	r3, [sp, #4]
  4062ca:	9200      	str	r2, [sp, #0]
  4062cc:	f000 ff82 	bl	4071d4 <_sbrk_r>
  4062d0:	1c43      	adds	r3, r0, #1
  4062d2:	e89d 000c 	ldmia.w	sp, {r2, r3}
  4062d6:	f000 8143 	beq.w	406560 <_malloc_r+0x518>
  4062da:	1a80      	subs	r0, r0, r2
  4062dc:	4448      	add	r0, r9
  4062de:	f040 0001 	orr.w	r0, r0, #1
  4062e2:	6819      	ldr	r1, [r3, #0]
  4062e4:	60ba      	str	r2, [r7, #8]
  4062e6:	4449      	add	r1, r9
  4062e8:	42bc      	cmp	r4, r7
  4062ea:	6050      	str	r0, [r2, #4]
  4062ec:	6019      	str	r1, [r3, #0]
  4062ee:	d017      	beq.n	406320 <_malloc_r+0x2d8>
  4062f0:	f1b8 0f0f 	cmp.w	r8, #15
  4062f4:	f240 80fb 	bls.w	4064ee <_malloc_r+0x4a6>
  4062f8:	6860      	ldr	r0, [r4, #4]
  4062fa:	f1a8 020c 	sub.w	r2, r8, #12
  4062fe:	f022 0207 	bic.w	r2, r2, #7
  406302:	eb04 0e02 	add.w	lr, r4, r2
  406306:	f000 0001 	and.w	r0, r0, #1
  40630a:	f04f 0c05 	mov.w	ip, #5
  40630e:	4310      	orrs	r0, r2
  406310:	2a0f      	cmp	r2, #15
  406312:	6060      	str	r0, [r4, #4]
  406314:	f8ce c004 	str.w	ip, [lr, #4]
  406318:	f8ce c008 	str.w	ip, [lr, #8]
  40631c:	f200 8117 	bhi.w	40654e <_malloc_r+0x506>
  406320:	4b1d      	ldr	r3, [pc, #116]	; (406398 <_malloc_r+0x350>)
  406322:	68bc      	ldr	r4, [r7, #8]
  406324:	681a      	ldr	r2, [r3, #0]
  406326:	4291      	cmp	r1, r2
  406328:	bf88      	it	hi
  40632a:	6019      	strhi	r1, [r3, #0]
  40632c:	4b1b      	ldr	r3, [pc, #108]	; (40639c <_malloc_r+0x354>)
  40632e:	681a      	ldr	r2, [r3, #0]
  406330:	4291      	cmp	r1, r2
  406332:	6862      	ldr	r2, [r4, #4]
  406334:	bf88      	it	hi
  406336:	6019      	strhi	r1, [r3, #0]
  406338:	f022 0203 	bic.w	r2, r2, #3
  40633c:	4296      	cmp	r6, r2
  40633e:	eba2 0306 	sub.w	r3, r2, r6
  406342:	d801      	bhi.n	406348 <_malloc_r+0x300>
  406344:	2b0f      	cmp	r3, #15
  406346:	dc04      	bgt.n	406352 <_malloc_r+0x30a>
  406348:	4628      	mov	r0, r5
  40634a:	f000 fa9d 	bl	406888 <__malloc_unlock>
  40634e:	2400      	movs	r4, #0
  406350:	e740      	b.n	4061d4 <_malloc_r+0x18c>
  406352:	19a2      	adds	r2, r4, r6
  406354:	f043 0301 	orr.w	r3, r3, #1
  406358:	f046 0601 	orr.w	r6, r6, #1
  40635c:	6066      	str	r6, [r4, #4]
  40635e:	4628      	mov	r0, r5
  406360:	60ba      	str	r2, [r7, #8]
  406362:	6053      	str	r3, [r2, #4]
  406364:	f000 fa90 	bl	406888 <__malloc_unlock>
  406368:	3408      	adds	r4, #8
  40636a:	4620      	mov	r0, r4
  40636c:	b003      	add	sp, #12
  40636e:	e8bd 8ff0 	ldmia.w	sp!, {r4, r5, r6, r7, r8, r9, sl, fp, pc}
  406372:	2b14      	cmp	r3, #20
  406374:	d971      	bls.n	40645a <_malloc_r+0x412>
  406376:	2b54      	cmp	r3, #84	; 0x54
  406378:	f200 80a3 	bhi.w	4064c2 <_malloc_r+0x47a>
  40637c:	0b33      	lsrs	r3, r6, #12
  40637e:	f103 006f 	add.w	r0, r3, #111	; 0x6f
  406382:	f103 0e6e 	add.w	lr, r3, #110	; 0x6e
  406386:	00c3      	lsls	r3, r0, #3
  406388:	e680      	b.n	40608c <_malloc_r+0x44>
  40638a:	bf00      	nop
  40638c:	200005b8 	.word	0x200005b8
  406390:	20000e54 	.word	0x20000e54
  406394:	20000e24 	.word	0x20000e24
  406398:	20000e4c 	.word	0x20000e4c
  40639c:	20000e50 	.word	0x20000e50
  4063a0:	200005c0 	.word	0x200005c0
  4063a4:	200009c0 	.word	0x200009c0
  4063a8:	0a5a      	lsrs	r2, r3, #9
  4063aa:	2a04      	cmp	r2, #4
  4063ac:	d95b      	bls.n	406466 <_malloc_r+0x41e>
  4063ae:	2a14      	cmp	r2, #20
  4063b0:	f200 80ae 	bhi.w	406510 <_malloc_r+0x4c8>
  4063b4:	f102 015c 	add.w	r1, r2, #92	; 0x5c
  4063b8:	00c9      	lsls	r1, r1, #3
  4063ba:	325b      	adds	r2, #91	; 0x5b
  4063bc:	eb07 0c01 	add.w	ip, r7, r1
  4063c0:	5879      	ldr	r1, [r7, r1]
  4063c2:	f1ac 0c08 	sub.w	ip, ip, #8
  4063c6:	458c      	cmp	ip, r1
  4063c8:	f000 8088 	beq.w	4064dc <_malloc_r+0x494>
  4063cc:	684a      	ldr	r2, [r1, #4]
  4063ce:	f022 0203 	bic.w	r2, r2, #3
  4063d2:	4293      	cmp	r3, r2
  4063d4:	d273      	bcs.n	4064be <_malloc_r+0x476>
  4063d6:	6889      	ldr	r1, [r1, #8]
  4063d8:	458c      	cmp	ip, r1
  4063da:	d1f7      	bne.n	4063cc <_malloc_r+0x384>
  4063dc:	f8dc 200c 	ldr.w	r2, [ip, #12]
  4063e0:	687b      	ldr	r3, [r7, #4]
  4063e2:	60e2      	str	r2, [r4, #12]
  4063e4:	f8c4 c008 	str.w	ip, [r4, #8]
  4063e8:	6094      	str	r4, [r2, #8]
  4063ea:	f8cc 400c 	str.w	r4, [ip, #12]
  4063ee:	e68f      	b.n	406110 <_malloc_r+0xc8>
  4063f0:	19a1      	adds	r1, r4, r6
  4063f2:	f046 0c01 	orr.w	ip, r6, #1
  4063f6:	f042 0601 	orr.w	r6, r2, #1
  4063fa:	f8c4 c004 	str.w	ip, [r4, #4]
  4063fe:	4628      	mov	r0, r5
  406400:	6179      	str	r1, [r7, #20]
  406402:	6139      	str	r1, [r7, #16]
  406404:	f8c1 e00c 	str.w	lr, [r1, #12]
  406408:	f8c1 e008 	str.w	lr, [r1, #8]
  40640c:	604e      	str	r6, [r1, #4]
  40640e:	50e2      	str	r2, [r4, r3]
  406410:	f000 fa3a 	bl	406888 <__malloc_unlock>
  406414:	3408      	adds	r4, #8
  406416:	e6dd      	b.n	4061d4 <_malloc_r+0x18c>
  406418:	687b      	ldr	r3, [r7, #4]
  40641a:	e679      	b.n	406110 <_malloc_r+0xc8>
  40641c:	f108 0801 	add.w	r8, r8, #1
  406420:	f018 0f03 	tst.w	r8, #3
  406424:	f10c 0c08 	add.w	ip, ip, #8
  406428:	f47f ae85 	bne.w	406136 <_malloc_r+0xee>
  40642c:	e02d      	b.n	40648a <_malloc_r+0x442>
  40642e:	68dc      	ldr	r4, [r3, #12]
  406430:	42a3      	cmp	r3, r4
  406432:	bf08      	it	eq
  406434:	3002      	addeq	r0, #2
  406436:	f43f ae3e 	beq.w	4060b6 <_malloc_r+0x6e>
  40643a:	e6bb      	b.n	4061b4 <_malloc_r+0x16c>
  40643c:	4419      	add	r1, r3
  40643e:	461c      	mov	r4, r3
  406440:	684a      	ldr	r2, [r1, #4]
  406442:	68db      	ldr	r3, [r3, #12]
  406444:	f854 6f08 	ldr.w	r6, [r4, #8]!
  406448:	f042 0201 	orr.w	r2, r2, #1
  40644c:	604a      	str	r2, [r1, #4]
  40644e:	4628      	mov	r0, r5
  406450:	60f3      	str	r3, [r6, #12]
  406452:	609e      	str	r6, [r3, #8]
  406454:	f000 fa18 	bl	406888 <__malloc_unlock>
  406458:	e6bc      	b.n	4061d4 <_malloc_r+0x18c>
  40645a:	f103 005c 	add.w	r0, r3, #92	; 0x5c
  40645e:	f103 0e5b 	add.w	lr, r3, #91	; 0x5b
  406462:	00c3      	lsls	r3, r0, #3
  406464:	e612      	b.n	40608c <_malloc_r+0x44>
  406466:	099a      	lsrs	r2, r3, #6
  406468:	f102 0139 	add.w	r1, r2, #57	; 0x39
  40646c:	00c9      	lsls	r1, r1, #3
  40646e:	3238      	adds	r2, #56	; 0x38
  406470:	e7a4      	b.n	4063bc <_malloc_r+0x374>
  406472:	42bc      	cmp	r4, r7
  406474:	d054      	beq.n	406520 <_malloc_r+0x4d8>
  406476:	68bc      	ldr	r4, [r7, #8]
  406478:	6862      	ldr	r2, [r4, #4]
  40647a:	f022 0203 	bic.w	r2, r2, #3
  40647e:	e75d      	b.n	40633c <_malloc_r+0x2f4>
  406480:	f859 3908 	ldr.w	r3, [r9], #-8
  406484:	4599      	cmp	r9, r3
  406486:	f040 8086 	bne.w	406596 <_malloc_r+0x54e>
  40648a:	f010 0f03 	tst.w	r0, #3
  40648e:	f100 30ff 	add.w	r0, r0, #4294967295
  406492:	d1f5      	bne.n	406480 <_malloc_r+0x438>
  406494:	687b      	ldr	r3, [r7, #4]
  406496:	ea23 0304 	bic.w	r3, r3, r4
  40649a:	607b      	str	r3, [r7, #4]
  40649c:	0064      	lsls	r4, r4, #1
  40649e:	429c      	cmp	r4, r3
  4064a0:	f63f aec7 	bhi.w	406232 <_malloc_r+0x1ea>
  4064a4:	2c00      	cmp	r4, #0
  4064a6:	f43f aec4 	beq.w	406232 <_malloc_r+0x1ea>
  4064aa:	421c      	tst	r4, r3
  4064ac:	4640      	mov	r0, r8
  4064ae:	f47f ae3e 	bne.w	40612e <_malloc_r+0xe6>
  4064b2:	0064      	lsls	r4, r4, #1
  4064b4:	421c      	tst	r4, r3
  4064b6:	f100 0004 	add.w	r0, r0, #4
  4064ba:	d0fa      	beq.n	4064b2 <_malloc_r+0x46a>
  4064bc:	e637      	b.n	40612e <_malloc_r+0xe6>
  4064be:	468c      	mov	ip, r1
  4064c0:	e78c      	b.n	4063dc <_malloc_r+0x394>
  4064c2:	f5b3 7faa 	cmp.w	r3, #340	; 0x154
  4064c6:	d815      	bhi.n	4064f4 <_malloc_r+0x4ac>
  4064c8:	0bf3      	lsrs	r3, r6, #15
  4064ca:	f103 0078 	add.w	r0, r3, #120	; 0x78
  4064ce:	f103 0e77 	add.w	lr, r3, #119	; 0x77
  4064d2:	00c3      	lsls	r3, r0, #3
  4064d4:	e5da      	b.n	40608c <_malloc_r+0x44>
  4064d6:	f44f 5180 	mov.w	r1, #4096	; 0x1000
  4064da:	e6ed      	b.n	4062b8 <_malloc_r+0x270>
  4064dc:	687b      	ldr	r3, [r7, #4]
  4064de:	1092      	asrs	r2, r2, #2
  4064e0:	2101      	movs	r1, #1
  4064e2:	fa01 f202 	lsl.w	r2, r1, r2
  4064e6:	4313      	orrs	r3, r2
  4064e8:	607b      	str	r3, [r7, #4]
  4064ea:	4662      	mov	r2, ip
  4064ec:	e779      	b.n	4063e2 <_malloc_r+0x39a>
  4064ee:	2301      	movs	r3, #1
  4064f0:	6053      	str	r3, [r2, #4]
  4064f2:	e729      	b.n	406348 <_malloc_r+0x300>
  4064f4:	f240 5254 	movw	r2, #1364	; 0x554
  4064f8:	4293      	cmp	r3, r2
  4064fa:	d822      	bhi.n	406542 <_malloc_r+0x4fa>
  4064fc:	0cb3      	lsrs	r3, r6, #18
  4064fe:	f103 007d 	add.w	r0, r3, #125	; 0x7d
  406502:	f103 0e7c 	add.w	lr, r3, #124	; 0x7c
  406506:	00c3      	lsls	r3, r0, #3
  406508:	e5c0      	b.n	40608c <_malloc_r+0x44>
  40650a:	f103 0b10 	add.w	fp, r3, #16
  40650e:	e6ae      	b.n	40626e <_malloc_r+0x226>
  406510:	2a54      	cmp	r2, #84	; 0x54
  406512:	d829      	bhi.n	406568 <_malloc_r+0x520>
  406514:	0b1a      	lsrs	r2, r3, #12
  406516:	f102 016f 	add.w	r1, r2, #111	; 0x6f
  40651a:	00c9      	lsls	r1, r1, #3
  40651c:	326e      	adds	r2, #110	; 0x6e
  40651e:	e74d      	b.n	4063bc <_malloc_r+0x374>
  406520:	4b20      	ldr	r3, [pc, #128]	; (4065a4 <_malloc_r+0x55c>)
  406522:	6819      	ldr	r1, [r3, #0]
  406524:	4459      	add	r1, fp
  406526:	6019      	str	r1, [r3, #0]
  406528:	e6b2      	b.n	406290 <_malloc_r+0x248>
  40652a:	f3ca 000b 	ubfx	r0, sl, #0, #12
  40652e:	2800      	cmp	r0, #0
  406530:	f47f aeae 	bne.w	406290 <_malloc_r+0x248>
  406534:	eb08 030b 	add.w	r3, r8, fp
  406538:	68ba      	ldr	r2, [r7, #8]
  40653a:	f043 0301 	orr.w	r3, r3, #1
  40653e:	6053      	str	r3, [r2, #4]
  406540:	e6ee      	b.n	406320 <_malloc_r+0x2d8>
  406542:	207f      	movs	r0, #127	; 0x7f
  406544:	f44f 737e 	mov.w	r3, #1016	; 0x3f8
  406548:	f04f 0e7e 	mov.w	lr, #126	; 0x7e
  40654c:	e59e      	b.n	40608c <_malloc_r+0x44>
  40654e:	f104 0108 	add.w	r1, r4, #8
  406552:	4628      	mov	r0, r5
  406554:	9300      	str	r3, [sp, #0]
  406556:	f7ff fa4b 	bl	4059f0 <_free_r>
  40655a:	9b00      	ldr	r3, [sp, #0]
  40655c:	6819      	ldr	r1, [r3, #0]
  40655e:	e6df      	b.n	406320 <_malloc_r+0x2d8>
  406560:	2001      	movs	r0, #1
  406562:	f04f 0900 	mov.w	r9, #0
  406566:	e6bc      	b.n	4062e2 <_malloc_r+0x29a>
  406568:	f5b2 7faa 	cmp.w	r2, #340	; 0x154
  40656c:	d805      	bhi.n	40657a <_malloc_r+0x532>
  40656e:	0bda      	lsrs	r2, r3, #15
  406570:	f102 0178 	add.w	r1, r2, #120	; 0x78
  406574:	00c9      	lsls	r1, r1, #3
  406576:	3277      	adds	r2, #119	; 0x77
  406578:	e720      	b.n	4063bc <_malloc_r+0x374>
  40657a:	f240 5154 	movw	r1, #1364	; 0x554
  40657e:	428a      	cmp	r2, r1
  406580:	d805      	bhi.n	40658e <_malloc_r+0x546>
  406582:	0c9a      	lsrs	r2, r3, #18
  406584:	f102 017d 	add.w	r1, r2, #125	; 0x7d
  406588:	00c9      	lsls	r1, r1, #3
  40658a:	327c      	adds	r2, #124	; 0x7c
  40658c:	e716      	b.n	4063bc <_malloc_r+0x374>
  40658e:	f44f 717e 	mov.w	r1, #1016	; 0x3f8
  406592:	227e      	movs	r2, #126	; 0x7e
  406594:	e712      	b.n	4063bc <_malloc_r+0x374>
  406596:	687b      	ldr	r3, [r7, #4]
  406598:	e780      	b.n	40649c <_malloc_r+0x454>
  40659a:	08f0      	lsrs	r0, r6, #3
  40659c:	f106 0308 	add.w	r3, r6, #8
  4065a0:	e600      	b.n	4061a4 <_malloc_r+0x15c>
  4065a2:	bf00      	nop
  4065a4:	20000e24 	.word	0x20000e24

004065a8 <__ascii_mbtowc>:
  4065a8:	b082      	sub	sp, #8
  4065aa:	b149      	cbz	r1, 4065c0 <__ascii_mbtowc+0x18>
  4065ac:	b15a      	cbz	r2, 4065c6 <__ascii_mbtowc+0x1e>
  4065ae:	b16b      	cbz	r3, 4065cc <__ascii_mbtowc+0x24>
  4065b0:	7813      	ldrb	r3, [r2, #0]
  4065b2:	600b      	str	r3, [r1, #0]
  4065b4:	7812      	ldrb	r2, [r2, #0]
  4065b6:	1c10      	adds	r0, r2, #0
  4065b8:	bf18      	it	ne
  4065ba:	2001      	movne	r0, #1
  4065bc:	b002      	add	sp, #8
  4065be:	4770      	bx	lr
  4065c0:	a901      	add	r1, sp, #4
  4065c2:	2a00      	cmp	r2, #0
  4065c4:	d1f3      	bne.n	4065ae <__ascii_mbtowc+0x6>
  4065c6:	4610      	mov	r0, r2
  4065c8:	b002      	add	sp, #8
  4065ca:	4770      	bx	lr
  4065cc:	f06f 0001 	mvn.w	r0, #1
  4065d0:	e7f4      	b.n	4065bc <__ascii_mbtowc+0x14>
  4065d2:	bf00      	nop
	...

004065e0 <memchr>:
  4065e0:	f001 01ff 	and.w	r1, r1, #255	; 0xff
  4065e4:	2a10      	cmp	r2, #16
  4065e6:	db2b      	blt.n	406640 <memchr+0x60>
  4065e8:	f010 0f07 	tst.w	r0, #7
  4065ec:	d008      	beq.n	406600 <memchr+0x20>
  4065ee:	f810 3b01 	ldrb.w	r3, [r0], #1
  4065f2:	3a01      	subs	r2, #1
  4065f4:	428b      	cmp	r3, r1
  4065f6:	d02d      	beq.n	406654 <memchr+0x74>
  4065f8:	f010 0f07 	tst.w	r0, #7
  4065fc:	b342      	cbz	r2, 406650 <memchr+0x70>
  4065fe:	d1f6      	bne.n	4065ee <memchr+0xe>
  406600:	b4f0      	push	{r4, r5, r6, r7}
  406602:	ea41 2101 	orr.w	r1, r1, r1, lsl #8
  406606:	ea41 4101 	orr.w	r1, r1, r1, lsl #16
  40660a:	f022 0407 	bic.w	r4, r2, #7
  40660e:	f07f 0700 	mvns.w	r7, #0
  406612:	2300      	movs	r3, #0
  406614:	e8f0 5602 	ldrd	r5, r6, [r0], #8
  406618:	3c08      	subs	r4, #8
  40661a:	ea85 0501 	eor.w	r5, r5, r1
  40661e:	ea86 0601 	eor.w	r6, r6, r1
  406622:	fa85 f547 	uadd8	r5, r5, r7
  406626:	faa3 f587 	sel	r5, r3, r7
  40662a:	fa86 f647 	uadd8	r6, r6, r7
  40662e:	faa5 f687 	sel	r6, r5, r7
  406632:	b98e      	cbnz	r6, 406658 <memchr+0x78>
  406634:	d1ee      	bne.n	406614 <memchr+0x34>
  406636:	bcf0      	pop	{r4, r5, r6, r7}
  406638:	f001 01ff 	and.w	r1, r1, #255	; 0xff
  40663c:	f002 0207 	and.w	r2, r2, #7
  406640:	b132      	cbz	r2, 406650 <memchr+0x70>
  406642:	f810 3b01 	ldrb.w	r3, [r0], #1
  406646:	3a01      	subs	r2, #1
  406648:	ea83 0301 	eor.w	r3, r3, r1
  40664c:	b113      	cbz	r3, 406654 <memchr+0x74>
  40664e:	d1f8      	bne.n	406642 <memchr+0x62>
  406650:	2000      	movs	r0, #0
  406652:	4770      	bx	lr
  406654:	3801      	subs	r0, #1
  406656:	4770      	bx	lr
  406658:	2d00      	cmp	r5, #0
  40665a:	bf06      	itte	eq
  40665c:	4635      	moveq	r5, r6
  40665e:	3803      	subeq	r0, #3
  406660:	3807      	subne	r0, #7
  406662:	f015 0f01 	tst.w	r5, #1
  406666:	d107      	bne.n	406678 <memchr+0x98>
  406668:	3001      	adds	r0, #1
  40666a:	f415 7f80 	tst.w	r5, #256	; 0x100
  40666e:	bf02      	ittt	eq
  406670:	3001      	addeq	r0, #1
  406672:	f415 3fc0 	tsteq.w	r5, #98304	; 0x18000
  406676:	3001      	addeq	r0, #1
  406678:	bcf0      	pop	{r4, r5, r6, r7}
  40667a:	3801      	subs	r0, #1
  40667c:	4770      	bx	lr
  40667e:	bf00      	nop

00406680 <memcpy>:
  406680:	4684      	mov	ip, r0
  406682:	ea41 0300 	orr.w	r3, r1, r0
  406686:	f013 0303 	ands.w	r3, r3, #3
  40668a:	d16d      	bne.n	406768 <memcpy+0xe8>
  40668c:	3a40      	subs	r2, #64	; 0x40
  40668e:	d341      	bcc.n	406714 <memcpy+0x94>
  406690:	f851 3b04 	ldr.w	r3, [r1], #4
  406694:	f840 3b04 	str.w	r3, [r0], #4
  406698:	f851 3b04 	ldr.w	r3, [r1], #4
  40669c:	f840 3b04 	str.w	r3, [r0], #4
  4066a0:	f851 3b04 	ldr.w	r3, [r1], #4
  4066a4:	f840 3b04 	str.w	r3, [r0], #4
  4066a8:	f851 3b04 	ldr.w	r3, [r1], #4
  4066ac:	f840 3b04 	str.w	r3, [r0], #4
  4066b0:	f851 3b04 	ldr.w	r3, [r1], #4
  4066b4:	f840 3b04 	str.w	r3, [r0], #4
  4066b8:	f851 3b04 	ldr.w	r3, [r1], #4
  4066bc:	f840 3b04 	str.w	r3, [r0], #4
  4066c0:	f851 3b04 	ldr.w	r3, [r1], #4
  4066c4:	f840 3b04 	str.w	r3, [r0], #4
  4066c8:	f851 3b04 	ldr.w	r3, [r1], #4
  4066cc:	f840 3b04 	str.w	r3, [r0], #4
  4066d0:	f851 3b04 	ldr.w	r3, [r1], #4
  4066d4:	f840 3b04 	str.w	r3, [r0], #4
  4066d8:	f851 3b04 	ldr.w	r3, [r1], #4
  4066dc:	f840 3b04 	str.w	r3, [r0], #4
  4066e0:	f851 3b04 	ldr.w	r3, [r1], #4
  4066e4:	f840 3b04 	str.w	r3, [r0], #4
  4066e8:	f851 3b04 	ldr.w	r3, [r1], #4
  4066ec:	f840 3b04 	str.w	r3, [r0], #4
  4066f0:	f851 3b04 	ldr.w	r3, [r1], #4
  4066f4:	f840 3b04 	str.w	r3, [r0], #4
  4066f8:	f851 3b04 	ldr.w	r3, [r1], #4
  4066fc:	f840 3b04 	str.w	r3, [r0], #4
  406700:	f851 3b04 	ldr.w	r3, [r1], #4
  406704:	f840 3b04 	str.w	r3, [r0], #4
  406708:	f851 3b04 	ldr.w	r3, [r1], #4
  40670c:	f840 3b04 	str.w	r3, [r0], #4
  406710:	3a40      	subs	r2, #64	; 0x40
  406712:	d2bd      	bcs.n	406690 <memcpy+0x10>
  406714:	3230      	adds	r2, #48	; 0x30
  406716:	d311      	bcc.n	40673c <memcpy+0xbc>
  406718:	f851 3b04 	ldr.w	r3, [r1], #4
  40671c:	f840 3b04 	str.w	r3, [r0], #4
  406720:	f851 3b04 	ldr.w	r3, [r1], #4
  406724:	f840 3b04 	str.w	r3, [r0], #4
  406728:	f851 3b04 	ldr.w	r3, [r1], #4
  40672c:	f840 3b04 	str.w	r3, [r0], #4
  406730:	f851 3b04 	ldr.w	r3, [r1], #4
  406734:	f840 3b04 	str.w	r3, [r0], #4
  406738:	3a10      	subs	r2, #16
  40673a:	d2ed      	bcs.n	406718 <memcpy+0x98>
  40673c:	320c      	adds	r2, #12
  40673e:	d305      	bcc.n	40674c <memcpy+0xcc>
  406740:	f851 3b04 	ldr.w	r3, [r1], #4
  406744:	f840 3b04 	str.w	r3, [r0], #4
  406748:	3a04      	subs	r2, #4
  40674a:	d2f9      	bcs.n	406740 <memcpy+0xc0>
  40674c:	3204      	adds	r2, #4
  40674e:	d008      	beq.n	406762 <memcpy+0xe2>
  406750:	07d2      	lsls	r2, r2, #31
  406752:	bf1c      	itt	ne
  406754:	f811 3b01 	ldrbne.w	r3, [r1], #1
  406758:	f800 3b01 	strbne.w	r3, [r0], #1
  40675c:	d301      	bcc.n	406762 <memcpy+0xe2>
  40675e:	880b      	ldrh	r3, [r1, #0]
  406760:	8003      	strh	r3, [r0, #0]
  406762:	4660      	mov	r0, ip
  406764:	4770      	bx	lr
  406766:	bf00      	nop
  406768:	2a08      	cmp	r2, #8
  40676a:	d313      	bcc.n	406794 <memcpy+0x114>
  40676c:	078b      	lsls	r3, r1, #30
  40676e:	d08d      	beq.n	40668c <memcpy+0xc>
  406770:	f010 0303 	ands.w	r3, r0, #3
  406774:	d08a      	beq.n	40668c <memcpy+0xc>
  406776:	f1c3 0304 	rsb	r3, r3, #4
  40677a:	1ad2      	subs	r2, r2, r3
  40677c:	07db      	lsls	r3, r3, #31
  40677e:	bf1c      	itt	ne
  406780:	f811 3b01 	ldrbne.w	r3, [r1], #1
  406784:	f800 3b01 	strbne.w	r3, [r0], #1
  406788:	d380      	bcc.n	40668c <memcpy+0xc>
  40678a:	f831 3b02 	ldrh.w	r3, [r1], #2
  40678e:	f820 3b02 	strh.w	r3, [r0], #2
  406792:	e77b      	b.n	40668c <memcpy+0xc>
  406794:	3a04      	subs	r2, #4
  406796:	d3d9      	bcc.n	40674c <memcpy+0xcc>
  406798:	3a01      	subs	r2, #1
  40679a:	f811 3b01 	ldrb.w	r3, [r1], #1
  40679e:	f800 3b01 	strb.w	r3, [r0], #1
  4067a2:	d2f9      	bcs.n	406798 <memcpy+0x118>
  4067a4:	780b      	ldrb	r3, [r1, #0]
  4067a6:	7003      	strb	r3, [r0, #0]
  4067a8:	784b      	ldrb	r3, [r1, #1]
  4067aa:	7043      	strb	r3, [r0, #1]
  4067ac:	788b      	ldrb	r3, [r1, #2]
  4067ae:	7083      	strb	r3, [r0, #2]
  4067b0:	4660      	mov	r0, ip
  4067b2:	4770      	bx	lr

004067b4 <memmove>:
  4067b4:	4288      	cmp	r0, r1
  4067b6:	b5f0      	push	{r4, r5, r6, r7, lr}
  4067b8:	d90d      	bls.n	4067d6 <memmove+0x22>
  4067ba:	188b      	adds	r3, r1, r2
  4067bc:	4298      	cmp	r0, r3
  4067be:	d20a      	bcs.n	4067d6 <memmove+0x22>
  4067c0:	1884      	adds	r4, r0, r2
  4067c2:	2a00      	cmp	r2, #0
  4067c4:	d051      	beq.n	40686a <memmove+0xb6>
  4067c6:	4622      	mov	r2, r4
  4067c8:	f813 4d01 	ldrb.w	r4, [r3, #-1]!
  4067cc:	f802 4d01 	strb.w	r4, [r2, #-1]!
  4067d0:	4299      	cmp	r1, r3
  4067d2:	d1f9      	bne.n	4067c8 <memmove+0x14>
  4067d4:	bdf0      	pop	{r4, r5, r6, r7, pc}
  4067d6:	2a0f      	cmp	r2, #15
  4067d8:	d948      	bls.n	40686c <memmove+0xb8>
  4067da:	ea41 0300 	orr.w	r3, r1, r0
  4067de:	079b      	lsls	r3, r3, #30
  4067e0:	d146      	bne.n	406870 <memmove+0xbc>
  4067e2:	f100 0410 	add.w	r4, r0, #16
  4067e6:	f101 0310 	add.w	r3, r1, #16
  4067ea:	4615      	mov	r5, r2
  4067ec:	f853 6c10 	ldr.w	r6, [r3, #-16]
  4067f0:	f844 6c10 	str.w	r6, [r4, #-16]
  4067f4:	f853 6c0c 	ldr.w	r6, [r3, #-12]
  4067f8:	f844 6c0c 	str.w	r6, [r4, #-12]
  4067fc:	f853 6c08 	ldr.w	r6, [r3, #-8]
  406800:	f844 6c08 	str.w	r6, [r4, #-8]
  406804:	3d10      	subs	r5, #16
  406806:	f853 6c04 	ldr.w	r6, [r3, #-4]
  40680a:	f844 6c04 	str.w	r6, [r4, #-4]
  40680e:	2d0f      	cmp	r5, #15
  406810:	f103 0310 	add.w	r3, r3, #16
  406814:	f104 0410 	add.w	r4, r4, #16
  406818:	d8e8      	bhi.n	4067ec <memmove+0x38>
  40681a:	f1a2 0310 	sub.w	r3, r2, #16
  40681e:	f023 030f 	bic.w	r3, r3, #15
  406822:	f002 0e0f 	and.w	lr, r2, #15
  406826:	3310      	adds	r3, #16
  406828:	f1be 0f03 	cmp.w	lr, #3
  40682c:	4419      	add	r1, r3
  40682e:	4403      	add	r3, r0
  406830:	d921      	bls.n	406876 <memmove+0xc2>
  406832:	1f1e      	subs	r6, r3, #4
  406834:	460d      	mov	r5, r1
  406836:	4674      	mov	r4, lr
  406838:	3c04      	subs	r4, #4
  40683a:	f855 7b04 	ldr.w	r7, [r5], #4
  40683e:	f846 7f04 	str.w	r7, [r6, #4]!
  406842:	2c03      	cmp	r4, #3
  406844:	d8f8      	bhi.n	406838 <memmove+0x84>
  406846:	f1ae 0404 	sub.w	r4, lr, #4
  40684a:	f024 0403 	bic.w	r4, r4, #3
  40684e:	3404      	adds	r4, #4
  406850:	4421      	add	r1, r4
  406852:	4423      	add	r3, r4
  406854:	f002 0203 	and.w	r2, r2, #3
  406858:	b162      	cbz	r2, 406874 <memmove+0xc0>
  40685a:	3b01      	subs	r3, #1
  40685c:	440a      	add	r2, r1
  40685e:	f811 4b01 	ldrb.w	r4, [r1], #1
  406862:	f803 4f01 	strb.w	r4, [r3, #1]!
  406866:	428a      	cmp	r2, r1
  406868:	d1f9      	bne.n	40685e <memmove+0xaa>
  40686a:	bdf0      	pop	{r4, r5, r6, r7, pc}
  40686c:	4603      	mov	r3, r0
  40686e:	e7f3      	b.n	406858 <memmove+0xa4>
  406870:	4603      	mov	r3, r0
  406872:	e7f2      	b.n	40685a <memmove+0xa6>
  406874:	bdf0      	pop	{r4, r5, r6, r7, pc}
  406876:	4672      	mov	r2, lr
  406878:	e7ee      	b.n	406858 <memmove+0xa4>
  40687a:	bf00      	nop

0040687c <__malloc_lock>:
  40687c:	4801      	ldr	r0, [pc, #4]	; (406884 <__malloc_lock+0x8>)
  40687e:	f7ff bb5f 	b.w	405f40 <__retarget_lock_acquire_recursive>
  406882:	bf00      	nop
  406884:	20000ebc 	.word	0x20000ebc

00406888 <__malloc_unlock>:
  406888:	4801      	ldr	r0, [pc, #4]	; (406890 <__malloc_unlock+0x8>)
  40688a:	f7ff bb5b 	b.w	405f44 <__retarget_lock_release_recursive>
  40688e:	bf00      	nop
  406890:	20000ebc 	.word	0x20000ebc

00406894 <_Balloc>:
  406894:	6cc3      	ldr	r3, [r0, #76]	; 0x4c
  406896:	b570      	push	{r4, r5, r6, lr}
  406898:	4605      	mov	r5, r0
  40689a:	460c      	mov	r4, r1
  40689c:	b14b      	cbz	r3, 4068b2 <_Balloc+0x1e>
  40689e:	f853 0024 	ldr.w	r0, [r3, r4, lsl #2]
  4068a2:	b180      	cbz	r0, 4068c6 <_Balloc+0x32>
  4068a4:	6802      	ldr	r2, [r0, #0]
  4068a6:	f843 2024 	str.w	r2, [r3, r4, lsl #2]
  4068aa:	2300      	movs	r3, #0
  4068ac:	6103      	str	r3, [r0, #16]
  4068ae:	60c3      	str	r3, [r0, #12]
  4068b0:	bd70      	pop	{r4, r5, r6, pc}
  4068b2:	2221      	movs	r2, #33	; 0x21
  4068b4:	2104      	movs	r1, #4
  4068b6:	f000 fe69 	bl	40758c <_calloc_r>
  4068ba:	64e8      	str	r0, [r5, #76]	; 0x4c
  4068bc:	4603      	mov	r3, r0
  4068be:	2800      	cmp	r0, #0
  4068c0:	d1ed      	bne.n	40689e <_Balloc+0xa>
  4068c2:	2000      	movs	r0, #0
  4068c4:	bd70      	pop	{r4, r5, r6, pc}
  4068c6:	2101      	movs	r1, #1
  4068c8:	fa01 f604 	lsl.w	r6, r1, r4
  4068cc:	1d72      	adds	r2, r6, #5
  4068ce:	4628      	mov	r0, r5
  4068d0:	0092      	lsls	r2, r2, #2
  4068d2:	f000 fe5b 	bl	40758c <_calloc_r>
  4068d6:	2800      	cmp	r0, #0
  4068d8:	d0f3      	beq.n	4068c2 <_Balloc+0x2e>
  4068da:	6044      	str	r4, [r0, #4]
  4068dc:	6086      	str	r6, [r0, #8]
  4068de:	e7e4      	b.n	4068aa <_Balloc+0x16>

004068e0 <_Bfree>:
  4068e0:	b131      	cbz	r1, 4068f0 <_Bfree+0x10>
  4068e2:	6cc3      	ldr	r3, [r0, #76]	; 0x4c
  4068e4:	684a      	ldr	r2, [r1, #4]
  4068e6:	f853 0022 	ldr.w	r0, [r3, r2, lsl #2]
  4068ea:	6008      	str	r0, [r1, #0]
  4068ec:	f843 1022 	str.w	r1, [r3, r2, lsl #2]
  4068f0:	4770      	bx	lr
  4068f2:	bf00      	nop

004068f4 <__multadd>:
  4068f4:	b5f0      	push	{r4, r5, r6, r7, lr}
  4068f6:	690c      	ldr	r4, [r1, #16]
  4068f8:	b083      	sub	sp, #12
  4068fa:	460d      	mov	r5, r1
  4068fc:	4606      	mov	r6, r0
  4068fe:	f101 0e14 	add.w	lr, r1, #20
  406902:	2700      	movs	r7, #0
  406904:	f8de 0000 	ldr.w	r0, [lr]
  406908:	b281      	uxth	r1, r0
  40690a:	fb02 3301 	mla	r3, r2, r1, r3
  40690e:	0c01      	lsrs	r1, r0, #16
  406910:	0c18      	lsrs	r0, r3, #16
  406912:	fb02 0101 	mla	r1, r2, r1, r0
  406916:	b29b      	uxth	r3, r3
  406918:	3701      	adds	r7, #1
  40691a:	eb03 4301 	add.w	r3, r3, r1, lsl #16
  40691e:	42bc      	cmp	r4, r7
  406920:	f84e 3b04 	str.w	r3, [lr], #4
  406924:	ea4f 4311 	mov.w	r3, r1, lsr #16
  406928:	dcec      	bgt.n	406904 <__multadd+0x10>
  40692a:	b13b      	cbz	r3, 40693c <__multadd+0x48>
  40692c:	68aa      	ldr	r2, [r5, #8]
  40692e:	4294      	cmp	r4, r2
  406930:	da07      	bge.n	406942 <__multadd+0x4e>
  406932:	eb05 0284 	add.w	r2, r5, r4, lsl #2
  406936:	3401      	adds	r4, #1
  406938:	6153      	str	r3, [r2, #20]
  40693a:	612c      	str	r4, [r5, #16]
  40693c:	4628      	mov	r0, r5
  40693e:	b003      	add	sp, #12
  406940:	bdf0      	pop	{r4, r5, r6, r7, pc}
  406942:	6869      	ldr	r1, [r5, #4]
  406944:	9301      	str	r3, [sp, #4]
  406946:	3101      	adds	r1, #1
  406948:	4630      	mov	r0, r6
  40694a:	f7ff ffa3 	bl	406894 <_Balloc>
  40694e:	692a      	ldr	r2, [r5, #16]
  406950:	3202      	adds	r2, #2
  406952:	f105 010c 	add.w	r1, r5, #12
  406956:	4607      	mov	r7, r0
  406958:	0092      	lsls	r2, r2, #2
  40695a:	300c      	adds	r0, #12
  40695c:	f7ff fe90 	bl	406680 <memcpy>
  406960:	6cf2      	ldr	r2, [r6, #76]	; 0x4c
  406962:	6869      	ldr	r1, [r5, #4]
  406964:	9b01      	ldr	r3, [sp, #4]
  406966:	f852 0021 	ldr.w	r0, [r2, r1, lsl #2]
  40696a:	6028      	str	r0, [r5, #0]
  40696c:	f842 5021 	str.w	r5, [r2, r1, lsl #2]
  406970:	463d      	mov	r5, r7
  406972:	e7de      	b.n	406932 <__multadd+0x3e>

00406974 <__hi0bits>:
  406974:	0c02      	lsrs	r2, r0, #16
  406976:	0412      	lsls	r2, r2, #16
  406978:	4603      	mov	r3, r0
  40697a:	b9b2      	cbnz	r2, 4069aa <__hi0bits+0x36>
  40697c:	0403      	lsls	r3, r0, #16
  40697e:	2010      	movs	r0, #16
  406980:	f013 4f7f 	tst.w	r3, #4278190080	; 0xff000000
  406984:	bf04      	itt	eq
  406986:	021b      	lsleq	r3, r3, #8
  406988:	3008      	addeq	r0, #8
  40698a:	f013 4f70 	tst.w	r3, #4026531840	; 0xf0000000
  40698e:	bf04      	itt	eq
  406990:	011b      	lsleq	r3, r3, #4
  406992:	3004      	addeq	r0, #4
  406994:	f013 4f40 	tst.w	r3, #3221225472	; 0xc0000000
  406998:	bf04      	itt	eq
  40699a:	009b      	lsleq	r3, r3, #2
  40699c:	3002      	addeq	r0, #2
  40699e:	2b00      	cmp	r3, #0
  4069a0:	db02      	blt.n	4069a8 <__hi0bits+0x34>
  4069a2:	005b      	lsls	r3, r3, #1
  4069a4:	d403      	bmi.n	4069ae <__hi0bits+0x3a>
  4069a6:	2020      	movs	r0, #32
  4069a8:	4770      	bx	lr
  4069aa:	2000      	movs	r0, #0
  4069ac:	e7e8      	b.n	406980 <__hi0bits+0xc>
  4069ae:	3001      	adds	r0, #1
  4069b0:	4770      	bx	lr
  4069b2:	bf00      	nop

004069b4 <__lo0bits>:
  4069b4:	6803      	ldr	r3, [r0, #0]
  4069b6:	f013 0207 	ands.w	r2, r3, #7
  4069ba:	4601      	mov	r1, r0
  4069bc:	d007      	beq.n	4069ce <__lo0bits+0x1a>
  4069be:	07da      	lsls	r2, r3, #31
  4069c0:	d421      	bmi.n	406a06 <__lo0bits+0x52>
  4069c2:	0798      	lsls	r0, r3, #30
  4069c4:	d421      	bmi.n	406a0a <__lo0bits+0x56>
  4069c6:	089b      	lsrs	r3, r3, #2
  4069c8:	600b      	str	r3, [r1, #0]
  4069ca:	2002      	movs	r0, #2
  4069cc:	4770      	bx	lr
  4069ce:	b298      	uxth	r0, r3
  4069d0:	b198      	cbz	r0, 4069fa <__lo0bits+0x46>
  4069d2:	4610      	mov	r0, r2
  4069d4:	f013 0fff 	tst.w	r3, #255	; 0xff
  4069d8:	bf04      	itt	eq
  4069da:	0a1b      	lsreq	r3, r3, #8
  4069dc:	3008      	addeq	r0, #8
  4069de:	071a      	lsls	r2, r3, #28
  4069e0:	bf04      	itt	eq
  4069e2:	091b      	lsreq	r3, r3, #4
  4069e4:	3004      	addeq	r0, #4
  4069e6:	079a      	lsls	r2, r3, #30
  4069e8:	bf04      	itt	eq
  4069ea:	089b      	lsreq	r3, r3, #2
  4069ec:	3002      	addeq	r0, #2
  4069ee:	07da      	lsls	r2, r3, #31
  4069f0:	d407      	bmi.n	406a02 <__lo0bits+0x4e>
  4069f2:	085b      	lsrs	r3, r3, #1
  4069f4:	d104      	bne.n	406a00 <__lo0bits+0x4c>
  4069f6:	2020      	movs	r0, #32
  4069f8:	4770      	bx	lr
  4069fa:	0c1b      	lsrs	r3, r3, #16
  4069fc:	2010      	movs	r0, #16
  4069fe:	e7e9      	b.n	4069d4 <__lo0bits+0x20>
  406a00:	3001      	adds	r0, #1
  406a02:	600b      	str	r3, [r1, #0]
  406a04:	4770      	bx	lr
  406a06:	2000      	movs	r0, #0
  406a08:	4770      	bx	lr
  406a0a:	085b      	lsrs	r3, r3, #1
  406a0c:	600b      	str	r3, [r1, #0]
  406a0e:	2001      	movs	r0, #1
  406a10:	4770      	bx	lr
  406a12:	bf00      	nop

00406a14 <__i2b>:
  406a14:	b510      	push	{r4, lr}
  406a16:	460c      	mov	r4, r1
  406a18:	2101      	movs	r1, #1
  406a1a:	f7ff ff3b 	bl	406894 <_Balloc>
  406a1e:	2201      	movs	r2, #1
  406a20:	6144      	str	r4, [r0, #20]
  406a22:	6102      	str	r2, [r0, #16]
  406a24:	bd10      	pop	{r4, pc}
  406a26:	bf00      	nop

00406a28 <__multiply>:
  406a28:	e92d 4ff0 	stmdb	sp!, {r4, r5, r6, r7, r8, r9, sl, fp, lr}
  406a2c:	690c      	ldr	r4, [r1, #16]
  406a2e:	6915      	ldr	r5, [r2, #16]
  406a30:	42ac      	cmp	r4, r5
  406a32:	b083      	sub	sp, #12
  406a34:	468b      	mov	fp, r1
  406a36:	4616      	mov	r6, r2
  406a38:	da04      	bge.n	406a44 <__multiply+0x1c>
  406a3a:	4622      	mov	r2, r4
  406a3c:	46b3      	mov	fp, r6
  406a3e:	462c      	mov	r4, r5
  406a40:	460e      	mov	r6, r1
  406a42:	4615      	mov	r5, r2
  406a44:	f8db 3008 	ldr.w	r3, [fp, #8]
  406a48:	f8db 1004 	ldr.w	r1, [fp, #4]
  406a4c:	eb04 0805 	add.w	r8, r4, r5
  406a50:	4598      	cmp	r8, r3
  406a52:	bfc8      	it	gt
  406a54:	3101      	addgt	r1, #1
  406a56:	f7ff ff1d 	bl	406894 <_Balloc>
  406a5a:	f100 0914 	add.w	r9, r0, #20
  406a5e:	eb09 0a88 	add.w	sl, r9, r8, lsl #2
  406a62:	45d1      	cmp	r9, sl
  406a64:	9000      	str	r0, [sp, #0]
  406a66:	d205      	bcs.n	406a74 <__multiply+0x4c>
  406a68:	464b      	mov	r3, r9
  406a6a:	2100      	movs	r1, #0
  406a6c:	f843 1b04 	str.w	r1, [r3], #4
  406a70:	459a      	cmp	sl, r3
  406a72:	d8fb      	bhi.n	406a6c <__multiply+0x44>
  406a74:	f106 0c14 	add.w	ip, r6, #20
  406a78:	eb0c 0385 	add.w	r3, ip, r5, lsl #2
  406a7c:	f10b 0b14 	add.w	fp, fp, #20
  406a80:	459c      	cmp	ip, r3
  406a82:	eb0b 0e84 	add.w	lr, fp, r4, lsl #2
  406a86:	d24c      	bcs.n	406b22 <__multiply+0xfa>
  406a88:	f8cd a004 	str.w	sl, [sp, #4]
  406a8c:	469a      	mov	sl, r3
  406a8e:	f8dc 5000 	ldr.w	r5, [ip]
  406a92:	b2af      	uxth	r7, r5
  406a94:	b1ef      	cbz	r7, 406ad2 <__multiply+0xaa>
  406a96:	2100      	movs	r1, #0
  406a98:	464d      	mov	r5, r9
  406a9a:	465e      	mov	r6, fp
  406a9c:	460c      	mov	r4, r1
  406a9e:	f856 2b04 	ldr.w	r2, [r6], #4
  406aa2:	6828      	ldr	r0, [r5, #0]
  406aa4:	b293      	uxth	r3, r2
  406aa6:	b281      	uxth	r1, r0
  406aa8:	fb07 1303 	mla	r3, r7, r3, r1
  406aac:	0c12      	lsrs	r2, r2, #16
  406aae:	0c01      	lsrs	r1, r0, #16
  406ab0:	4423      	add	r3, r4
  406ab2:	fb07 1102 	mla	r1, r7, r2, r1
  406ab6:	eb01 4113 	add.w	r1, r1, r3, lsr #16
  406aba:	b29b      	uxth	r3, r3
  406abc:	ea43 4301 	orr.w	r3, r3, r1, lsl #16
  406ac0:	45b6      	cmp	lr, r6
  406ac2:	f845 3b04 	str.w	r3, [r5], #4
  406ac6:	ea4f 4411 	mov.w	r4, r1, lsr #16
  406aca:	d8e8      	bhi.n	406a9e <__multiply+0x76>
  406acc:	602c      	str	r4, [r5, #0]
  406ace:	f8dc 5000 	ldr.w	r5, [ip]
  406ad2:	0c2d      	lsrs	r5, r5, #16
  406ad4:	d01d      	beq.n	406b12 <__multiply+0xea>
  406ad6:	f8d9 3000 	ldr.w	r3, [r9]
  406ada:	4648      	mov	r0, r9
  406adc:	461c      	mov	r4, r3
  406ade:	4659      	mov	r1, fp
  406ae0:	2200      	movs	r2, #0
  406ae2:	880e      	ldrh	r6, [r1, #0]
  406ae4:	0c24      	lsrs	r4, r4, #16
  406ae6:	fb05 4406 	mla	r4, r5, r6, r4
  406aea:	4422      	add	r2, r4
  406aec:	b29b      	uxth	r3, r3
  406aee:	ea43 4302 	orr.w	r3, r3, r2, lsl #16
  406af2:	f840 3b04 	str.w	r3, [r0], #4
  406af6:	f851 3b04 	ldr.w	r3, [r1], #4
  406afa:	6804      	ldr	r4, [r0, #0]
  406afc:	0c1b      	lsrs	r3, r3, #16
  406afe:	b2a6      	uxth	r6, r4
  406b00:	fb05 6303 	mla	r3, r5, r3, r6
  406b04:	eb03 4312 	add.w	r3, r3, r2, lsr #16
  406b08:	458e      	cmp	lr, r1
  406b0a:	ea4f 4213 	mov.w	r2, r3, lsr #16
  406b0e:	d8e8      	bhi.n	406ae2 <__multiply+0xba>
  406b10:	6003      	str	r3, [r0, #0]
  406b12:	f10c 0c04 	add.w	ip, ip, #4
  406b16:	45e2      	cmp	sl, ip
  406b18:	f109 0904 	add.w	r9, r9, #4
  406b1c:	d8b7      	bhi.n	406a8e <__multiply+0x66>
  406b1e:	f8dd a004 	ldr.w	sl, [sp, #4]
  406b22:	f1b8 0f00 	cmp.w	r8, #0
  406b26:	dd0b      	ble.n	406b40 <__multiply+0x118>
  406b28:	f85a 3c04 	ldr.w	r3, [sl, #-4]
  406b2c:	f1aa 0a04 	sub.w	sl, sl, #4
  406b30:	b11b      	cbz	r3, 406b3a <__multiply+0x112>
  406b32:	e005      	b.n	406b40 <__multiply+0x118>
  406b34:	f85a 3d04 	ldr.w	r3, [sl, #-4]!
  406b38:	b913      	cbnz	r3, 406b40 <__multiply+0x118>
  406b3a:	f1b8 0801 	subs.w	r8, r8, #1
  406b3e:	d1f9      	bne.n	406b34 <__multiply+0x10c>
  406b40:	9800      	ldr	r0, [sp, #0]
  406b42:	f8c0 8010 	str.w	r8, [r0, #16]
  406b46:	b003      	add	sp, #12
  406b48:	e8bd 8ff0 	ldmia.w	sp!, {r4, r5, r6, r7, r8, r9, sl, fp, pc}

00406b4c <__pow5mult>:
  406b4c:	f012 0303 	ands.w	r3, r2, #3
  406b50:	e92d 41f0 	stmdb	sp!, {r4, r5, r6, r7, r8, lr}
  406b54:	4614      	mov	r4, r2
  406b56:	4607      	mov	r7, r0
  406b58:	d12e      	bne.n	406bb8 <__pow5mult+0x6c>
  406b5a:	460d      	mov	r5, r1
  406b5c:	10a4      	asrs	r4, r4, #2
  406b5e:	d01c      	beq.n	406b9a <__pow5mult+0x4e>
  406b60:	6cbe      	ldr	r6, [r7, #72]	; 0x48
  406b62:	b396      	cbz	r6, 406bca <__pow5mult+0x7e>
  406b64:	07e3      	lsls	r3, r4, #31
  406b66:	f04f 0800 	mov.w	r8, #0
  406b6a:	d406      	bmi.n	406b7a <__pow5mult+0x2e>
  406b6c:	1064      	asrs	r4, r4, #1
  406b6e:	d014      	beq.n	406b9a <__pow5mult+0x4e>
  406b70:	6830      	ldr	r0, [r6, #0]
  406b72:	b1a8      	cbz	r0, 406ba0 <__pow5mult+0x54>
  406b74:	4606      	mov	r6, r0
  406b76:	07e3      	lsls	r3, r4, #31
  406b78:	d5f8      	bpl.n	406b6c <__pow5mult+0x20>
  406b7a:	4632      	mov	r2, r6
  406b7c:	4629      	mov	r1, r5
  406b7e:	4638      	mov	r0, r7
  406b80:	f7ff ff52 	bl	406a28 <__multiply>
  406b84:	b1b5      	cbz	r5, 406bb4 <__pow5mult+0x68>
  406b86:	686a      	ldr	r2, [r5, #4]
  406b88:	6cfb      	ldr	r3, [r7, #76]	; 0x4c
  406b8a:	1064      	asrs	r4, r4, #1
  406b8c:	f853 1022 	ldr.w	r1, [r3, r2, lsl #2]
  406b90:	6029      	str	r1, [r5, #0]
  406b92:	f843 5022 	str.w	r5, [r3, r2, lsl #2]
  406b96:	4605      	mov	r5, r0
  406b98:	d1ea      	bne.n	406b70 <__pow5mult+0x24>
  406b9a:	4628      	mov	r0, r5
  406b9c:	e8bd 81f0 	ldmia.w	sp!, {r4, r5, r6, r7, r8, pc}
  406ba0:	4632      	mov	r2, r6
  406ba2:	4631      	mov	r1, r6
  406ba4:	4638      	mov	r0, r7
  406ba6:	f7ff ff3f 	bl	406a28 <__multiply>
  406baa:	6030      	str	r0, [r6, #0]
  406bac:	f8c0 8000 	str.w	r8, [r0]
  406bb0:	4606      	mov	r6, r0
  406bb2:	e7e0      	b.n	406b76 <__pow5mult+0x2a>
  406bb4:	4605      	mov	r5, r0
  406bb6:	e7d9      	b.n	406b6c <__pow5mult+0x20>
  406bb8:	1e5a      	subs	r2, r3, #1
  406bba:	4d0b      	ldr	r5, [pc, #44]	; (406be8 <__pow5mult+0x9c>)
  406bbc:	2300      	movs	r3, #0
  406bbe:	f855 2022 	ldr.w	r2, [r5, r2, lsl #2]
  406bc2:	f7ff fe97 	bl	4068f4 <__multadd>
  406bc6:	4605      	mov	r5, r0
  406bc8:	e7c8      	b.n	406b5c <__pow5mult+0x10>
  406bca:	2101      	movs	r1, #1
  406bcc:	4638      	mov	r0, r7
  406bce:	f7ff fe61 	bl	406894 <_Balloc>
  406bd2:	f240 2171 	movw	r1, #625	; 0x271
  406bd6:	2201      	movs	r2, #1
  406bd8:	2300      	movs	r3, #0
  406bda:	6141      	str	r1, [r0, #20]
  406bdc:	6102      	str	r2, [r0, #16]
  406bde:	4606      	mov	r6, r0
  406be0:	64b8      	str	r0, [r7, #72]	; 0x48
  406be2:	6003      	str	r3, [r0, #0]
  406be4:	e7be      	b.n	406b64 <__pow5mult+0x18>
  406be6:	bf00      	nop
  406be8:	00408e10 	.word	0x00408e10

00406bec <__lshift>:
  406bec:	e92d 43f8 	stmdb	sp!, {r3, r4, r5, r6, r7, r8, r9, lr}
  406bf0:	4691      	mov	r9, r2
  406bf2:	690a      	ldr	r2, [r1, #16]
  406bf4:	688b      	ldr	r3, [r1, #8]
  406bf6:	ea4f 1469 	mov.w	r4, r9, asr #5
  406bfa:	eb04 0802 	add.w	r8, r4, r2
  406bfe:	f108 0501 	add.w	r5, r8, #1
  406c02:	429d      	cmp	r5, r3
  406c04:	460e      	mov	r6, r1
  406c06:	4607      	mov	r7, r0
  406c08:	6849      	ldr	r1, [r1, #4]
  406c0a:	dd04      	ble.n	406c16 <__lshift+0x2a>
  406c0c:	005b      	lsls	r3, r3, #1
  406c0e:	429d      	cmp	r5, r3
  406c10:	f101 0101 	add.w	r1, r1, #1
  406c14:	dcfa      	bgt.n	406c0c <__lshift+0x20>
  406c16:	4638      	mov	r0, r7
  406c18:	f7ff fe3c 	bl	406894 <_Balloc>
  406c1c:	2c00      	cmp	r4, #0
  406c1e:	f100 0314 	add.w	r3, r0, #20
  406c22:	dd06      	ble.n	406c32 <__lshift+0x46>
  406c24:	eb03 0284 	add.w	r2, r3, r4, lsl #2
  406c28:	2100      	movs	r1, #0
  406c2a:	f843 1b04 	str.w	r1, [r3], #4
  406c2e:	429a      	cmp	r2, r3
  406c30:	d1fb      	bne.n	406c2a <__lshift+0x3e>
  406c32:	6934      	ldr	r4, [r6, #16]
  406c34:	f106 0114 	add.w	r1, r6, #20
  406c38:	f019 091f 	ands.w	r9, r9, #31
  406c3c:	eb01 0e84 	add.w	lr, r1, r4, lsl #2
  406c40:	d01d      	beq.n	406c7e <__lshift+0x92>
  406c42:	f1c9 0c20 	rsb	ip, r9, #32
  406c46:	2200      	movs	r2, #0
  406c48:	680c      	ldr	r4, [r1, #0]
  406c4a:	fa04 f409 	lsl.w	r4, r4, r9
  406c4e:	4314      	orrs	r4, r2
  406c50:	f843 4b04 	str.w	r4, [r3], #4
  406c54:	f851 2b04 	ldr.w	r2, [r1], #4
  406c58:	458e      	cmp	lr, r1
  406c5a:	fa22 f20c 	lsr.w	r2, r2, ip
  406c5e:	d8f3      	bhi.n	406c48 <__lshift+0x5c>
  406c60:	601a      	str	r2, [r3, #0]
  406c62:	b10a      	cbz	r2, 406c68 <__lshift+0x7c>
  406c64:	f108 0502 	add.w	r5, r8, #2
  406c68:	6cfb      	ldr	r3, [r7, #76]	; 0x4c
  406c6a:	6872      	ldr	r2, [r6, #4]
  406c6c:	3d01      	subs	r5, #1
  406c6e:	f853 1022 	ldr.w	r1, [r3, r2, lsl #2]
  406c72:	6105      	str	r5, [r0, #16]
  406c74:	6031      	str	r1, [r6, #0]
  406c76:	f843 6022 	str.w	r6, [r3, r2, lsl #2]
  406c7a:	e8bd 83f8 	ldmia.w	sp!, {r3, r4, r5, r6, r7, r8, r9, pc}
  406c7e:	3b04      	subs	r3, #4
  406c80:	f851 2b04 	ldr.w	r2, [r1], #4
  406c84:	f843 2f04 	str.w	r2, [r3, #4]!
  406c88:	458e      	cmp	lr, r1
  406c8a:	d8f9      	bhi.n	406c80 <__lshift+0x94>
  406c8c:	e7ec      	b.n	406c68 <__lshift+0x7c>
  406c8e:	bf00      	nop

00406c90 <__mcmp>:
  406c90:	b430      	push	{r4, r5}
  406c92:	690b      	ldr	r3, [r1, #16]
  406c94:	4605      	mov	r5, r0
  406c96:	6900      	ldr	r0, [r0, #16]
  406c98:	1ac0      	subs	r0, r0, r3
  406c9a:	d10f      	bne.n	406cbc <__mcmp+0x2c>
  406c9c:	009b      	lsls	r3, r3, #2
  406c9e:	3514      	adds	r5, #20
  406ca0:	3114      	adds	r1, #20
  406ca2:	4419      	add	r1, r3
  406ca4:	442b      	add	r3, r5
  406ca6:	e001      	b.n	406cac <__mcmp+0x1c>
  406ca8:	429d      	cmp	r5, r3
  406caa:	d207      	bcs.n	406cbc <__mcmp+0x2c>
  406cac:	f853 4d04 	ldr.w	r4, [r3, #-4]!
  406cb0:	f851 2d04 	ldr.w	r2, [r1, #-4]!
  406cb4:	4294      	cmp	r4, r2
  406cb6:	d0f7      	beq.n	406ca8 <__mcmp+0x18>
  406cb8:	d302      	bcc.n	406cc0 <__mcmp+0x30>
  406cba:	2001      	movs	r0, #1
  406cbc:	bc30      	pop	{r4, r5}
  406cbe:	4770      	bx	lr
  406cc0:	f04f 30ff 	mov.w	r0, #4294967295
  406cc4:	e7fa      	b.n	406cbc <__mcmp+0x2c>
  406cc6:	bf00      	nop

00406cc8 <__mdiff>:
  406cc8:	e92d 41f0 	stmdb	sp!, {r4, r5, r6, r7, r8, lr}
  406ccc:	690f      	ldr	r7, [r1, #16]
  406cce:	460e      	mov	r6, r1
  406cd0:	6911      	ldr	r1, [r2, #16]
  406cd2:	1a7f      	subs	r7, r7, r1
  406cd4:	2f00      	cmp	r7, #0
  406cd6:	4690      	mov	r8, r2
  406cd8:	d117      	bne.n	406d0a <__mdiff+0x42>
  406cda:	0089      	lsls	r1, r1, #2
  406cdc:	f106 0514 	add.w	r5, r6, #20
  406ce0:	f102 0e14 	add.w	lr, r2, #20
  406ce4:	186b      	adds	r3, r5, r1
  406ce6:	4471      	add	r1, lr
  406ce8:	e001      	b.n	406cee <__mdiff+0x26>
  406cea:	429d      	cmp	r5, r3
  406cec:	d25c      	bcs.n	406da8 <__mdiff+0xe0>
  406cee:	f853 2d04 	ldr.w	r2, [r3, #-4]!
  406cf2:	f851 4d04 	ldr.w	r4, [r1, #-4]!
  406cf6:	42a2      	cmp	r2, r4
  406cf8:	d0f7      	beq.n	406cea <__mdiff+0x22>
  406cfa:	d25e      	bcs.n	406dba <__mdiff+0xf2>
  406cfc:	4633      	mov	r3, r6
  406cfe:	462c      	mov	r4, r5
  406d00:	4646      	mov	r6, r8
  406d02:	4675      	mov	r5, lr
  406d04:	4698      	mov	r8, r3
  406d06:	2701      	movs	r7, #1
  406d08:	e005      	b.n	406d16 <__mdiff+0x4e>
  406d0a:	db58      	blt.n	406dbe <__mdiff+0xf6>
  406d0c:	f106 0514 	add.w	r5, r6, #20
  406d10:	f108 0414 	add.w	r4, r8, #20
  406d14:	2700      	movs	r7, #0
  406d16:	6871      	ldr	r1, [r6, #4]
  406d18:	f7ff fdbc 	bl	406894 <_Balloc>
  406d1c:	f8d8 3010 	ldr.w	r3, [r8, #16]
  406d20:	6936      	ldr	r6, [r6, #16]
  406d22:	60c7      	str	r7, [r0, #12]
  406d24:	eb04 0c83 	add.w	ip, r4, r3, lsl #2
  406d28:	46a6      	mov	lr, r4
  406d2a:	eb05 0786 	add.w	r7, r5, r6, lsl #2
  406d2e:	f100 0414 	add.w	r4, r0, #20
  406d32:	2300      	movs	r3, #0
  406d34:	f85e 1b04 	ldr.w	r1, [lr], #4
  406d38:	f855 8b04 	ldr.w	r8, [r5], #4
  406d3c:	b28a      	uxth	r2, r1
  406d3e:	fa13 f388 	uxtah	r3, r3, r8
  406d42:	0c09      	lsrs	r1, r1, #16
  406d44:	1a9a      	subs	r2, r3, r2
  406d46:	ebc1 4318 	rsb	r3, r1, r8, lsr #16
  406d4a:	eb03 4322 	add.w	r3, r3, r2, asr #16
  406d4e:	b292      	uxth	r2, r2
  406d50:	ea42 4203 	orr.w	r2, r2, r3, lsl #16
  406d54:	45f4      	cmp	ip, lr
  406d56:	f844 2b04 	str.w	r2, [r4], #4
  406d5a:	ea4f 4323 	mov.w	r3, r3, asr #16
  406d5e:	d8e9      	bhi.n	406d34 <__mdiff+0x6c>
  406d60:	42af      	cmp	r7, r5
  406d62:	d917      	bls.n	406d94 <__mdiff+0xcc>
  406d64:	46a4      	mov	ip, r4
  406d66:	46ae      	mov	lr, r5
  406d68:	f85e 2b04 	ldr.w	r2, [lr], #4
  406d6c:	fa13 f382 	uxtah	r3, r3, r2
  406d70:	1419      	asrs	r1, r3, #16
  406d72:	eb01 4112 	add.w	r1, r1, r2, lsr #16
  406d76:	b29b      	uxth	r3, r3
  406d78:	ea43 4201 	orr.w	r2, r3, r1, lsl #16
  406d7c:	4577      	cmp	r7, lr
  406d7e:	f84c 2b04 	str.w	r2, [ip], #4
  406d82:	ea4f 4321 	mov.w	r3, r1, asr #16
  406d86:	d8ef      	bhi.n	406d68 <__mdiff+0xa0>
  406d88:	43ed      	mvns	r5, r5
  406d8a:	442f      	add	r7, r5
  406d8c:	f027 0703 	bic.w	r7, r7, #3
  406d90:	3704      	adds	r7, #4
  406d92:	443c      	add	r4, r7
  406d94:	3c04      	subs	r4, #4
  406d96:	b922      	cbnz	r2, 406da2 <__mdiff+0xda>
  406d98:	f854 3d04 	ldr.w	r3, [r4, #-4]!
  406d9c:	3e01      	subs	r6, #1
  406d9e:	2b00      	cmp	r3, #0
  406da0:	d0fa      	beq.n	406d98 <__mdiff+0xd0>
  406da2:	6106      	str	r6, [r0, #16]
  406da4:	e8bd 81f0 	ldmia.w	sp!, {r4, r5, r6, r7, r8, pc}
  406da8:	2100      	movs	r1, #0
  406daa:	f7ff fd73 	bl	406894 <_Balloc>
  406dae:	2201      	movs	r2, #1
  406db0:	2300      	movs	r3, #0
  406db2:	6102      	str	r2, [r0, #16]
  406db4:	6143      	str	r3, [r0, #20]
  406db6:	e8bd 81f0 	ldmia.w	sp!, {r4, r5, r6, r7, r8, pc}
  406dba:	4674      	mov	r4, lr
  406dbc:	e7ab      	b.n	406d16 <__mdiff+0x4e>
  406dbe:	4633      	mov	r3, r6
  406dc0:	f106 0414 	add.w	r4, r6, #20
  406dc4:	f102 0514 	add.w	r5, r2, #20
  406dc8:	4616      	mov	r6, r2
  406dca:	2701      	movs	r7, #1
  406dcc:	4698      	mov	r8, r3
  406dce:	e7a2      	b.n	406d16 <__mdiff+0x4e>

00406dd0 <__d2b>:
  406dd0:	e92d 41f0 	stmdb	sp!, {r4, r5, r6, r7, r8, lr}
  406dd4:	b082      	sub	sp, #8
  406dd6:	2101      	movs	r1, #1
  406dd8:	461c      	mov	r4, r3
  406dda:	f3c3 570a 	ubfx	r7, r3, #20, #11
  406dde:	4615      	mov	r5, r2
  406de0:	9e08      	ldr	r6, [sp, #32]
  406de2:	f7ff fd57 	bl	406894 <_Balloc>
  406de6:	f3c4 0413 	ubfx	r4, r4, #0, #20
  406dea:	4680      	mov	r8, r0
  406dec:	b10f      	cbz	r7, 406df2 <__d2b+0x22>
  406dee:	f444 1480 	orr.w	r4, r4, #1048576	; 0x100000
  406df2:	9401      	str	r4, [sp, #4]
  406df4:	b31d      	cbz	r5, 406e3e <__d2b+0x6e>
  406df6:	a802      	add	r0, sp, #8
  406df8:	f840 5d08 	str.w	r5, [r0, #-8]!
  406dfc:	f7ff fdda 	bl	4069b4 <__lo0bits>
  406e00:	2800      	cmp	r0, #0
  406e02:	d134      	bne.n	406e6e <__d2b+0x9e>
  406e04:	e89d 000c 	ldmia.w	sp, {r2, r3}
  406e08:	f8c8 2014 	str.w	r2, [r8, #20]
  406e0c:	2b00      	cmp	r3, #0
  406e0e:	bf0c      	ite	eq
  406e10:	2101      	moveq	r1, #1
  406e12:	2102      	movne	r1, #2
  406e14:	f8c8 3018 	str.w	r3, [r8, #24]
  406e18:	f8c8 1010 	str.w	r1, [r8, #16]
  406e1c:	b9df      	cbnz	r7, 406e56 <__d2b+0x86>
  406e1e:	eb08 0381 	add.w	r3, r8, r1, lsl #2
  406e22:	f2a0 4032 	subw	r0, r0, #1074	; 0x432
  406e26:	6030      	str	r0, [r6, #0]
  406e28:	6918      	ldr	r0, [r3, #16]
  406e2a:	f7ff fda3 	bl	406974 <__hi0bits>
  406e2e:	9b09      	ldr	r3, [sp, #36]	; 0x24
  406e30:	ebc0 1041 	rsb	r0, r0, r1, lsl #5
  406e34:	6018      	str	r0, [r3, #0]
  406e36:	4640      	mov	r0, r8
  406e38:	b002      	add	sp, #8
  406e3a:	e8bd 81f0 	ldmia.w	sp!, {r4, r5, r6, r7, r8, pc}
  406e3e:	a801      	add	r0, sp, #4
  406e40:	f7ff fdb8 	bl	4069b4 <__lo0bits>
  406e44:	9b01      	ldr	r3, [sp, #4]
  406e46:	f8c8 3014 	str.w	r3, [r8, #20]
  406e4a:	2101      	movs	r1, #1
  406e4c:	3020      	adds	r0, #32
  406e4e:	f8c8 1010 	str.w	r1, [r8, #16]
  406e52:	2f00      	cmp	r7, #0
  406e54:	d0e3      	beq.n	406e1e <__d2b+0x4e>
  406e56:	9b09      	ldr	r3, [sp, #36]	; 0x24
  406e58:	f2a7 4733 	subw	r7, r7, #1075	; 0x433
  406e5c:	4407      	add	r7, r0
  406e5e:	f1c0 0035 	rsb	r0, r0, #53	; 0x35
  406e62:	6037      	str	r7, [r6, #0]
  406e64:	6018      	str	r0, [r3, #0]
  406e66:	4640      	mov	r0, r8
  406e68:	b002      	add	sp, #8
  406e6a:	e8bd 81f0 	ldmia.w	sp!, {r4, r5, r6, r7, r8, pc}
  406e6e:	e89d 000a 	ldmia.w	sp, {r1, r3}
  406e72:	f1c0 0220 	rsb	r2, r0, #32
  406e76:	fa03 f202 	lsl.w	r2, r3, r2
  406e7a:	430a      	orrs	r2, r1
  406e7c:	40c3      	lsrs	r3, r0
  406e7e:	9301      	str	r3, [sp, #4]
  406e80:	f8c8 2014 	str.w	r2, [r8, #20]
  406e84:	e7c2      	b.n	406e0c <__d2b+0x3c>
  406e86:	bf00      	nop

00406e88 <_realloc_r>:
  406e88:	2900      	cmp	r1, #0
  406e8a:	f000 8095 	beq.w	406fb8 <_realloc_r+0x130>
  406e8e:	e92d 4ff0 	stmdb	sp!, {r4, r5, r6, r7, r8, r9, sl, fp, lr}
  406e92:	460d      	mov	r5, r1
  406e94:	4616      	mov	r6, r2
  406e96:	b083      	sub	sp, #12
  406e98:	4680      	mov	r8, r0
  406e9a:	f106 070b 	add.w	r7, r6, #11
  406e9e:	f7ff fced 	bl	40687c <__malloc_lock>
  406ea2:	f855 ec04 	ldr.w	lr, [r5, #-4]
  406ea6:	2f16      	cmp	r7, #22
  406ea8:	f02e 0403 	bic.w	r4, lr, #3
  406eac:	f1a5 0908 	sub.w	r9, r5, #8
  406eb0:	d83c      	bhi.n	406f2c <_realloc_r+0xa4>
  406eb2:	2210      	movs	r2, #16
  406eb4:	4617      	mov	r7, r2
  406eb6:	42be      	cmp	r6, r7
  406eb8:	d83d      	bhi.n	406f36 <_realloc_r+0xae>
  406eba:	4294      	cmp	r4, r2
  406ebc:	da43      	bge.n	406f46 <_realloc_r+0xbe>
  406ebe:	4bc4      	ldr	r3, [pc, #784]	; (4071d0 <_realloc_r+0x348>)
  406ec0:	6899      	ldr	r1, [r3, #8]
  406ec2:	eb09 0004 	add.w	r0, r9, r4
  406ec6:	4288      	cmp	r0, r1
  406ec8:	f000 80b4 	beq.w	407034 <_realloc_r+0x1ac>
  406ecc:	6843      	ldr	r3, [r0, #4]
  406ece:	f023 0101 	bic.w	r1, r3, #1
  406ed2:	4401      	add	r1, r0
  406ed4:	6849      	ldr	r1, [r1, #4]
  406ed6:	07c9      	lsls	r1, r1, #31
  406ed8:	d54c      	bpl.n	406f74 <_realloc_r+0xec>
  406eda:	f01e 0f01 	tst.w	lr, #1
  406ede:	f000 809b 	beq.w	407018 <_realloc_r+0x190>
  406ee2:	4631      	mov	r1, r6
  406ee4:	4640      	mov	r0, r8
  406ee6:	f7ff f8af 	bl	406048 <_malloc_r>
  406eea:	4606      	mov	r6, r0
  406eec:	2800      	cmp	r0, #0
  406eee:	d03a      	beq.n	406f66 <_realloc_r+0xde>
  406ef0:	f855 3c04 	ldr.w	r3, [r5, #-4]
  406ef4:	f023 0301 	bic.w	r3, r3, #1
  406ef8:	444b      	add	r3, r9
  406efa:	f1a0 0208 	sub.w	r2, r0, #8
  406efe:	429a      	cmp	r2, r3
  406f00:	f000 8121 	beq.w	407146 <_realloc_r+0x2be>
  406f04:	1f22      	subs	r2, r4, #4
  406f06:	2a24      	cmp	r2, #36	; 0x24
  406f08:	f200 8107 	bhi.w	40711a <_realloc_r+0x292>
  406f0c:	2a13      	cmp	r2, #19
  406f0e:	f200 80db 	bhi.w	4070c8 <_realloc_r+0x240>
  406f12:	4603      	mov	r3, r0
  406f14:	462a      	mov	r2, r5
  406f16:	6811      	ldr	r1, [r2, #0]
  406f18:	6019      	str	r1, [r3, #0]
  406f1a:	6851      	ldr	r1, [r2, #4]
  406f1c:	6059      	str	r1, [r3, #4]
  406f1e:	6892      	ldr	r2, [r2, #8]
  406f20:	609a      	str	r2, [r3, #8]
  406f22:	4629      	mov	r1, r5
  406f24:	4640      	mov	r0, r8
  406f26:	f7fe fd63 	bl	4059f0 <_free_r>
  406f2a:	e01c      	b.n	406f66 <_realloc_r+0xde>
  406f2c:	f027 0707 	bic.w	r7, r7, #7
  406f30:	2f00      	cmp	r7, #0
  406f32:	463a      	mov	r2, r7
  406f34:	dabf      	bge.n	406eb6 <_realloc_r+0x2e>
  406f36:	2600      	movs	r6, #0
  406f38:	230c      	movs	r3, #12
  406f3a:	4630      	mov	r0, r6
  406f3c:	f8c8 3000 	str.w	r3, [r8]
  406f40:	b003      	add	sp, #12
  406f42:	e8bd 8ff0 	ldmia.w	sp!, {r4, r5, r6, r7, r8, r9, sl, fp, pc}
  406f46:	462e      	mov	r6, r5
  406f48:	1be3      	subs	r3, r4, r7
  406f4a:	2b0f      	cmp	r3, #15
  406f4c:	d81e      	bhi.n	406f8c <_realloc_r+0x104>
  406f4e:	f8d9 3004 	ldr.w	r3, [r9, #4]
  406f52:	f003 0301 	and.w	r3, r3, #1
  406f56:	4323      	orrs	r3, r4
  406f58:	444c      	add	r4, r9
  406f5a:	f8c9 3004 	str.w	r3, [r9, #4]
  406f5e:	6863      	ldr	r3, [r4, #4]
  406f60:	f043 0301 	orr.w	r3, r3, #1
  406f64:	6063      	str	r3, [r4, #4]
  406f66:	4640      	mov	r0, r8
  406f68:	f7ff fc8e 	bl	406888 <__malloc_unlock>
  406f6c:	4630      	mov	r0, r6
  406f6e:	b003      	add	sp, #12
  406f70:	e8bd 8ff0 	ldmia.w	sp!, {r4, r5, r6, r7, r8, r9, sl, fp, pc}
  406f74:	f023 0303 	bic.w	r3, r3, #3
  406f78:	18e1      	adds	r1, r4, r3
  406f7a:	4291      	cmp	r1, r2
  406f7c:	db1f      	blt.n	406fbe <_realloc_r+0x136>
  406f7e:	68c3      	ldr	r3, [r0, #12]
  406f80:	6882      	ldr	r2, [r0, #8]
  406f82:	462e      	mov	r6, r5
  406f84:	60d3      	str	r3, [r2, #12]
  406f86:	460c      	mov	r4, r1
  406f88:	609a      	str	r2, [r3, #8]
  406f8a:	e7dd      	b.n	406f48 <_realloc_r+0xc0>
  406f8c:	f8d9 2004 	ldr.w	r2, [r9, #4]
  406f90:	eb09 0107 	add.w	r1, r9, r7
  406f94:	f002 0201 	and.w	r2, r2, #1
  406f98:	444c      	add	r4, r9
  406f9a:	f043 0301 	orr.w	r3, r3, #1
  406f9e:	4317      	orrs	r7, r2
  406fa0:	f8c9 7004 	str.w	r7, [r9, #4]
  406fa4:	604b      	str	r3, [r1, #4]
  406fa6:	6863      	ldr	r3, [r4, #4]
  406fa8:	f043 0301 	orr.w	r3, r3, #1
  406fac:	3108      	adds	r1, #8
  406fae:	6063      	str	r3, [r4, #4]
  406fb0:	4640      	mov	r0, r8
  406fb2:	f7fe fd1d 	bl	4059f0 <_free_r>
  406fb6:	e7d6      	b.n	406f66 <_realloc_r+0xde>
  406fb8:	4611      	mov	r1, r2
  406fba:	f7ff b845 	b.w	406048 <_malloc_r>
  406fbe:	f01e 0f01 	tst.w	lr, #1
  406fc2:	d18e      	bne.n	406ee2 <_realloc_r+0x5a>
  406fc4:	f855 1c08 	ldr.w	r1, [r5, #-8]
  406fc8:	eba9 0a01 	sub.w	sl, r9, r1
  406fcc:	f8da 1004 	ldr.w	r1, [sl, #4]
  406fd0:	f021 0103 	bic.w	r1, r1, #3
  406fd4:	440b      	add	r3, r1
  406fd6:	4423      	add	r3, r4
  406fd8:	4293      	cmp	r3, r2
  406fda:	db25      	blt.n	407028 <_realloc_r+0x1a0>
  406fdc:	68c2      	ldr	r2, [r0, #12]
  406fde:	6881      	ldr	r1, [r0, #8]
  406fe0:	4656      	mov	r6, sl
  406fe2:	60ca      	str	r2, [r1, #12]
  406fe4:	6091      	str	r1, [r2, #8]
  406fe6:	f8da 100c 	ldr.w	r1, [sl, #12]
  406fea:	f856 0f08 	ldr.w	r0, [r6, #8]!
  406fee:	1f22      	subs	r2, r4, #4
  406ff0:	2a24      	cmp	r2, #36	; 0x24
  406ff2:	60c1      	str	r1, [r0, #12]
  406ff4:	6088      	str	r0, [r1, #8]
  406ff6:	f200 8094 	bhi.w	407122 <_realloc_r+0x29a>
  406ffa:	2a13      	cmp	r2, #19
  406ffc:	d96f      	bls.n	4070de <_realloc_r+0x256>
  406ffe:	6829      	ldr	r1, [r5, #0]
  407000:	f8ca 1008 	str.w	r1, [sl, #8]
  407004:	6869      	ldr	r1, [r5, #4]
  407006:	f8ca 100c 	str.w	r1, [sl, #12]
  40700a:	2a1b      	cmp	r2, #27
  40700c:	f200 80a2 	bhi.w	407154 <_realloc_r+0x2cc>
  407010:	3508      	adds	r5, #8
  407012:	f10a 0210 	add.w	r2, sl, #16
  407016:	e063      	b.n	4070e0 <_realloc_r+0x258>
  407018:	f855 3c08 	ldr.w	r3, [r5, #-8]
  40701c:	eba9 0a03 	sub.w	sl, r9, r3
  407020:	f8da 1004 	ldr.w	r1, [sl, #4]
  407024:	f021 0103 	bic.w	r1, r1, #3
  407028:	1863      	adds	r3, r4, r1
  40702a:	4293      	cmp	r3, r2
  40702c:	f6ff af59 	blt.w	406ee2 <_realloc_r+0x5a>
  407030:	4656      	mov	r6, sl
  407032:	e7d8      	b.n	406fe6 <_realloc_r+0x15e>
  407034:	6841      	ldr	r1, [r0, #4]
  407036:	f021 0b03 	bic.w	fp, r1, #3
  40703a:	44a3      	add	fp, r4
  40703c:	f107 0010 	add.w	r0, r7, #16
  407040:	4583      	cmp	fp, r0
  407042:	da56      	bge.n	4070f2 <_realloc_r+0x26a>
  407044:	f01e 0f01 	tst.w	lr, #1
  407048:	f47f af4b 	bne.w	406ee2 <_realloc_r+0x5a>
  40704c:	f855 1c08 	ldr.w	r1, [r5, #-8]
  407050:	eba9 0a01 	sub.w	sl, r9, r1
  407054:	f8da 1004 	ldr.w	r1, [sl, #4]
  407058:	f021 0103 	bic.w	r1, r1, #3
  40705c:	448b      	add	fp, r1
  40705e:	4558      	cmp	r0, fp
  407060:	dce2      	bgt.n	407028 <_realloc_r+0x1a0>
  407062:	4656      	mov	r6, sl
  407064:	f8da 100c 	ldr.w	r1, [sl, #12]
  407068:	f856 0f08 	ldr.w	r0, [r6, #8]!
  40706c:	1f22      	subs	r2, r4, #4
  40706e:	2a24      	cmp	r2, #36	; 0x24
  407070:	60c1      	str	r1, [r0, #12]
  407072:	6088      	str	r0, [r1, #8]
  407074:	f200 808f 	bhi.w	407196 <_realloc_r+0x30e>
  407078:	2a13      	cmp	r2, #19
  40707a:	f240 808a 	bls.w	407192 <_realloc_r+0x30a>
  40707e:	6829      	ldr	r1, [r5, #0]
  407080:	f8ca 1008 	str.w	r1, [sl, #8]
  407084:	6869      	ldr	r1, [r5, #4]
  407086:	f8ca 100c 	str.w	r1, [sl, #12]
  40708a:	2a1b      	cmp	r2, #27
  40708c:	f200 808a 	bhi.w	4071a4 <_realloc_r+0x31c>
  407090:	3508      	adds	r5, #8
  407092:	f10a 0210 	add.w	r2, sl, #16
  407096:	6829      	ldr	r1, [r5, #0]
  407098:	6011      	str	r1, [r2, #0]
  40709a:	6869      	ldr	r1, [r5, #4]
  40709c:	6051      	str	r1, [r2, #4]
  40709e:	68a9      	ldr	r1, [r5, #8]
  4070a0:	6091      	str	r1, [r2, #8]
  4070a2:	eb0a 0107 	add.w	r1, sl, r7
  4070a6:	ebab 0207 	sub.w	r2, fp, r7
  4070aa:	f042 0201 	orr.w	r2, r2, #1
  4070ae:	6099      	str	r1, [r3, #8]
  4070b0:	604a      	str	r2, [r1, #4]
  4070b2:	f8da 3004 	ldr.w	r3, [sl, #4]
  4070b6:	f003 0301 	and.w	r3, r3, #1
  4070ba:	431f      	orrs	r7, r3
  4070bc:	4640      	mov	r0, r8
  4070be:	f8ca 7004 	str.w	r7, [sl, #4]
  4070c2:	f7ff fbe1 	bl	406888 <__malloc_unlock>
  4070c6:	e751      	b.n	406f6c <_realloc_r+0xe4>
  4070c8:	682b      	ldr	r3, [r5, #0]
  4070ca:	6003      	str	r3, [r0, #0]
  4070cc:	686b      	ldr	r3, [r5, #4]
  4070ce:	6043      	str	r3, [r0, #4]
  4070d0:	2a1b      	cmp	r2, #27
  4070d2:	d82d      	bhi.n	407130 <_realloc_r+0x2a8>
  4070d4:	f100 0308 	add.w	r3, r0, #8
  4070d8:	f105 0208 	add.w	r2, r5, #8
  4070dc:	e71b      	b.n	406f16 <_realloc_r+0x8e>
  4070de:	4632      	mov	r2, r6
  4070e0:	6829      	ldr	r1, [r5, #0]
  4070e2:	6011      	str	r1, [r2, #0]
  4070e4:	6869      	ldr	r1, [r5, #4]
  4070e6:	6051      	str	r1, [r2, #4]
  4070e8:	68a9      	ldr	r1, [r5, #8]
  4070ea:	6091      	str	r1, [r2, #8]
  4070ec:	461c      	mov	r4, r3
  4070ee:	46d1      	mov	r9, sl
  4070f0:	e72a      	b.n	406f48 <_realloc_r+0xc0>
  4070f2:	eb09 0107 	add.w	r1, r9, r7
  4070f6:	ebab 0b07 	sub.w	fp, fp, r7
  4070fa:	f04b 0201 	orr.w	r2, fp, #1
  4070fe:	6099      	str	r1, [r3, #8]
  407100:	604a      	str	r2, [r1, #4]
  407102:	f855 3c04 	ldr.w	r3, [r5, #-4]
  407106:	f003 0301 	and.w	r3, r3, #1
  40710a:	431f      	orrs	r7, r3
  40710c:	4640      	mov	r0, r8
  40710e:	f845 7c04 	str.w	r7, [r5, #-4]
  407112:	f7ff fbb9 	bl	406888 <__malloc_unlock>
  407116:	462e      	mov	r6, r5
  407118:	e728      	b.n	406f6c <_realloc_r+0xe4>
  40711a:	4629      	mov	r1, r5
  40711c:	f7ff fb4a 	bl	4067b4 <memmove>
  407120:	e6ff      	b.n	406f22 <_realloc_r+0x9a>
  407122:	4629      	mov	r1, r5
  407124:	4630      	mov	r0, r6
  407126:	461c      	mov	r4, r3
  407128:	46d1      	mov	r9, sl
  40712a:	f7ff fb43 	bl	4067b4 <memmove>
  40712e:	e70b      	b.n	406f48 <_realloc_r+0xc0>
  407130:	68ab      	ldr	r3, [r5, #8]
  407132:	6083      	str	r3, [r0, #8]
  407134:	68eb      	ldr	r3, [r5, #12]
  407136:	60c3      	str	r3, [r0, #12]
  407138:	2a24      	cmp	r2, #36	; 0x24
  40713a:	d017      	beq.n	40716c <_realloc_r+0x2e4>
  40713c:	f100 0310 	add.w	r3, r0, #16
  407140:	f105 0210 	add.w	r2, r5, #16
  407144:	e6e7      	b.n	406f16 <_realloc_r+0x8e>
  407146:	f850 3c04 	ldr.w	r3, [r0, #-4]
  40714a:	f023 0303 	bic.w	r3, r3, #3
  40714e:	441c      	add	r4, r3
  407150:	462e      	mov	r6, r5
  407152:	e6f9      	b.n	406f48 <_realloc_r+0xc0>
  407154:	68a9      	ldr	r1, [r5, #8]
  407156:	f8ca 1010 	str.w	r1, [sl, #16]
  40715a:	68e9      	ldr	r1, [r5, #12]
  40715c:	f8ca 1014 	str.w	r1, [sl, #20]
  407160:	2a24      	cmp	r2, #36	; 0x24
  407162:	d00c      	beq.n	40717e <_realloc_r+0x2f6>
  407164:	3510      	adds	r5, #16
  407166:	f10a 0218 	add.w	r2, sl, #24
  40716a:	e7b9      	b.n	4070e0 <_realloc_r+0x258>
  40716c:	692b      	ldr	r3, [r5, #16]
  40716e:	6103      	str	r3, [r0, #16]
  407170:	696b      	ldr	r3, [r5, #20]
  407172:	6143      	str	r3, [r0, #20]
  407174:	f105 0218 	add.w	r2, r5, #24
  407178:	f100 0318 	add.w	r3, r0, #24
  40717c:	e6cb      	b.n	406f16 <_realloc_r+0x8e>
  40717e:	692a      	ldr	r2, [r5, #16]
  407180:	f8ca 2018 	str.w	r2, [sl, #24]
  407184:	696a      	ldr	r2, [r5, #20]
  407186:	f8ca 201c 	str.w	r2, [sl, #28]
  40718a:	3518      	adds	r5, #24
  40718c:	f10a 0220 	add.w	r2, sl, #32
  407190:	e7a6      	b.n	4070e0 <_realloc_r+0x258>
  407192:	4632      	mov	r2, r6
  407194:	e77f      	b.n	407096 <_realloc_r+0x20e>
  407196:	4629      	mov	r1, r5
  407198:	4630      	mov	r0, r6
  40719a:	9301      	str	r3, [sp, #4]
  40719c:	f7ff fb0a 	bl	4067b4 <memmove>
  4071a0:	9b01      	ldr	r3, [sp, #4]
  4071a2:	e77e      	b.n	4070a2 <_realloc_r+0x21a>
  4071a4:	68a9      	ldr	r1, [r5, #8]
  4071a6:	f8ca 1010 	str.w	r1, [sl, #16]
  4071aa:	68e9      	ldr	r1, [r5, #12]
  4071ac:	f8ca 1014 	str.w	r1, [sl, #20]
  4071b0:	2a24      	cmp	r2, #36	; 0x24
  4071b2:	d003      	beq.n	4071bc <_realloc_r+0x334>
  4071b4:	3510      	adds	r5, #16
  4071b6:	f10a 0218 	add.w	r2, sl, #24
  4071ba:	e76c      	b.n	407096 <_realloc_r+0x20e>
  4071bc:	692a      	ldr	r2, [r5, #16]
  4071be:	f8ca 2018 	str.w	r2, [sl, #24]
  4071c2:	696a      	ldr	r2, [r5, #20]
  4071c4:	f8ca 201c 	str.w	r2, [sl, #28]
  4071c8:	3518      	adds	r5, #24
  4071ca:	f10a 0220 	add.w	r2, sl, #32
  4071ce:	e762      	b.n	407096 <_realloc_r+0x20e>
  4071d0:	200005b8 	.word	0x200005b8

004071d4 <_sbrk_r>:
  4071d4:	b538      	push	{r3, r4, r5, lr}
  4071d6:	4c07      	ldr	r4, [pc, #28]	; (4071f4 <_sbrk_r+0x20>)
  4071d8:	2300      	movs	r3, #0
  4071da:	4605      	mov	r5, r0
  4071dc:	4608      	mov	r0, r1
  4071de:	6023      	str	r3, [r4, #0]
  4071e0:	f7fa fa20 	bl	401624 <_sbrk>
  4071e4:	1c43      	adds	r3, r0, #1
  4071e6:	d000      	beq.n	4071ea <_sbrk_r+0x16>
  4071e8:	bd38      	pop	{r3, r4, r5, pc}
  4071ea:	6823      	ldr	r3, [r4, #0]
  4071ec:	2b00      	cmp	r3, #0
  4071ee:	d0fb      	beq.n	4071e8 <_sbrk_r+0x14>
  4071f0:	602b      	str	r3, [r5, #0]
  4071f2:	bd38      	pop	{r3, r4, r5, pc}
  4071f4:	20000ed0 	.word	0x20000ed0

004071f8 <__sread>:
  4071f8:	b510      	push	{r4, lr}
  4071fa:	460c      	mov	r4, r1
  4071fc:	f9b1 100e 	ldrsh.w	r1, [r1, #14]
  407200:	f000 faa4 	bl	40774c <_read_r>
  407204:	2800      	cmp	r0, #0
  407206:	db03      	blt.n	407210 <__sread+0x18>
  407208:	6d23      	ldr	r3, [r4, #80]	; 0x50
  40720a:	4403      	add	r3, r0
  40720c:	6523      	str	r3, [r4, #80]	; 0x50
  40720e:	bd10      	pop	{r4, pc}
  407210:	89a3      	ldrh	r3, [r4, #12]
  407212:	f423 5380 	bic.w	r3, r3, #4096	; 0x1000
  407216:	81a3      	strh	r3, [r4, #12]
  407218:	bd10      	pop	{r4, pc}
  40721a:	bf00      	nop

0040721c <__swrite>:
  40721c:	e92d 41f0 	stmdb	sp!, {r4, r5, r6, r7, r8, lr}
  407220:	4616      	mov	r6, r2
  407222:	f9b1 200c 	ldrsh.w	r2, [r1, #12]
  407226:	461f      	mov	r7, r3
  407228:	05d3      	lsls	r3, r2, #23
  40722a:	460c      	mov	r4, r1
  40722c:	4605      	mov	r5, r0
  40722e:	d507      	bpl.n	407240 <__swrite+0x24>
  407230:	2200      	movs	r2, #0
  407232:	2302      	movs	r3, #2
  407234:	f9b1 100e 	ldrsh.w	r1, [r1, #14]
  407238:	f000 fa72 	bl	407720 <_lseek_r>
  40723c:	f9b4 200c 	ldrsh.w	r2, [r4, #12]
  407240:	f9b4 100e 	ldrsh.w	r1, [r4, #14]
  407244:	f422 5280 	bic.w	r2, r2, #4096	; 0x1000
  407248:	81a2      	strh	r2, [r4, #12]
  40724a:	463b      	mov	r3, r7
  40724c:	4632      	mov	r2, r6
  40724e:	4628      	mov	r0, r5
  407250:	e8bd 41f0 	ldmia.w	sp!, {r4, r5, r6, r7, r8, lr}
  407254:	f000 b922 	b.w	40749c <_write_r>

00407258 <__sseek>:
  407258:	b510      	push	{r4, lr}
  40725a:	460c      	mov	r4, r1
  40725c:	f9b1 100e 	ldrsh.w	r1, [r1, #14]
  407260:	f000 fa5e 	bl	407720 <_lseek_r>
  407264:	89a3      	ldrh	r3, [r4, #12]
  407266:	1c42      	adds	r2, r0, #1
  407268:	bf0e      	itee	eq
  40726a:	f423 5380 	biceq.w	r3, r3, #4096	; 0x1000
  40726e:	f443 5380 	orrne.w	r3, r3, #4096	; 0x1000
  407272:	6520      	strne	r0, [r4, #80]	; 0x50
  407274:	81a3      	strh	r3, [r4, #12]
  407276:	bd10      	pop	{r4, pc}

00407278 <__sclose>:
  407278:	f9b1 100e 	ldrsh.w	r1, [r1, #14]
  40727c:	f000 b9b6 	b.w	4075ec <_close_r>

00407280 <__ssprint_r>:
  407280:	e92d 4ff0 	stmdb	sp!, {r4, r5, r6, r7, r8, r9, sl, fp, lr}
  407284:	6893      	ldr	r3, [r2, #8]
  407286:	b083      	sub	sp, #12
  407288:	4690      	mov	r8, r2
  40728a:	2b00      	cmp	r3, #0
  40728c:	d070      	beq.n	407370 <__ssprint_r+0xf0>
  40728e:	4682      	mov	sl, r0
  407290:	460c      	mov	r4, r1
  407292:	6817      	ldr	r7, [r2, #0]
  407294:	688d      	ldr	r5, [r1, #8]
  407296:	6808      	ldr	r0, [r1, #0]
  407298:	e042      	b.n	407320 <__ssprint_r+0xa0>
  40729a:	89a3      	ldrh	r3, [r4, #12]
  40729c:	f413 6f90 	tst.w	r3, #1152	; 0x480
  4072a0:	d02e      	beq.n	407300 <__ssprint_r+0x80>
  4072a2:	6965      	ldr	r5, [r4, #20]
  4072a4:	6921      	ldr	r1, [r4, #16]
  4072a6:	eb05 0545 	add.w	r5, r5, r5, lsl #1
  4072aa:	eba0 0b01 	sub.w	fp, r0, r1
  4072ae:	eb05 75d5 	add.w	r5, r5, r5, lsr #31
  4072b2:	f10b 0001 	add.w	r0, fp, #1
  4072b6:	106d      	asrs	r5, r5, #1
  4072b8:	4430      	add	r0, r6
  4072ba:	42a8      	cmp	r0, r5
  4072bc:	462a      	mov	r2, r5
  4072be:	bf84      	itt	hi
  4072c0:	4605      	movhi	r5, r0
  4072c2:	462a      	movhi	r2, r5
  4072c4:	055b      	lsls	r3, r3, #21
  4072c6:	d538      	bpl.n	40733a <__ssprint_r+0xba>
  4072c8:	4611      	mov	r1, r2
  4072ca:	4650      	mov	r0, sl
  4072cc:	f7fe febc 	bl	406048 <_malloc_r>
  4072d0:	2800      	cmp	r0, #0
  4072d2:	d03c      	beq.n	40734e <__ssprint_r+0xce>
  4072d4:	465a      	mov	r2, fp
  4072d6:	6921      	ldr	r1, [r4, #16]
  4072d8:	9001      	str	r0, [sp, #4]
  4072da:	f7ff f9d1 	bl	406680 <memcpy>
  4072de:	89a2      	ldrh	r2, [r4, #12]
  4072e0:	9b01      	ldr	r3, [sp, #4]
  4072e2:	f422 6290 	bic.w	r2, r2, #1152	; 0x480
  4072e6:	f042 0280 	orr.w	r2, r2, #128	; 0x80
  4072ea:	81a2      	strh	r2, [r4, #12]
  4072ec:	eba5 020b 	sub.w	r2, r5, fp
  4072f0:	eb03 000b 	add.w	r0, r3, fp
  4072f4:	6165      	str	r5, [r4, #20]
  4072f6:	6123      	str	r3, [r4, #16]
  4072f8:	6020      	str	r0, [r4, #0]
  4072fa:	60a2      	str	r2, [r4, #8]
  4072fc:	4635      	mov	r5, r6
  4072fe:	46b3      	mov	fp, r6
  407300:	465a      	mov	r2, fp
  407302:	4649      	mov	r1, r9
  407304:	f7ff fa56 	bl	4067b4 <memmove>
  407308:	f8d8 3008 	ldr.w	r3, [r8, #8]
  40730c:	68a2      	ldr	r2, [r4, #8]
  40730e:	6820      	ldr	r0, [r4, #0]
  407310:	1b55      	subs	r5, r2, r5
  407312:	4458      	add	r0, fp
  407314:	1b9e      	subs	r6, r3, r6
  407316:	60a5      	str	r5, [r4, #8]
  407318:	6020      	str	r0, [r4, #0]
  40731a:	f8c8 6008 	str.w	r6, [r8, #8]
  40731e:	b33e      	cbz	r6, 407370 <__ssprint_r+0xf0>
  407320:	687e      	ldr	r6, [r7, #4]
  407322:	463b      	mov	r3, r7
  407324:	3708      	adds	r7, #8
  407326:	2e00      	cmp	r6, #0
  407328:	d0fa      	beq.n	407320 <__ssprint_r+0xa0>
  40732a:	42ae      	cmp	r6, r5
  40732c:	f8d3 9000 	ldr.w	r9, [r3]
  407330:	46ab      	mov	fp, r5
  407332:	d2b2      	bcs.n	40729a <__ssprint_r+0x1a>
  407334:	4635      	mov	r5, r6
  407336:	46b3      	mov	fp, r6
  407338:	e7e2      	b.n	407300 <__ssprint_r+0x80>
  40733a:	4650      	mov	r0, sl
  40733c:	f7ff fda4 	bl	406e88 <_realloc_r>
  407340:	4603      	mov	r3, r0
  407342:	2800      	cmp	r0, #0
  407344:	d1d2      	bne.n	4072ec <__ssprint_r+0x6c>
  407346:	6921      	ldr	r1, [r4, #16]
  407348:	4650      	mov	r0, sl
  40734a:	f7fe fb51 	bl	4059f0 <_free_r>
  40734e:	230c      	movs	r3, #12
  407350:	f8ca 3000 	str.w	r3, [sl]
  407354:	89a3      	ldrh	r3, [r4, #12]
  407356:	2200      	movs	r2, #0
  407358:	f043 0340 	orr.w	r3, r3, #64	; 0x40
  40735c:	f04f 30ff 	mov.w	r0, #4294967295
  407360:	81a3      	strh	r3, [r4, #12]
  407362:	f8c8 2008 	str.w	r2, [r8, #8]
  407366:	f8c8 2004 	str.w	r2, [r8, #4]
  40736a:	b003      	add	sp, #12
  40736c:	e8bd 8ff0 	ldmia.w	sp!, {r4, r5, r6, r7, r8, r9, sl, fp, pc}
  407370:	2000      	movs	r0, #0
  407372:	f8c8 0004 	str.w	r0, [r8, #4]
  407376:	b003      	add	sp, #12
  407378:	e8bd 8ff0 	ldmia.w	sp!, {r4, r5, r6, r7, r8, r9, sl, fp, pc}

0040737c <__swbuf_r>:
  40737c:	b5f8      	push	{r3, r4, r5, r6, r7, lr}
  40737e:	460d      	mov	r5, r1
  407380:	4614      	mov	r4, r2
  407382:	4606      	mov	r6, r0
  407384:	b110      	cbz	r0, 40738c <__swbuf_r+0x10>
  407386:	6b83      	ldr	r3, [r0, #56]	; 0x38
  407388:	2b00      	cmp	r3, #0
  40738a:	d04b      	beq.n	407424 <__swbuf_r+0xa8>
  40738c:	f9b4 200c 	ldrsh.w	r2, [r4, #12]
  407390:	69a3      	ldr	r3, [r4, #24]
  407392:	60a3      	str	r3, [r4, #8]
  407394:	b291      	uxth	r1, r2
  407396:	0708      	lsls	r0, r1, #28
  407398:	d539      	bpl.n	40740e <__swbuf_r+0x92>
  40739a:	6923      	ldr	r3, [r4, #16]
  40739c:	2b00      	cmp	r3, #0
  40739e:	d036      	beq.n	40740e <__swbuf_r+0x92>
  4073a0:	b2ed      	uxtb	r5, r5
  4073a2:	0489      	lsls	r1, r1, #18
  4073a4:	462f      	mov	r7, r5
  4073a6:	d515      	bpl.n	4073d4 <__swbuf_r+0x58>
  4073a8:	6822      	ldr	r2, [r4, #0]
  4073aa:	6961      	ldr	r1, [r4, #20]
  4073ac:	1ad3      	subs	r3, r2, r3
  4073ae:	428b      	cmp	r3, r1
  4073b0:	da1c      	bge.n	4073ec <__swbuf_r+0x70>
  4073b2:	3301      	adds	r3, #1
  4073b4:	68a1      	ldr	r1, [r4, #8]
  4073b6:	1c50      	adds	r0, r2, #1
  4073b8:	3901      	subs	r1, #1
  4073ba:	60a1      	str	r1, [r4, #8]
  4073bc:	6020      	str	r0, [r4, #0]
  4073be:	7015      	strb	r5, [r2, #0]
  4073c0:	6962      	ldr	r2, [r4, #20]
  4073c2:	429a      	cmp	r2, r3
  4073c4:	d01a      	beq.n	4073fc <__swbuf_r+0x80>
  4073c6:	89a3      	ldrh	r3, [r4, #12]
  4073c8:	07db      	lsls	r3, r3, #31
  4073ca:	d501      	bpl.n	4073d0 <__swbuf_r+0x54>
  4073cc:	2d0a      	cmp	r5, #10
  4073ce:	d015      	beq.n	4073fc <__swbuf_r+0x80>
  4073d0:	4638      	mov	r0, r7
  4073d2:	bdf8      	pop	{r3, r4, r5, r6, r7, pc}
  4073d4:	6e61      	ldr	r1, [r4, #100]	; 0x64
  4073d6:	f442 5200 	orr.w	r2, r2, #8192	; 0x2000
  4073da:	f421 5100 	bic.w	r1, r1, #8192	; 0x2000
  4073de:	81a2      	strh	r2, [r4, #12]
  4073e0:	6822      	ldr	r2, [r4, #0]
  4073e2:	6661      	str	r1, [r4, #100]	; 0x64
  4073e4:	6961      	ldr	r1, [r4, #20]
  4073e6:	1ad3      	subs	r3, r2, r3
  4073e8:	428b      	cmp	r3, r1
  4073ea:	dbe2      	blt.n	4073b2 <__swbuf_r+0x36>
  4073ec:	4621      	mov	r1, r4
  4073ee:	4630      	mov	r0, r6
  4073f0:	f7fe f980 	bl	4056f4 <_fflush_r>
  4073f4:	b940      	cbnz	r0, 407408 <__swbuf_r+0x8c>
  4073f6:	6822      	ldr	r2, [r4, #0]
  4073f8:	2301      	movs	r3, #1
  4073fa:	e7db      	b.n	4073b4 <__swbuf_r+0x38>
  4073fc:	4621      	mov	r1, r4
  4073fe:	4630      	mov	r0, r6
  407400:	f7fe f978 	bl	4056f4 <_fflush_r>
  407404:	2800      	cmp	r0, #0
  407406:	d0e3      	beq.n	4073d0 <__swbuf_r+0x54>
  407408:	f04f 37ff 	mov.w	r7, #4294967295
  40740c:	e7e0      	b.n	4073d0 <__swbuf_r+0x54>
  40740e:	4621      	mov	r1, r4
  407410:	4630      	mov	r0, r6
  407412:	f7fd f89b 	bl	40454c <__swsetup_r>
  407416:	2800      	cmp	r0, #0
  407418:	d1f6      	bne.n	407408 <__swbuf_r+0x8c>
  40741a:	f9b4 200c 	ldrsh.w	r2, [r4, #12]
  40741e:	6923      	ldr	r3, [r4, #16]
  407420:	b291      	uxth	r1, r2
  407422:	e7bd      	b.n	4073a0 <__swbuf_r+0x24>
  407424:	f7fe f9be 	bl	4057a4 <__sinit>
  407428:	e7b0      	b.n	40738c <__swbuf_r+0x10>
  40742a:	bf00      	nop

0040742c <_wcrtomb_r>:
  40742c:	b5f0      	push	{r4, r5, r6, r7, lr}
  40742e:	4606      	mov	r6, r0
  407430:	b085      	sub	sp, #20
  407432:	461f      	mov	r7, r3
  407434:	b189      	cbz	r1, 40745a <_wcrtomb_r+0x2e>
  407436:	4c10      	ldr	r4, [pc, #64]	; (407478 <_wcrtomb_r+0x4c>)
  407438:	4d10      	ldr	r5, [pc, #64]	; (40747c <_wcrtomb_r+0x50>)
  40743a:	6824      	ldr	r4, [r4, #0]
  40743c:	6b64      	ldr	r4, [r4, #52]	; 0x34
  40743e:	2c00      	cmp	r4, #0
  407440:	bf08      	it	eq
  407442:	462c      	moveq	r4, r5
  407444:	f8d4 40e0 	ldr.w	r4, [r4, #224]	; 0xe0
  407448:	47a0      	blx	r4
  40744a:	1c43      	adds	r3, r0, #1
  40744c:	d103      	bne.n	407456 <_wcrtomb_r+0x2a>
  40744e:	2200      	movs	r2, #0
  407450:	238a      	movs	r3, #138	; 0x8a
  407452:	603a      	str	r2, [r7, #0]
  407454:	6033      	str	r3, [r6, #0]
  407456:	b005      	add	sp, #20
  407458:	bdf0      	pop	{r4, r5, r6, r7, pc}
  40745a:	460c      	mov	r4, r1
  40745c:	4906      	ldr	r1, [pc, #24]	; (407478 <_wcrtomb_r+0x4c>)
  40745e:	4a07      	ldr	r2, [pc, #28]	; (40747c <_wcrtomb_r+0x50>)
  407460:	6809      	ldr	r1, [r1, #0]
  407462:	6b49      	ldr	r1, [r1, #52]	; 0x34
  407464:	2900      	cmp	r1, #0
  407466:	bf08      	it	eq
  407468:	4611      	moveq	r1, r2
  40746a:	4622      	mov	r2, r4
  40746c:	f8d1 40e0 	ldr.w	r4, [r1, #224]	; 0xe0
  407470:	a901      	add	r1, sp, #4
  407472:	47a0      	blx	r4
  407474:	e7e9      	b.n	40744a <_wcrtomb_r+0x1e>
  407476:	bf00      	nop
  407478:	2000001c 	.word	0x2000001c
  40747c:	2000044c 	.word	0x2000044c

00407480 <__ascii_wctomb>:
  407480:	b121      	cbz	r1, 40748c <__ascii_wctomb+0xc>
  407482:	2aff      	cmp	r2, #255	; 0xff
  407484:	d804      	bhi.n	407490 <__ascii_wctomb+0x10>
  407486:	700a      	strb	r2, [r1, #0]
  407488:	2001      	movs	r0, #1
  40748a:	4770      	bx	lr
  40748c:	4608      	mov	r0, r1
  40748e:	4770      	bx	lr
  407490:	238a      	movs	r3, #138	; 0x8a
  407492:	6003      	str	r3, [r0, #0]
  407494:	f04f 30ff 	mov.w	r0, #4294967295
  407498:	4770      	bx	lr
  40749a:	bf00      	nop

0040749c <_write_r>:
  40749c:	b570      	push	{r4, r5, r6, lr}
  40749e:	460d      	mov	r5, r1
  4074a0:	4c08      	ldr	r4, [pc, #32]	; (4074c4 <_write_r+0x28>)
  4074a2:	4611      	mov	r1, r2
  4074a4:	4606      	mov	r6, r0
  4074a6:	461a      	mov	r2, r3
  4074a8:	4628      	mov	r0, r5
  4074aa:	2300      	movs	r3, #0
  4074ac:	6023      	str	r3, [r4, #0]
  4074ae:	f7f8 fe61 	bl	400174 <_write>
  4074b2:	1c43      	adds	r3, r0, #1
  4074b4:	d000      	beq.n	4074b8 <_write_r+0x1c>
  4074b6:	bd70      	pop	{r4, r5, r6, pc}
  4074b8:	6823      	ldr	r3, [r4, #0]
  4074ba:	2b00      	cmp	r3, #0
  4074bc:	d0fb      	beq.n	4074b6 <_write_r+0x1a>
  4074be:	6033      	str	r3, [r6, #0]
  4074c0:	bd70      	pop	{r4, r5, r6, pc}
  4074c2:	bf00      	nop
  4074c4:	20000ed0 	.word	0x20000ed0

004074c8 <__register_exitproc>:
  4074c8:	e92d 43f8 	stmdb	sp!, {r3, r4, r5, r6, r7, r8, r9, lr}
  4074cc:	4d2c      	ldr	r5, [pc, #176]	; (407580 <__register_exitproc+0xb8>)
  4074ce:	4606      	mov	r6, r0
  4074d0:	6828      	ldr	r0, [r5, #0]
  4074d2:	4698      	mov	r8, r3
  4074d4:	460f      	mov	r7, r1
  4074d6:	4691      	mov	r9, r2
  4074d8:	f7fe fd32 	bl	405f40 <__retarget_lock_acquire_recursive>
  4074dc:	4b29      	ldr	r3, [pc, #164]	; (407584 <__register_exitproc+0xbc>)
  4074de:	681c      	ldr	r4, [r3, #0]
  4074e0:	f8d4 3148 	ldr.w	r3, [r4, #328]	; 0x148
  4074e4:	2b00      	cmp	r3, #0
  4074e6:	d03e      	beq.n	407566 <__register_exitproc+0x9e>
  4074e8:	685a      	ldr	r2, [r3, #4]
  4074ea:	2a1f      	cmp	r2, #31
  4074ec:	dc1c      	bgt.n	407528 <__register_exitproc+0x60>
  4074ee:	f102 0e01 	add.w	lr, r2, #1
  4074f2:	b176      	cbz	r6, 407512 <__register_exitproc+0x4a>
  4074f4:	eb03 0182 	add.w	r1, r3, r2, lsl #2
  4074f8:	2401      	movs	r4, #1
  4074fa:	f8c1 9088 	str.w	r9, [r1, #136]	; 0x88
  4074fe:	f8d3 0188 	ldr.w	r0, [r3, #392]	; 0x188
  407502:	4094      	lsls	r4, r2
  407504:	4320      	orrs	r0, r4
  407506:	2e02      	cmp	r6, #2
  407508:	f8c3 0188 	str.w	r0, [r3, #392]	; 0x188
  40750c:	f8c1 8108 	str.w	r8, [r1, #264]	; 0x108
  407510:	d023      	beq.n	40755a <__register_exitproc+0x92>
  407512:	3202      	adds	r2, #2
  407514:	f8c3 e004 	str.w	lr, [r3, #4]
  407518:	6828      	ldr	r0, [r5, #0]
  40751a:	f843 7022 	str.w	r7, [r3, r2, lsl #2]
  40751e:	f7fe fd11 	bl	405f44 <__retarget_lock_release_recursive>
  407522:	2000      	movs	r0, #0
  407524:	e8bd 83f8 	ldmia.w	sp!, {r3, r4, r5, r6, r7, r8, r9, pc}
  407528:	4b17      	ldr	r3, [pc, #92]	; (407588 <__register_exitproc+0xc0>)
  40752a:	b30b      	cbz	r3, 407570 <__register_exitproc+0xa8>
  40752c:	f44f 70c8 	mov.w	r0, #400	; 0x190
  407530:	f7fe fd82 	bl	406038 <malloc>
  407534:	4603      	mov	r3, r0
  407536:	b1d8      	cbz	r0, 407570 <__register_exitproc+0xa8>
  407538:	f8d4 2148 	ldr.w	r2, [r4, #328]	; 0x148
  40753c:	6002      	str	r2, [r0, #0]
  40753e:	2100      	movs	r1, #0
  407540:	6041      	str	r1, [r0, #4]
  407542:	460a      	mov	r2, r1
  407544:	f8c4 0148 	str.w	r0, [r4, #328]	; 0x148
  407548:	f04f 0e01 	mov.w	lr, #1
  40754c:	f8c0 1188 	str.w	r1, [r0, #392]	; 0x188
  407550:	f8c0 118c 	str.w	r1, [r0, #396]	; 0x18c
  407554:	2e00      	cmp	r6, #0
  407556:	d0dc      	beq.n	407512 <__register_exitproc+0x4a>
  407558:	e7cc      	b.n	4074f4 <__register_exitproc+0x2c>
  40755a:	f8d3 118c 	ldr.w	r1, [r3, #396]	; 0x18c
  40755e:	430c      	orrs	r4, r1
  407560:	f8c3 418c 	str.w	r4, [r3, #396]	; 0x18c
  407564:	e7d5      	b.n	407512 <__register_exitproc+0x4a>
  407566:	f504 73a6 	add.w	r3, r4, #332	; 0x14c
  40756a:	f8c4 3148 	str.w	r3, [r4, #328]	; 0x148
  40756e:	e7bb      	b.n	4074e8 <__register_exitproc+0x20>
  407570:	6828      	ldr	r0, [r5, #0]
  407572:	f7fe fce7 	bl	405f44 <__retarget_lock_release_recursive>
  407576:	f04f 30ff 	mov.w	r0, #4294967295
  40757a:	e8bd 83f8 	ldmia.w	sp!, {r3, r4, r5, r6, r7, r8, r9, pc}
  40757e:	bf00      	nop
  407580:	20000448 	.word	0x20000448
  407584:	00408c78 	.word	0x00408c78
  407588:	00406039 	.word	0x00406039

0040758c <_calloc_r>:
  40758c:	b510      	push	{r4, lr}
  40758e:	fb02 f101 	mul.w	r1, r2, r1
  407592:	f7fe fd59 	bl	406048 <_malloc_r>
  407596:	4604      	mov	r4, r0
  407598:	b1d8      	cbz	r0, 4075d2 <_calloc_r+0x46>
  40759a:	f850 2c04 	ldr.w	r2, [r0, #-4]
  40759e:	f022 0203 	bic.w	r2, r2, #3
  4075a2:	3a04      	subs	r2, #4
  4075a4:	2a24      	cmp	r2, #36	; 0x24
  4075a6:	d818      	bhi.n	4075da <_calloc_r+0x4e>
  4075a8:	2a13      	cmp	r2, #19
  4075aa:	d914      	bls.n	4075d6 <_calloc_r+0x4a>
  4075ac:	2300      	movs	r3, #0
  4075ae:	2a1b      	cmp	r2, #27
  4075b0:	6003      	str	r3, [r0, #0]
  4075b2:	6043      	str	r3, [r0, #4]
  4075b4:	d916      	bls.n	4075e4 <_calloc_r+0x58>
  4075b6:	2a24      	cmp	r2, #36	; 0x24
  4075b8:	6083      	str	r3, [r0, #8]
  4075ba:	60c3      	str	r3, [r0, #12]
  4075bc:	bf11      	iteee	ne
  4075be:	f100 0210 	addne.w	r2, r0, #16
  4075c2:	6103      	streq	r3, [r0, #16]
  4075c4:	6143      	streq	r3, [r0, #20]
  4075c6:	f100 0218 	addeq.w	r2, r0, #24
  4075ca:	2300      	movs	r3, #0
  4075cc:	6013      	str	r3, [r2, #0]
  4075ce:	6053      	str	r3, [r2, #4]
  4075d0:	6093      	str	r3, [r2, #8]
  4075d2:	4620      	mov	r0, r4
  4075d4:	bd10      	pop	{r4, pc}
  4075d6:	4602      	mov	r2, r0
  4075d8:	e7f7      	b.n	4075ca <_calloc_r+0x3e>
  4075da:	2100      	movs	r1, #0
  4075dc:	f7fa fcfa 	bl	401fd4 <memset>
  4075e0:	4620      	mov	r0, r4
  4075e2:	bd10      	pop	{r4, pc}
  4075e4:	f100 0208 	add.w	r2, r0, #8
  4075e8:	e7ef      	b.n	4075ca <_calloc_r+0x3e>
  4075ea:	bf00      	nop

004075ec <_close_r>:
  4075ec:	b538      	push	{r3, r4, r5, lr}
  4075ee:	4c07      	ldr	r4, [pc, #28]	; (40760c <_close_r+0x20>)
  4075f0:	2300      	movs	r3, #0
  4075f2:	4605      	mov	r5, r0
  4075f4:	4608      	mov	r0, r1
  4075f6:	6023      	str	r3, [r4, #0]
  4075f8:	f7fa f830 	bl	40165c <_close>
  4075fc:	1c43      	adds	r3, r0, #1
  4075fe:	d000      	beq.n	407602 <_close_r+0x16>
  407600:	bd38      	pop	{r3, r4, r5, pc}
  407602:	6823      	ldr	r3, [r4, #0]
  407604:	2b00      	cmp	r3, #0
  407606:	d0fb      	beq.n	407600 <_close_r+0x14>
  407608:	602b      	str	r3, [r5, #0]
  40760a:	bd38      	pop	{r3, r4, r5, pc}
  40760c:	20000ed0 	.word	0x20000ed0

00407610 <_fclose_r>:
  407610:	b570      	push	{r4, r5, r6, lr}
  407612:	b159      	cbz	r1, 40762c <_fclose_r+0x1c>
  407614:	4605      	mov	r5, r0
  407616:	460c      	mov	r4, r1
  407618:	b110      	cbz	r0, 407620 <_fclose_r+0x10>
  40761a:	6b83      	ldr	r3, [r0, #56]	; 0x38
  40761c:	2b00      	cmp	r3, #0
  40761e:	d03c      	beq.n	40769a <_fclose_r+0x8a>
  407620:	6e63      	ldr	r3, [r4, #100]	; 0x64
  407622:	07d8      	lsls	r0, r3, #31
  407624:	d505      	bpl.n	407632 <_fclose_r+0x22>
  407626:	f9b4 300c 	ldrsh.w	r3, [r4, #12]
  40762a:	b92b      	cbnz	r3, 407638 <_fclose_r+0x28>
  40762c:	2600      	movs	r6, #0
  40762e:	4630      	mov	r0, r6
  407630:	bd70      	pop	{r4, r5, r6, pc}
  407632:	89a3      	ldrh	r3, [r4, #12]
  407634:	0599      	lsls	r1, r3, #22
  407636:	d53c      	bpl.n	4076b2 <_fclose_r+0xa2>
  407638:	4621      	mov	r1, r4
  40763a:	4628      	mov	r0, r5
  40763c:	f7fd ffba 	bl	4055b4 <__sflush_r>
  407640:	6ae3      	ldr	r3, [r4, #44]	; 0x2c
  407642:	4606      	mov	r6, r0
  407644:	b133      	cbz	r3, 407654 <_fclose_r+0x44>
  407646:	69e1      	ldr	r1, [r4, #28]
  407648:	4628      	mov	r0, r5
  40764a:	4798      	blx	r3
  40764c:	2800      	cmp	r0, #0
  40764e:	bfb8      	it	lt
  407650:	f04f 36ff 	movlt.w	r6, #4294967295
  407654:	89a3      	ldrh	r3, [r4, #12]
  407656:	061a      	lsls	r2, r3, #24
  407658:	d422      	bmi.n	4076a0 <_fclose_r+0x90>
  40765a:	6b21      	ldr	r1, [r4, #48]	; 0x30
  40765c:	b141      	cbz	r1, 407670 <_fclose_r+0x60>
  40765e:	f104 0340 	add.w	r3, r4, #64	; 0x40
  407662:	4299      	cmp	r1, r3
  407664:	d002      	beq.n	40766c <_fclose_r+0x5c>
  407666:	4628      	mov	r0, r5
  407668:	f7fe f9c2 	bl	4059f0 <_free_r>
  40766c:	2300      	movs	r3, #0
  40766e:	6323      	str	r3, [r4, #48]	; 0x30
  407670:	6c61      	ldr	r1, [r4, #68]	; 0x44
  407672:	b121      	cbz	r1, 40767e <_fclose_r+0x6e>
  407674:	4628      	mov	r0, r5
  407676:	f7fe f9bb 	bl	4059f0 <_free_r>
  40767a:	2300      	movs	r3, #0
  40767c:	6463      	str	r3, [r4, #68]	; 0x44
  40767e:	f7fe f8bd 	bl	4057fc <__sfp_lock_acquire>
  407682:	6e63      	ldr	r3, [r4, #100]	; 0x64
  407684:	2200      	movs	r2, #0
  407686:	07db      	lsls	r3, r3, #31
  407688:	81a2      	strh	r2, [r4, #12]
  40768a:	d50e      	bpl.n	4076aa <_fclose_r+0x9a>
  40768c:	6da0      	ldr	r0, [r4, #88]	; 0x58
  40768e:	f7fe fc55 	bl	405f3c <__retarget_lock_close_recursive>
  407692:	f7fe f8b9 	bl	405808 <__sfp_lock_release>
  407696:	4630      	mov	r0, r6
  407698:	bd70      	pop	{r4, r5, r6, pc}
  40769a:	f7fe f883 	bl	4057a4 <__sinit>
  40769e:	e7bf      	b.n	407620 <_fclose_r+0x10>
  4076a0:	6921      	ldr	r1, [r4, #16]
  4076a2:	4628      	mov	r0, r5
  4076a4:	f7fe f9a4 	bl	4059f0 <_free_r>
  4076a8:	e7d7      	b.n	40765a <_fclose_r+0x4a>
  4076aa:	6da0      	ldr	r0, [r4, #88]	; 0x58
  4076ac:	f7fe fc4a 	bl	405f44 <__retarget_lock_release_recursive>
  4076b0:	e7ec      	b.n	40768c <_fclose_r+0x7c>
  4076b2:	6da0      	ldr	r0, [r4, #88]	; 0x58
  4076b4:	f7fe fc44 	bl	405f40 <__retarget_lock_acquire_recursive>
  4076b8:	f9b4 300c 	ldrsh.w	r3, [r4, #12]
  4076bc:	2b00      	cmp	r3, #0
  4076be:	d1bb      	bne.n	407638 <_fclose_r+0x28>
  4076c0:	6e66      	ldr	r6, [r4, #100]	; 0x64
  4076c2:	f016 0601 	ands.w	r6, r6, #1
  4076c6:	d1b1      	bne.n	40762c <_fclose_r+0x1c>
  4076c8:	6da0      	ldr	r0, [r4, #88]	; 0x58
  4076ca:	f7fe fc3b 	bl	405f44 <__retarget_lock_release_recursive>
  4076ce:	4630      	mov	r0, r6
  4076d0:	bd70      	pop	{r4, r5, r6, pc}
  4076d2:	bf00      	nop

004076d4 <_fstat_r>:
  4076d4:	b538      	push	{r3, r4, r5, lr}
  4076d6:	460b      	mov	r3, r1
  4076d8:	4c07      	ldr	r4, [pc, #28]	; (4076f8 <_fstat_r+0x24>)
  4076da:	4605      	mov	r5, r0
  4076dc:	4611      	mov	r1, r2
  4076de:	4618      	mov	r0, r3
  4076e0:	2300      	movs	r3, #0
  4076e2:	6023      	str	r3, [r4, #0]
  4076e4:	f7f9 ffbd 	bl	401662 <_fstat>
  4076e8:	1c43      	adds	r3, r0, #1
  4076ea:	d000      	beq.n	4076ee <_fstat_r+0x1a>
  4076ec:	bd38      	pop	{r3, r4, r5, pc}
  4076ee:	6823      	ldr	r3, [r4, #0]
  4076f0:	2b00      	cmp	r3, #0
  4076f2:	d0fb      	beq.n	4076ec <_fstat_r+0x18>
  4076f4:	602b      	str	r3, [r5, #0]
  4076f6:	bd38      	pop	{r3, r4, r5, pc}
  4076f8:	20000ed0 	.word	0x20000ed0

004076fc <_isatty_r>:
  4076fc:	b538      	push	{r3, r4, r5, lr}
  4076fe:	4c07      	ldr	r4, [pc, #28]	; (40771c <_isatty_r+0x20>)
  407700:	2300      	movs	r3, #0
  407702:	4605      	mov	r5, r0
  407704:	4608      	mov	r0, r1
  407706:	6023      	str	r3, [r4, #0]
  407708:	f7f9 ffb0 	bl	40166c <_isatty>
  40770c:	1c43      	adds	r3, r0, #1
  40770e:	d000      	beq.n	407712 <_isatty_r+0x16>
  407710:	bd38      	pop	{r3, r4, r5, pc}
  407712:	6823      	ldr	r3, [r4, #0]
  407714:	2b00      	cmp	r3, #0
  407716:	d0fb      	beq.n	407710 <_isatty_r+0x14>
  407718:	602b      	str	r3, [r5, #0]
  40771a:	bd38      	pop	{r3, r4, r5, pc}
  40771c:	20000ed0 	.word	0x20000ed0

00407720 <_lseek_r>:
  407720:	b570      	push	{r4, r5, r6, lr}
  407722:	460d      	mov	r5, r1
  407724:	4c08      	ldr	r4, [pc, #32]	; (407748 <_lseek_r+0x28>)
  407726:	4611      	mov	r1, r2
  407728:	4606      	mov	r6, r0
  40772a:	461a      	mov	r2, r3
  40772c:	4628      	mov	r0, r5
  40772e:	2300      	movs	r3, #0
  407730:	6023      	str	r3, [r4, #0]
  407732:	f7f9 ff9d 	bl	401670 <_lseek>
  407736:	1c43      	adds	r3, r0, #1
  407738:	d000      	beq.n	40773c <_lseek_r+0x1c>
  40773a:	bd70      	pop	{r4, r5, r6, pc}
  40773c:	6823      	ldr	r3, [r4, #0]
  40773e:	2b00      	cmp	r3, #0
  407740:	d0fb      	beq.n	40773a <_lseek_r+0x1a>
  407742:	6033      	str	r3, [r6, #0]
  407744:	bd70      	pop	{r4, r5, r6, pc}
  407746:	bf00      	nop
  407748:	20000ed0 	.word	0x20000ed0

0040774c <_read_r>:
  40774c:	b570      	push	{r4, r5, r6, lr}
  40774e:	460d      	mov	r5, r1
  407750:	4c08      	ldr	r4, [pc, #32]	; (407774 <_read_r+0x28>)
  407752:	4611      	mov	r1, r2
  407754:	4606      	mov	r6, r0
  407756:	461a      	mov	r2, r3
  407758:	4628      	mov	r0, r5
  40775a:	2300      	movs	r3, #0
  40775c:	6023      	str	r3, [r4, #0]
  40775e:	f7f8 fceb 	bl	400138 <_read>
  407762:	1c43      	adds	r3, r0, #1
  407764:	d000      	beq.n	407768 <_read_r+0x1c>
  407766:	bd70      	pop	{r4, r5, r6, pc}
  407768:	6823      	ldr	r3, [r4, #0]
  40776a:	2b00      	cmp	r3, #0
  40776c:	d0fb      	beq.n	407766 <_read_r+0x1a>
  40776e:	6033      	str	r3, [r6, #0]
  407770:	bd70      	pop	{r4, r5, r6, pc}
  407772:	bf00      	nop
  407774:	20000ed0 	.word	0x20000ed0

00407778 <__aeabi_drsub>:
  407778:	f081 4100 	eor.w	r1, r1, #2147483648	; 0x80000000
  40777c:	e002      	b.n	407784 <__adddf3>
  40777e:	bf00      	nop

00407780 <__aeabi_dsub>:
  407780:	f083 4300 	eor.w	r3, r3, #2147483648	; 0x80000000

00407784 <__adddf3>:
  407784:	b530      	push	{r4, r5, lr}
  407786:	ea4f 0441 	mov.w	r4, r1, lsl #1
  40778a:	ea4f 0543 	mov.w	r5, r3, lsl #1
  40778e:	ea94 0f05 	teq	r4, r5
  407792:	bf08      	it	eq
  407794:	ea90 0f02 	teqeq	r0, r2
  407798:	bf1f      	itttt	ne
  40779a:	ea54 0c00 	orrsne.w	ip, r4, r0
  40779e:	ea55 0c02 	orrsne.w	ip, r5, r2
  4077a2:	ea7f 5c64 	mvnsne.w	ip, r4, asr #21
  4077a6:	ea7f 5c65 	mvnsne.w	ip, r5, asr #21
  4077aa:	f000 80e2 	beq.w	407972 <__adddf3+0x1ee>
  4077ae:	ea4f 5454 	mov.w	r4, r4, lsr #21
  4077b2:	ebd4 5555 	rsbs	r5, r4, r5, lsr #21
  4077b6:	bfb8      	it	lt
  4077b8:	426d      	neglt	r5, r5
  4077ba:	dd0c      	ble.n	4077d6 <__adddf3+0x52>
  4077bc:	442c      	add	r4, r5
  4077be:	ea80 0202 	eor.w	r2, r0, r2
  4077c2:	ea81 0303 	eor.w	r3, r1, r3
  4077c6:	ea82 0000 	eor.w	r0, r2, r0
  4077ca:	ea83 0101 	eor.w	r1, r3, r1
  4077ce:	ea80 0202 	eor.w	r2, r0, r2
  4077d2:	ea81 0303 	eor.w	r3, r1, r3
  4077d6:	2d36      	cmp	r5, #54	; 0x36
  4077d8:	bf88      	it	hi
  4077da:	bd30      	pophi	{r4, r5, pc}
  4077dc:	f011 4f00 	tst.w	r1, #2147483648	; 0x80000000
  4077e0:	ea4f 3101 	mov.w	r1, r1, lsl #12
  4077e4:	f44f 1c80 	mov.w	ip, #1048576	; 0x100000
  4077e8:	ea4c 3111 	orr.w	r1, ip, r1, lsr #12
  4077ec:	d002      	beq.n	4077f4 <__adddf3+0x70>
  4077ee:	4240      	negs	r0, r0
  4077f0:	eb61 0141 	sbc.w	r1, r1, r1, lsl #1
  4077f4:	f013 4f00 	tst.w	r3, #2147483648	; 0x80000000
  4077f8:	ea4f 3303 	mov.w	r3, r3, lsl #12
  4077fc:	ea4c 3313 	orr.w	r3, ip, r3, lsr #12
  407800:	d002      	beq.n	407808 <__adddf3+0x84>
  407802:	4252      	negs	r2, r2
  407804:	eb63 0343 	sbc.w	r3, r3, r3, lsl #1
  407808:	ea94 0f05 	teq	r4, r5
  40780c:	f000 80a7 	beq.w	40795e <__adddf3+0x1da>
  407810:	f1a4 0401 	sub.w	r4, r4, #1
  407814:	f1d5 0e20 	rsbs	lr, r5, #32
  407818:	db0d      	blt.n	407836 <__adddf3+0xb2>
  40781a:	fa02 fc0e 	lsl.w	ip, r2, lr
  40781e:	fa22 f205 	lsr.w	r2, r2, r5
  407822:	1880      	adds	r0, r0, r2
  407824:	f141 0100 	adc.w	r1, r1, #0
  407828:	fa03 f20e 	lsl.w	r2, r3, lr
  40782c:	1880      	adds	r0, r0, r2
  40782e:	fa43 f305 	asr.w	r3, r3, r5
  407832:	4159      	adcs	r1, r3
  407834:	e00e      	b.n	407854 <__adddf3+0xd0>
  407836:	f1a5 0520 	sub.w	r5, r5, #32
  40783a:	f10e 0e20 	add.w	lr, lr, #32
  40783e:	2a01      	cmp	r2, #1
  407840:	fa03 fc0e 	lsl.w	ip, r3, lr
  407844:	bf28      	it	cs
  407846:	f04c 0c02 	orrcs.w	ip, ip, #2
  40784a:	fa43 f305 	asr.w	r3, r3, r5
  40784e:	18c0      	adds	r0, r0, r3
  407850:	eb51 71e3 	adcs.w	r1, r1, r3, asr #31
  407854:	f001 4500 	and.w	r5, r1, #2147483648	; 0x80000000
  407858:	d507      	bpl.n	40786a <__adddf3+0xe6>
  40785a:	f04f 0e00 	mov.w	lr, #0
  40785e:	f1dc 0c00 	rsbs	ip, ip, #0
  407862:	eb7e 0000 	sbcs.w	r0, lr, r0
  407866:	eb6e 0101 	sbc.w	r1, lr, r1
  40786a:	f5b1 1f80 	cmp.w	r1, #1048576	; 0x100000
  40786e:	d31b      	bcc.n	4078a8 <__adddf3+0x124>
  407870:	f5b1 1f00 	cmp.w	r1, #2097152	; 0x200000
  407874:	d30c      	bcc.n	407890 <__adddf3+0x10c>
  407876:	0849      	lsrs	r1, r1, #1
  407878:	ea5f 0030 	movs.w	r0, r0, rrx
  40787c:	ea4f 0c3c 	mov.w	ip, ip, rrx
  407880:	f104 0401 	add.w	r4, r4, #1
  407884:	ea4f 5244 	mov.w	r2, r4, lsl #21
  407888:	f512 0f80 	cmn.w	r2, #4194304	; 0x400000
  40788c:	f080 809a 	bcs.w	4079c4 <__adddf3+0x240>
  407890:	f1bc 4f00 	cmp.w	ip, #2147483648	; 0x80000000
  407894:	bf08      	it	eq
  407896:	ea5f 0c50 	movseq.w	ip, r0, lsr #1
  40789a:	f150 0000 	adcs.w	r0, r0, #0
  40789e:	eb41 5104 	adc.w	r1, r1, r4, lsl #20
  4078a2:	ea41 0105 	orr.w	r1, r1, r5
  4078a6:	bd30      	pop	{r4, r5, pc}
  4078a8:	ea5f 0c4c 	movs.w	ip, ip, lsl #1
  4078ac:	4140      	adcs	r0, r0
  4078ae:	eb41 0101 	adc.w	r1, r1, r1
  4078b2:	f411 1f80 	tst.w	r1, #1048576	; 0x100000
  4078b6:	f1a4 0401 	sub.w	r4, r4, #1
  4078ba:	d1e9      	bne.n	407890 <__adddf3+0x10c>
  4078bc:	f091 0f00 	teq	r1, #0
  4078c0:	bf04      	itt	eq
  4078c2:	4601      	moveq	r1, r0
  4078c4:	2000      	moveq	r0, #0
  4078c6:	fab1 f381 	clz	r3, r1
  4078ca:	bf08      	it	eq
  4078cc:	3320      	addeq	r3, #32
  4078ce:	f1a3 030b 	sub.w	r3, r3, #11
  4078d2:	f1b3 0220 	subs.w	r2, r3, #32
  4078d6:	da0c      	bge.n	4078f2 <__adddf3+0x16e>
  4078d8:	320c      	adds	r2, #12
  4078da:	dd08      	ble.n	4078ee <__adddf3+0x16a>
  4078dc:	f102 0c14 	add.w	ip, r2, #20
  4078e0:	f1c2 020c 	rsb	r2, r2, #12
  4078e4:	fa01 f00c 	lsl.w	r0, r1, ip
  4078e8:	fa21 f102 	lsr.w	r1, r1, r2
  4078ec:	e00c      	b.n	407908 <__adddf3+0x184>
  4078ee:	f102 0214 	add.w	r2, r2, #20
  4078f2:	bfd8      	it	le
  4078f4:	f1c2 0c20 	rsble	ip, r2, #32
  4078f8:	fa01 f102 	lsl.w	r1, r1, r2
  4078fc:	fa20 fc0c 	lsr.w	ip, r0, ip
  407900:	bfdc      	itt	le
  407902:	ea41 010c 	orrle.w	r1, r1, ip
  407906:	4090      	lslle	r0, r2
  407908:	1ae4      	subs	r4, r4, r3
  40790a:	bfa2      	ittt	ge
  40790c:	eb01 5104 	addge.w	r1, r1, r4, lsl #20
  407910:	4329      	orrge	r1, r5
  407912:	bd30      	popge	{r4, r5, pc}
  407914:	ea6f 0404 	mvn.w	r4, r4
  407918:	3c1f      	subs	r4, #31
  40791a:	da1c      	bge.n	407956 <__adddf3+0x1d2>
  40791c:	340c      	adds	r4, #12
  40791e:	dc0e      	bgt.n	40793e <__adddf3+0x1ba>
  407920:	f104 0414 	add.w	r4, r4, #20
  407924:	f1c4 0220 	rsb	r2, r4, #32
  407928:	fa20 f004 	lsr.w	r0, r0, r4
  40792c:	fa01 f302 	lsl.w	r3, r1, r2
  407930:	ea40 0003 	orr.w	r0, r0, r3
  407934:	fa21 f304 	lsr.w	r3, r1, r4
  407938:	ea45 0103 	orr.w	r1, r5, r3
  40793c:	bd30      	pop	{r4, r5, pc}
  40793e:	f1c4 040c 	rsb	r4, r4, #12
  407942:	f1c4 0220 	rsb	r2, r4, #32
  407946:	fa20 f002 	lsr.w	r0, r0, r2
  40794a:	fa01 f304 	lsl.w	r3, r1, r4
  40794e:	ea40 0003 	orr.w	r0, r0, r3
  407952:	4629      	mov	r1, r5
  407954:	bd30      	pop	{r4, r5, pc}
  407956:	fa21 f004 	lsr.w	r0, r1, r4
  40795a:	4629      	mov	r1, r5
  40795c:	bd30      	pop	{r4, r5, pc}
  40795e:	f094 0f00 	teq	r4, #0
  407962:	f483 1380 	eor.w	r3, r3, #1048576	; 0x100000
  407966:	bf06      	itte	eq
  407968:	f481 1180 	eoreq.w	r1, r1, #1048576	; 0x100000
  40796c:	3401      	addeq	r4, #1
  40796e:	3d01      	subne	r5, #1
  407970:	e74e      	b.n	407810 <__adddf3+0x8c>
  407972:	ea7f 5c64 	mvns.w	ip, r4, asr #21
  407976:	bf18      	it	ne
  407978:	ea7f 5c65 	mvnsne.w	ip, r5, asr #21
  40797c:	d029      	beq.n	4079d2 <__adddf3+0x24e>
  40797e:	ea94 0f05 	teq	r4, r5
  407982:	bf08      	it	eq
  407984:	ea90 0f02 	teqeq	r0, r2
  407988:	d005      	beq.n	407996 <__adddf3+0x212>
  40798a:	ea54 0c00 	orrs.w	ip, r4, r0
  40798e:	bf04      	itt	eq
  407990:	4619      	moveq	r1, r3
  407992:	4610      	moveq	r0, r2
  407994:	bd30      	pop	{r4, r5, pc}
  407996:	ea91 0f03 	teq	r1, r3
  40799a:	bf1e      	ittt	ne
  40799c:	2100      	movne	r1, #0
  40799e:	2000      	movne	r0, #0
  4079a0:	bd30      	popne	{r4, r5, pc}
  4079a2:	ea5f 5c54 	movs.w	ip, r4, lsr #21
  4079a6:	d105      	bne.n	4079b4 <__adddf3+0x230>
  4079a8:	0040      	lsls	r0, r0, #1
  4079aa:	4149      	adcs	r1, r1
  4079ac:	bf28      	it	cs
  4079ae:	f041 4100 	orrcs.w	r1, r1, #2147483648	; 0x80000000
  4079b2:	bd30      	pop	{r4, r5, pc}
  4079b4:	f514 0480 	adds.w	r4, r4, #4194304	; 0x400000
  4079b8:	bf3c      	itt	cc
  4079ba:	f501 1180 	addcc.w	r1, r1, #1048576	; 0x100000
  4079be:	bd30      	popcc	{r4, r5, pc}
  4079c0:	f001 4500 	and.w	r5, r1, #2147483648	; 0x80000000
  4079c4:	f045 41fe 	orr.w	r1, r5, #2130706432	; 0x7f000000
  4079c8:	f441 0170 	orr.w	r1, r1, #15728640	; 0xf00000
  4079cc:	f04f 0000 	mov.w	r0, #0
  4079d0:	bd30      	pop	{r4, r5, pc}
  4079d2:	ea7f 5c64 	mvns.w	ip, r4, asr #21
  4079d6:	bf1a      	itte	ne
  4079d8:	4619      	movne	r1, r3
  4079da:	4610      	movne	r0, r2
  4079dc:	ea7f 5c65 	mvnseq.w	ip, r5, asr #21
  4079e0:	bf1c      	itt	ne
  4079e2:	460b      	movne	r3, r1
  4079e4:	4602      	movne	r2, r0
  4079e6:	ea50 3401 	orrs.w	r4, r0, r1, lsl #12
  4079ea:	bf06      	itte	eq
  4079ec:	ea52 3503 	orrseq.w	r5, r2, r3, lsl #12
  4079f0:	ea91 0f03 	teqeq	r1, r3
  4079f4:	f441 2100 	orrne.w	r1, r1, #524288	; 0x80000
  4079f8:	bd30      	pop	{r4, r5, pc}
  4079fa:	bf00      	nop

004079fc <__aeabi_ui2d>:
  4079fc:	f090 0f00 	teq	r0, #0
  407a00:	bf04      	itt	eq
  407a02:	2100      	moveq	r1, #0
  407a04:	4770      	bxeq	lr
  407a06:	b530      	push	{r4, r5, lr}
  407a08:	f44f 6480 	mov.w	r4, #1024	; 0x400
  407a0c:	f104 0432 	add.w	r4, r4, #50	; 0x32
  407a10:	f04f 0500 	mov.w	r5, #0
  407a14:	f04f 0100 	mov.w	r1, #0
  407a18:	e750      	b.n	4078bc <__adddf3+0x138>
  407a1a:	bf00      	nop

00407a1c <__aeabi_i2d>:
  407a1c:	f090 0f00 	teq	r0, #0
  407a20:	bf04      	itt	eq
  407a22:	2100      	moveq	r1, #0
  407a24:	4770      	bxeq	lr
  407a26:	b530      	push	{r4, r5, lr}
  407a28:	f44f 6480 	mov.w	r4, #1024	; 0x400
  407a2c:	f104 0432 	add.w	r4, r4, #50	; 0x32
  407a30:	f010 4500 	ands.w	r5, r0, #2147483648	; 0x80000000
  407a34:	bf48      	it	mi
  407a36:	4240      	negmi	r0, r0
  407a38:	f04f 0100 	mov.w	r1, #0
  407a3c:	e73e      	b.n	4078bc <__adddf3+0x138>
  407a3e:	bf00      	nop

00407a40 <__aeabi_f2d>:
  407a40:	0042      	lsls	r2, r0, #1
  407a42:	ea4f 01e2 	mov.w	r1, r2, asr #3
  407a46:	ea4f 0131 	mov.w	r1, r1, rrx
  407a4a:	ea4f 7002 	mov.w	r0, r2, lsl #28
  407a4e:	bf1f      	itttt	ne
  407a50:	f012 437f 	andsne.w	r3, r2, #4278190080	; 0xff000000
  407a54:	f093 4f7f 	teqne	r3, #4278190080	; 0xff000000
  407a58:	f081 5160 	eorne.w	r1, r1, #939524096	; 0x38000000
  407a5c:	4770      	bxne	lr
  407a5e:	f092 0f00 	teq	r2, #0
  407a62:	bf14      	ite	ne
  407a64:	f093 4f7f 	teqne	r3, #4278190080	; 0xff000000
  407a68:	4770      	bxeq	lr
  407a6a:	b530      	push	{r4, r5, lr}
  407a6c:	f44f 7460 	mov.w	r4, #896	; 0x380
  407a70:	f001 4500 	and.w	r5, r1, #2147483648	; 0x80000000
  407a74:	f021 4100 	bic.w	r1, r1, #2147483648	; 0x80000000
  407a78:	e720      	b.n	4078bc <__adddf3+0x138>
  407a7a:	bf00      	nop

00407a7c <__aeabi_ul2d>:
  407a7c:	ea50 0201 	orrs.w	r2, r0, r1
  407a80:	bf08      	it	eq
  407a82:	4770      	bxeq	lr
  407a84:	b530      	push	{r4, r5, lr}
  407a86:	f04f 0500 	mov.w	r5, #0
  407a8a:	e00a      	b.n	407aa2 <__aeabi_l2d+0x16>

00407a8c <__aeabi_l2d>:
  407a8c:	ea50 0201 	orrs.w	r2, r0, r1
  407a90:	bf08      	it	eq
  407a92:	4770      	bxeq	lr
  407a94:	b530      	push	{r4, r5, lr}
  407a96:	f011 4500 	ands.w	r5, r1, #2147483648	; 0x80000000
  407a9a:	d502      	bpl.n	407aa2 <__aeabi_l2d+0x16>
  407a9c:	4240      	negs	r0, r0
  407a9e:	eb61 0141 	sbc.w	r1, r1, r1, lsl #1
  407aa2:	f44f 6480 	mov.w	r4, #1024	; 0x400
  407aa6:	f104 0432 	add.w	r4, r4, #50	; 0x32
  407aaa:	ea5f 5c91 	movs.w	ip, r1, lsr #22
  407aae:	f43f aedc 	beq.w	40786a <__adddf3+0xe6>
  407ab2:	f04f 0203 	mov.w	r2, #3
  407ab6:	ea5f 0cdc 	movs.w	ip, ip, lsr #3
  407aba:	bf18      	it	ne
  407abc:	3203      	addne	r2, #3
  407abe:	ea5f 0cdc 	movs.w	ip, ip, lsr #3
  407ac2:	bf18      	it	ne
  407ac4:	3203      	addne	r2, #3
  407ac6:	eb02 02dc 	add.w	r2, r2, ip, lsr #3
  407aca:	f1c2 0320 	rsb	r3, r2, #32
  407ace:	fa00 fc03 	lsl.w	ip, r0, r3
  407ad2:	fa20 f002 	lsr.w	r0, r0, r2
  407ad6:	fa01 fe03 	lsl.w	lr, r1, r3
  407ada:	ea40 000e 	orr.w	r0, r0, lr
  407ade:	fa21 f102 	lsr.w	r1, r1, r2
  407ae2:	4414      	add	r4, r2
  407ae4:	e6c1      	b.n	40786a <__adddf3+0xe6>
  407ae6:	bf00      	nop

00407ae8 <__aeabi_dmul>:
  407ae8:	b570      	push	{r4, r5, r6, lr}
  407aea:	f04f 0cff 	mov.w	ip, #255	; 0xff
  407aee:	f44c 6ce0 	orr.w	ip, ip, #1792	; 0x700
  407af2:	ea1c 5411 	ands.w	r4, ip, r1, lsr #20
  407af6:	bf1d      	ittte	ne
  407af8:	ea1c 5513 	andsne.w	r5, ip, r3, lsr #20
  407afc:	ea94 0f0c 	teqne	r4, ip
  407b00:	ea95 0f0c 	teqne	r5, ip
  407b04:	f000 f8de 	bleq	407cc4 <__aeabi_dmul+0x1dc>
  407b08:	442c      	add	r4, r5
  407b0a:	ea81 0603 	eor.w	r6, r1, r3
  407b0e:	ea21 514c 	bic.w	r1, r1, ip, lsl #21
  407b12:	ea23 534c 	bic.w	r3, r3, ip, lsl #21
  407b16:	ea50 3501 	orrs.w	r5, r0, r1, lsl #12
  407b1a:	bf18      	it	ne
  407b1c:	ea52 3503 	orrsne.w	r5, r2, r3, lsl #12
  407b20:	f441 1180 	orr.w	r1, r1, #1048576	; 0x100000
  407b24:	f443 1380 	orr.w	r3, r3, #1048576	; 0x100000
  407b28:	d038      	beq.n	407b9c <__aeabi_dmul+0xb4>
  407b2a:	fba0 ce02 	umull	ip, lr, r0, r2
  407b2e:	f04f 0500 	mov.w	r5, #0
  407b32:	fbe1 e502 	umlal	lr, r5, r1, r2
  407b36:	f006 4200 	and.w	r2, r6, #2147483648	; 0x80000000
  407b3a:	fbe0 e503 	umlal	lr, r5, r0, r3
  407b3e:	f04f 0600 	mov.w	r6, #0
  407b42:	fbe1 5603 	umlal	r5, r6, r1, r3
  407b46:	f09c 0f00 	teq	ip, #0
  407b4a:	bf18      	it	ne
  407b4c:	f04e 0e01 	orrne.w	lr, lr, #1
  407b50:	f1a4 04ff 	sub.w	r4, r4, #255	; 0xff
  407b54:	f5b6 7f00 	cmp.w	r6, #512	; 0x200
  407b58:	f564 7440 	sbc.w	r4, r4, #768	; 0x300
  407b5c:	d204      	bcs.n	407b68 <__aeabi_dmul+0x80>
  407b5e:	ea5f 0e4e 	movs.w	lr, lr, lsl #1
  407b62:	416d      	adcs	r5, r5
  407b64:	eb46 0606 	adc.w	r6, r6, r6
  407b68:	ea42 21c6 	orr.w	r1, r2, r6, lsl #11
  407b6c:	ea41 5155 	orr.w	r1, r1, r5, lsr #21
  407b70:	ea4f 20c5 	mov.w	r0, r5, lsl #11
  407b74:	ea40 505e 	orr.w	r0, r0, lr, lsr #21
  407b78:	ea4f 2ece 	mov.w	lr, lr, lsl #11
  407b7c:	f1b4 0cfd 	subs.w	ip, r4, #253	; 0xfd
  407b80:	bf88      	it	hi
  407b82:	f5bc 6fe0 	cmphi.w	ip, #1792	; 0x700
  407b86:	d81e      	bhi.n	407bc6 <__aeabi_dmul+0xde>
  407b88:	f1be 4f00 	cmp.w	lr, #2147483648	; 0x80000000
  407b8c:	bf08      	it	eq
  407b8e:	ea5f 0e50 	movseq.w	lr, r0, lsr #1
  407b92:	f150 0000 	adcs.w	r0, r0, #0
  407b96:	eb41 5104 	adc.w	r1, r1, r4, lsl #20
  407b9a:	bd70      	pop	{r4, r5, r6, pc}
  407b9c:	f006 4600 	and.w	r6, r6, #2147483648	; 0x80000000
  407ba0:	ea46 0101 	orr.w	r1, r6, r1
  407ba4:	ea40 0002 	orr.w	r0, r0, r2
  407ba8:	ea81 0103 	eor.w	r1, r1, r3
  407bac:	ebb4 045c 	subs.w	r4, r4, ip, lsr #1
  407bb0:	bfc2      	ittt	gt
  407bb2:	ebd4 050c 	rsbsgt	r5, r4, ip
  407bb6:	ea41 5104 	orrgt.w	r1, r1, r4, lsl #20
  407bba:	bd70      	popgt	{r4, r5, r6, pc}
  407bbc:	f441 1180 	orr.w	r1, r1, #1048576	; 0x100000
  407bc0:	f04f 0e00 	mov.w	lr, #0
  407bc4:	3c01      	subs	r4, #1
  407bc6:	f300 80ab 	bgt.w	407d20 <__aeabi_dmul+0x238>
  407bca:	f114 0f36 	cmn.w	r4, #54	; 0x36
  407bce:	bfde      	ittt	le
  407bd0:	2000      	movle	r0, #0
  407bd2:	f001 4100 	andle.w	r1, r1, #2147483648	; 0x80000000
  407bd6:	bd70      	pople	{r4, r5, r6, pc}
  407bd8:	f1c4 0400 	rsb	r4, r4, #0
  407bdc:	3c20      	subs	r4, #32
  407bde:	da35      	bge.n	407c4c <__aeabi_dmul+0x164>
  407be0:	340c      	adds	r4, #12
  407be2:	dc1b      	bgt.n	407c1c <__aeabi_dmul+0x134>
  407be4:	f104 0414 	add.w	r4, r4, #20
  407be8:	f1c4 0520 	rsb	r5, r4, #32
  407bec:	fa00 f305 	lsl.w	r3, r0, r5
  407bf0:	fa20 f004 	lsr.w	r0, r0, r4
  407bf4:	fa01 f205 	lsl.w	r2, r1, r5
  407bf8:	ea40 0002 	orr.w	r0, r0, r2
  407bfc:	f001 4200 	and.w	r2, r1, #2147483648	; 0x80000000
  407c00:	f021 4100 	bic.w	r1, r1, #2147483648	; 0x80000000
  407c04:	eb10 70d3 	adds.w	r0, r0, r3, lsr #31
  407c08:	fa21 f604 	lsr.w	r6, r1, r4
  407c0c:	eb42 0106 	adc.w	r1, r2, r6
  407c10:	ea5e 0e43 	orrs.w	lr, lr, r3, lsl #1
  407c14:	bf08      	it	eq
  407c16:	ea20 70d3 	biceq.w	r0, r0, r3, lsr #31
  407c1a:	bd70      	pop	{r4, r5, r6, pc}
  407c1c:	f1c4 040c 	rsb	r4, r4, #12
  407c20:	f1c4 0520 	rsb	r5, r4, #32
  407c24:	fa00 f304 	lsl.w	r3, r0, r4
  407c28:	fa20 f005 	lsr.w	r0, r0, r5
  407c2c:	fa01 f204 	lsl.w	r2, r1, r4
  407c30:	ea40 0002 	orr.w	r0, r0, r2
  407c34:	f001 4100 	and.w	r1, r1, #2147483648	; 0x80000000
  407c38:	eb10 70d3 	adds.w	r0, r0, r3, lsr #31
  407c3c:	f141 0100 	adc.w	r1, r1, #0
  407c40:	ea5e 0e43 	orrs.w	lr, lr, r3, lsl #1
  407c44:	bf08      	it	eq
  407c46:	ea20 70d3 	biceq.w	r0, r0, r3, lsr #31
  407c4a:	bd70      	pop	{r4, r5, r6, pc}
  407c4c:	f1c4 0520 	rsb	r5, r4, #32
  407c50:	fa00 f205 	lsl.w	r2, r0, r5
  407c54:	ea4e 0e02 	orr.w	lr, lr, r2
  407c58:	fa20 f304 	lsr.w	r3, r0, r4
  407c5c:	fa01 f205 	lsl.w	r2, r1, r5
  407c60:	ea43 0302 	orr.w	r3, r3, r2
  407c64:	fa21 f004 	lsr.w	r0, r1, r4
  407c68:	f001 4100 	and.w	r1, r1, #2147483648	; 0x80000000
  407c6c:	fa21 f204 	lsr.w	r2, r1, r4
  407c70:	ea20 0002 	bic.w	r0, r0, r2
  407c74:	eb00 70d3 	add.w	r0, r0, r3, lsr #31
  407c78:	ea5e 0e43 	orrs.w	lr, lr, r3, lsl #1
  407c7c:	bf08      	it	eq
  407c7e:	ea20 70d3 	biceq.w	r0, r0, r3, lsr #31
  407c82:	bd70      	pop	{r4, r5, r6, pc}
  407c84:	f094 0f00 	teq	r4, #0
  407c88:	d10f      	bne.n	407caa <__aeabi_dmul+0x1c2>
  407c8a:	f001 4600 	and.w	r6, r1, #2147483648	; 0x80000000
  407c8e:	0040      	lsls	r0, r0, #1
  407c90:	eb41 0101 	adc.w	r1, r1, r1
  407c94:	f411 1f80 	tst.w	r1, #1048576	; 0x100000
  407c98:	bf08      	it	eq
  407c9a:	3c01      	subeq	r4, #1
  407c9c:	d0f7      	beq.n	407c8e <__aeabi_dmul+0x1a6>
  407c9e:	ea41 0106 	orr.w	r1, r1, r6
  407ca2:	f095 0f00 	teq	r5, #0
  407ca6:	bf18      	it	ne
  407ca8:	4770      	bxne	lr
  407caa:	f003 4600 	and.w	r6, r3, #2147483648	; 0x80000000
  407cae:	0052      	lsls	r2, r2, #1
  407cb0:	eb43 0303 	adc.w	r3, r3, r3
  407cb4:	f413 1f80 	tst.w	r3, #1048576	; 0x100000
  407cb8:	bf08      	it	eq
  407cba:	3d01      	subeq	r5, #1
  407cbc:	d0f7      	beq.n	407cae <__aeabi_dmul+0x1c6>
  407cbe:	ea43 0306 	orr.w	r3, r3, r6
  407cc2:	4770      	bx	lr
  407cc4:	ea94 0f0c 	teq	r4, ip
  407cc8:	ea0c 5513 	and.w	r5, ip, r3, lsr #20
  407ccc:	bf18      	it	ne
  407cce:	ea95 0f0c 	teqne	r5, ip
  407cd2:	d00c      	beq.n	407cee <__aeabi_dmul+0x206>
  407cd4:	ea50 0641 	orrs.w	r6, r0, r1, lsl #1
  407cd8:	bf18      	it	ne
  407cda:	ea52 0643 	orrsne.w	r6, r2, r3, lsl #1
  407cde:	d1d1      	bne.n	407c84 <__aeabi_dmul+0x19c>
  407ce0:	ea81 0103 	eor.w	r1, r1, r3
  407ce4:	f001 4100 	and.w	r1, r1, #2147483648	; 0x80000000
  407ce8:	f04f 0000 	mov.w	r0, #0
  407cec:	bd70      	pop	{r4, r5, r6, pc}
  407cee:	ea50 0641 	orrs.w	r6, r0, r1, lsl #1
  407cf2:	bf06      	itte	eq
  407cf4:	4610      	moveq	r0, r2
  407cf6:	4619      	moveq	r1, r3
  407cf8:	ea52 0643 	orrsne.w	r6, r2, r3, lsl #1
  407cfc:	d019      	beq.n	407d32 <__aeabi_dmul+0x24a>
  407cfe:	ea94 0f0c 	teq	r4, ip
  407d02:	d102      	bne.n	407d0a <__aeabi_dmul+0x222>
  407d04:	ea50 3601 	orrs.w	r6, r0, r1, lsl #12
  407d08:	d113      	bne.n	407d32 <__aeabi_dmul+0x24a>
  407d0a:	ea95 0f0c 	teq	r5, ip
  407d0e:	d105      	bne.n	407d1c <__aeabi_dmul+0x234>
  407d10:	ea52 3603 	orrs.w	r6, r2, r3, lsl #12
  407d14:	bf1c      	itt	ne
  407d16:	4610      	movne	r0, r2
  407d18:	4619      	movne	r1, r3
  407d1a:	d10a      	bne.n	407d32 <__aeabi_dmul+0x24a>
  407d1c:	ea81 0103 	eor.w	r1, r1, r3
  407d20:	f001 4100 	and.w	r1, r1, #2147483648	; 0x80000000
  407d24:	f041 41fe 	orr.w	r1, r1, #2130706432	; 0x7f000000
  407d28:	f441 0170 	orr.w	r1, r1, #15728640	; 0xf00000
  407d2c:	f04f 0000 	mov.w	r0, #0
  407d30:	bd70      	pop	{r4, r5, r6, pc}
  407d32:	f041 41fe 	orr.w	r1, r1, #2130706432	; 0x7f000000
  407d36:	f441 0178 	orr.w	r1, r1, #16252928	; 0xf80000
  407d3a:	bd70      	pop	{r4, r5, r6, pc}

00407d3c <__aeabi_ddiv>:
  407d3c:	b570      	push	{r4, r5, r6, lr}
  407d3e:	f04f 0cff 	mov.w	ip, #255	; 0xff
  407d42:	f44c 6ce0 	orr.w	ip, ip, #1792	; 0x700
  407d46:	ea1c 5411 	ands.w	r4, ip, r1, lsr #20
  407d4a:	bf1d      	ittte	ne
  407d4c:	ea1c 5513 	andsne.w	r5, ip, r3, lsr #20
  407d50:	ea94 0f0c 	teqne	r4, ip
  407d54:	ea95 0f0c 	teqne	r5, ip
  407d58:	f000 f8a7 	bleq	407eaa <__aeabi_ddiv+0x16e>
  407d5c:	eba4 0405 	sub.w	r4, r4, r5
  407d60:	ea81 0e03 	eor.w	lr, r1, r3
  407d64:	ea52 3503 	orrs.w	r5, r2, r3, lsl #12
  407d68:	ea4f 3101 	mov.w	r1, r1, lsl #12
  407d6c:	f000 8088 	beq.w	407e80 <__aeabi_ddiv+0x144>
  407d70:	ea4f 3303 	mov.w	r3, r3, lsl #12
  407d74:	f04f 5580 	mov.w	r5, #268435456	; 0x10000000
  407d78:	ea45 1313 	orr.w	r3, r5, r3, lsr #4
  407d7c:	ea43 6312 	orr.w	r3, r3, r2, lsr #24
  407d80:	ea4f 2202 	mov.w	r2, r2, lsl #8
  407d84:	ea45 1511 	orr.w	r5, r5, r1, lsr #4
  407d88:	ea45 6510 	orr.w	r5, r5, r0, lsr #24
  407d8c:	ea4f 2600 	mov.w	r6, r0, lsl #8
  407d90:	f00e 4100 	and.w	r1, lr, #2147483648	; 0x80000000
  407d94:	429d      	cmp	r5, r3
  407d96:	bf08      	it	eq
  407d98:	4296      	cmpeq	r6, r2
  407d9a:	f144 04fd 	adc.w	r4, r4, #253	; 0xfd
  407d9e:	f504 7440 	add.w	r4, r4, #768	; 0x300
  407da2:	d202      	bcs.n	407daa <__aeabi_ddiv+0x6e>
  407da4:	085b      	lsrs	r3, r3, #1
  407da6:	ea4f 0232 	mov.w	r2, r2, rrx
  407daa:	1ab6      	subs	r6, r6, r2
  407dac:	eb65 0503 	sbc.w	r5, r5, r3
  407db0:	085b      	lsrs	r3, r3, #1
  407db2:	ea4f 0232 	mov.w	r2, r2, rrx
  407db6:	f44f 1080 	mov.w	r0, #1048576	; 0x100000
  407dba:	f44f 2c00 	mov.w	ip, #524288	; 0x80000
  407dbe:	ebb6 0e02 	subs.w	lr, r6, r2
  407dc2:	eb75 0e03 	sbcs.w	lr, r5, r3
  407dc6:	bf22      	ittt	cs
  407dc8:	1ab6      	subcs	r6, r6, r2
  407dca:	4675      	movcs	r5, lr
  407dcc:	ea40 000c 	orrcs.w	r0, r0, ip
  407dd0:	085b      	lsrs	r3, r3, #1
  407dd2:	ea4f 0232 	mov.w	r2, r2, rrx
  407dd6:	ebb6 0e02 	subs.w	lr, r6, r2
  407dda:	eb75 0e03 	sbcs.w	lr, r5, r3
  407dde:	bf22      	ittt	cs
  407de0:	1ab6      	subcs	r6, r6, r2
  407de2:	4675      	movcs	r5, lr
  407de4:	ea40 005c 	orrcs.w	r0, r0, ip, lsr #1
  407de8:	085b      	lsrs	r3, r3, #1
  407dea:	ea4f 0232 	mov.w	r2, r2, rrx
  407dee:	ebb6 0e02 	subs.w	lr, r6, r2
  407df2:	eb75 0e03 	sbcs.w	lr, r5, r3
  407df6:	bf22      	ittt	cs
  407df8:	1ab6      	subcs	r6, r6, r2
  407dfa:	4675      	movcs	r5, lr
  407dfc:	ea40 009c 	orrcs.w	r0, r0, ip, lsr #2
  407e00:	085b      	lsrs	r3, r3, #1
  407e02:	ea4f 0232 	mov.w	r2, r2, rrx
  407e06:	ebb6 0e02 	subs.w	lr, r6, r2
  407e0a:	eb75 0e03 	sbcs.w	lr, r5, r3
  407e0e:	bf22      	ittt	cs
  407e10:	1ab6      	subcs	r6, r6, r2
  407e12:	4675      	movcs	r5, lr
  407e14:	ea40 00dc 	orrcs.w	r0, r0, ip, lsr #3
  407e18:	ea55 0e06 	orrs.w	lr, r5, r6
  407e1c:	d018      	beq.n	407e50 <__aeabi_ddiv+0x114>
  407e1e:	ea4f 1505 	mov.w	r5, r5, lsl #4
  407e22:	ea45 7516 	orr.w	r5, r5, r6, lsr #28
  407e26:	ea4f 1606 	mov.w	r6, r6, lsl #4
  407e2a:	ea4f 03c3 	mov.w	r3, r3, lsl #3
  407e2e:	ea43 7352 	orr.w	r3, r3, r2, lsr #29
  407e32:	ea4f 02c2 	mov.w	r2, r2, lsl #3
  407e36:	ea5f 1c1c 	movs.w	ip, ip, lsr #4
  407e3a:	d1c0      	bne.n	407dbe <__aeabi_ddiv+0x82>
  407e3c:	f411 1f80 	tst.w	r1, #1048576	; 0x100000
  407e40:	d10b      	bne.n	407e5a <__aeabi_ddiv+0x11e>
  407e42:	ea41 0100 	orr.w	r1, r1, r0
  407e46:	f04f 0000 	mov.w	r0, #0
  407e4a:	f04f 4c00 	mov.w	ip, #2147483648	; 0x80000000
  407e4e:	e7b6      	b.n	407dbe <__aeabi_ddiv+0x82>
  407e50:	f411 1f80 	tst.w	r1, #1048576	; 0x100000
  407e54:	bf04      	itt	eq
  407e56:	4301      	orreq	r1, r0
  407e58:	2000      	moveq	r0, #0
  407e5a:	f1b4 0cfd 	subs.w	ip, r4, #253	; 0xfd
  407e5e:	bf88      	it	hi
  407e60:	f5bc 6fe0 	cmphi.w	ip, #1792	; 0x700
  407e64:	f63f aeaf 	bhi.w	407bc6 <__aeabi_dmul+0xde>
  407e68:	ebb5 0c03 	subs.w	ip, r5, r3
  407e6c:	bf04      	itt	eq
  407e6e:	ebb6 0c02 	subseq.w	ip, r6, r2
  407e72:	ea5f 0c50 	movseq.w	ip, r0, lsr #1
  407e76:	f150 0000 	adcs.w	r0, r0, #0
  407e7a:	eb41 5104 	adc.w	r1, r1, r4, lsl #20
  407e7e:	bd70      	pop	{r4, r5, r6, pc}
  407e80:	f00e 4e00 	and.w	lr, lr, #2147483648	; 0x80000000
  407e84:	ea4e 3111 	orr.w	r1, lr, r1, lsr #12
  407e88:	eb14 045c 	adds.w	r4, r4, ip, lsr #1
  407e8c:	bfc2      	ittt	gt
  407e8e:	ebd4 050c 	rsbsgt	r5, r4, ip
  407e92:	ea41 5104 	orrgt.w	r1, r1, r4, lsl #20
  407e96:	bd70      	popgt	{r4, r5, r6, pc}
  407e98:	f441 1180 	orr.w	r1, r1, #1048576	; 0x100000
  407e9c:	f04f 0e00 	mov.w	lr, #0
  407ea0:	3c01      	subs	r4, #1
  407ea2:	e690      	b.n	407bc6 <__aeabi_dmul+0xde>
  407ea4:	ea45 0e06 	orr.w	lr, r5, r6
  407ea8:	e68d      	b.n	407bc6 <__aeabi_dmul+0xde>
  407eaa:	ea0c 5513 	and.w	r5, ip, r3, lsr #20
  407eae:	ea94 0f0c 	teq	r4, ip
  407eb2:	bf08      	it	eq
  407eb4:	ea95 0f0c 	teqeq	r5, ip
  407eb8:	f43f af3b 	beq.w	407d32 <__aeabi_dmul+0x24a>
  407ebc:	ea94 0f0c 	teq	r4, ip
  407ec0:	d10a      	bne.n	407ed8 <__aeabi_ddiv+0x19c>
  407ec2:	ea50 3401 	orrs.w	r4, r0, r1, lsl #12
  407ec6:	f47f af34 	bne.w	407d32 <__aeabi_dmul+0x24a>
  407eca:	ea95 0f0c 	teq	r5, ip
  407ece:	f47f af25 	bne.w	407d1c <__aeabi_dmul+0x234>
  407ed2:	4610      	mov	r0, r2
  407ed4:	4619      	mov	r1, r3
  407ed6:	e72c      	b.n	407d32 <__aeabi_dmul+0x24a>
  407ed8:	ea95 0f0c 	teq	r5, ip
  407edc:	d106      	bne.n	407eec <__aeabi_ddiv+0x1b0>
  407ede:	ea52 3503 	orrs.w	r5, r2, r3, lsl #12
  407ee2:	f43f aefd 	beq.w	407ce0 <__aeabi_dmul+0x1f8>
  407ee6:	4610      	mov	r0, r2
  407ee8:	4619      	mov	r1, r3
  407eea:	e722      	b.n	407d32 <__aeabi_dmul+0x24a>
  407eec:	ea50 0641 	orrs.w	r6, r0, r1, lsl #1
  407ef0:	bf18      	it	ne
  407ef2:	ea52 0643 	orrsne.w	r6, r2, r3, lsl #1
  407ef6:	f47f aec5 	bne.w	407c84 <__aeabi_dmul+0x19c>
  407efa:	ea50 0441 	orrs.w	r4, r0, r1, lsl #1
  407efe:	f47f af0d 	bne.w	407d1c <__aeabi_dmul+0x234>
  407f02:	ea52 0543 	orrs.w	r5, r2, r3, lsl #1
  407f06:	f47f aeeb 	bne.w	407ce0 <__aeabi_dmul+0x1f8>
  407f0a:	e712      	b.n	407d32 <__aeabi_dmul+0x24a>

00407f0c <__gedf2>:
  407f0c:	f04f 3cff 	mov.w	ip, #4294967295
  407f10:	e006      	b.n	407f20 <__cmpdf2+0x4>
  407f12:	bf00      	nop

00407f14 <__ledf2>:
  407f14:	f04f 0c01 	mov.w	ip, #1
  407f18:	e002      	b.n	407f20 <__cmpdf2+0x4>
  407f1a:	bf00      	nop

00407f1c <__cmpdf2>:
  407f1c:	f04f 0c01 	mov.w	ip, #1
  407f20:	f84d cd04 	str.w	ip, [sp, #-4]!
  407f24:	ea4f 0c41 	mov.w	ip, r1, lsl #1
  407f28:	ea7f 5c6c 	mvns.w	ip, ip, asr #21
  407f2c:	ea4f 0c43 	mov.w	ip, r3, lsl #1
  407f30:	bf18      	it	ne
  407f32:	ea7f 5c6c 	mvnsne.w	ip, ip, asr #21
  407f36:	d01b      	beq.n	407f70 <__cmpdf2+0x54>
  407f38:	b001      	add	sp, #4
  407f3a:	ea50 0c41 	orrs.w	ip, r0, r1, lsl #1
  407f3e:	bf0c      	ite	eq
  407f40:	ea52 0c43 	orrseq.w	ip, r2, r3, lsl #1
  407f44:	ea91 0f03 	teqne	r1, r3
  407f48:	bf02      	ittt	eq
  407f4a:	ea90 0f02 	teqeq	r0, r2
  407f4e:	2000      	moveq	r0, #0
  407f50:	4770      	bxeq	lr
  407f52:	f110 0f00 	cmn.w	r0, #0
  407f56:	ea91 0f03 	teq	r1, r3
  407f5a:	bf58      	it	pl
  407f5c:	4299      	cmppl	r1, r3
  407f5e:	bf08      	it	eq
  407f60:	4290      	cmpeq	r0, r2
  407f62:	bf2c      	ite	cs
  407f64:	17d8      	asrcs	r0, r3, #31
  407f66:	ea6f 70e3 	mvncc.w	r0, r3, asr #31
  407f6a:	f040 0001 	orr.w	r0, r0, #1
  407f6e:	4770      	bx	lr
  407f70:	ea4f 0c41 	mov.w	ip, r1, lsl #1
  407f74:	ea7f 5c6c 	mvns.w	ip, ip, asr #21
  407f78:	d102      	bne.n	407f80 <__cmpdf2+0x64>
  407f7a:	ea50 3c01 	orrs.w	ip, r0, r1, lsl #12
  407f7e:	d107      	bne.n	407f90 <__cmpdf2+0x74>
  407f80:	ea4f 0c43 	mov.w	ip, r3, lsl #1
  407f84:	ea7f 5c6c 	mvns.w	ip, ip, asr #21
  407f88:	d1d6      	bne.n	407f38 <__cmpdf2+0x1c>
  407f8a:	ea52 3c03 	orrs.w	ip, r2, r3, lsl #12
  407f8e:	d0d3      	beq.n	407f38 <__cmpdf2+0x1c>
  407f90:	f85d 0b04 	ldr.w	r0, [sp], #4
  407f94:	4770      	bx	lr
  407f96:	bf00      	nop

00407f98 <__aeabi_cdrcmple>:
  407f98:	4684      	mov	ip, r0
  407f9a:	4610      	mov	r0, r2
  407f9c:	4662      	mov	r2, ip
  407f9e:	468c      	mov	ip, r1
  407fa0:	4619      	mov	r1, r3
  407fa2:	4663      	mov	r3, ip
  407fa4:	e000      	b.n	407fa8 <__aeabi_cdcmpeq>
  407fa6:	bf00      	nop

00407fa8 <__aeabi_cdcmpeq>:
  407fa8:	b501      	push	{r0, lr}
  407faa:	f7ff ffb7 	bl	407f1c <__cmpdf2>
  407fae:	2800      	cmp	r0, #0
  407fb0:	bf48      	it	mi
  407fb2:	f110 0f00 	cmnmi.w	r0, #0
  407fb6:	bd01      	pop	{r0, pc}

00407fb8 <__aeabi_dcmpeq>:
  407fb8:	f84d ed08 	str.w	lr, [sp, #-8]!
  407fbc:	f7ff fff4 	bl	407fa8 <__aeabi_cdcmpeq>
  407fc0:	bf0c      	ite	eq
  407fc2:	2001      	moveq	r0, #1
  407fc4:	2000      	movne	r0, #0
  407fc6:	f85d fb08 	ldr.w	pc, [sp], #8
  407fca:	bf00      	nop

00407fcc <__aeabi_dcmplt>:
  407fcc:	f84d ed08 	str.w	lr, [sp, #-8]!
  407fd0:	f7ff ffea 	bl	407fa8 <__aeabi_cdcmpeq>
  407fd4:	bf34      	ite	cc
  407fd6:	2001      	movcc	r0, #1
  407fd8:	2000      	movcs	r0, #0
  407fda:	f85d fb08 	ldr.w	pc, [sp], #8
  407fde:	bf00      	nop

00407fe0 <__aeabi_dcmple>:
  407fe0:	f84d ed08 	str.w	lr, [sp, #-8]!
  407fe4:	f7ff ffe0 	bl	407fa8 <__aeabi_cdcmpeq>
  407fe8:	bf94      	ite	ls
  407fea:	2001      	movls	r0, #1
  407fec:	2000      	movhi	r0, #0
  407fee:	f85d fb08 	ldr.w	pc, [sp], #8
  407ff2:	bf00      	nop

00407ff4 <__aeabi_dcmpge>:
  407ff4:	f84d ed08 	str.w	lr, [sp, #-8]!
  407ff8:	f7ff ffce 	bl	407f98 <__aeabi_cdrcmple>
  407ffc:	bf94      	ite	ls
  407ffe:	2001      	movls	r0, #1
  408000:	2000      	movhi	r0, #0
  408002:	f85d fb08 	ldr.w	pc, [sp], #8
  408006:	bf00      	nop

00408008 <__aeabi_dcmpgt>:
  408008:	f84d ed08 	str.w	lr, [sp, #-8]!
  40800c:	f7ff ffc4 	bl	407f98 <__aeabi_cdrcmple>
  408010:	bf34      	ite	cc
  408012:	2001      	movcc	r0, #1
  408014:	2000      	movcs	r0, #0
  408016:	f85d fb08 	ldr.w	pc, [sp], #8
  40801a:	bf00      	nop

0040801c <__aeabi_dcmpun>:
  40801c:	ea4f 0c41 	mov.w	ip, r1, lsl #1
  408020:	ea7f 5c6c 	mvns.w	ip, ip, asr #21
  408024:	d102      	bne.n	40802c <__aeabi_dcmpun+0x10>
  408026:	ea50 3c01 	orrs.w	ip, r0, r1, lsl #12
  40802a:	d10a      	bne.n	408042 <__aeabi_dcmpun+0x26>
  40802c:	ea4f 0c43 	mov.w	ip, r3, lsl #1
  408030:	ea7f 5c6c 	mvns.w	ip, ip, asr #21
  408034:	d102      	bne.n	40803c <__aeabi_dcmpun+0x20>
  408036:	ea52 3c03 	orrs.w	ip, r2, r3, lsl #12
  40803a:	d102      	bne.n	408042 <__aeabi_dcmpun+0x26>
  40803c:	f04f 0000 	mov.w	r0, #0
  408040:	4770      	bx	lr
  408042:	f04f 0001 	mov.w	r0, #1
  408046:	4770      	bx	lr

00408048 <__aeabi_d2iz>:
  408048:	ea4f 0241 	mov.w	r2, r1, lsl #1
  40804c:	f512 1200 	adds.w	r2, r2, #2097152	; 0x200000
  408050:	d215      	bcs.n	40807e <__aeabi_d2iz+0x36>
  408052:	d511      	bpl.n	408078 <__aeabi_d2iz+0x30>
  408054:	f46f 7378 	mvn.w	r3, #992	; 0x3e0
  408058:	ebb3 5262 	subs.w	r2, r3, r2, asr #21
  40805c:	d912      	bls.n	408084 <__aeabi_d2iz+0x3c>
  40805e:	ea4f 23c1 	mov.w	r3, r1, lsl #11
  408062:	f043 4300 	orr.w	r3, r3, #2147483648	; 0x80000000
  408066:	ea43 5350 	orr.w	r3, r3, r0, lsr #21
  40806a:	f011 4f00 	tst.w	r1, #2147483648	; 0x80000000
  40806e:	fa23 f002 	lsr.w	r0, r3, r2
  408072:	bf18      	it	ne
  408074:	4240      	negne	r0, r0
  408076:	4770      	bx	lr
  408078:	f04f 0000 	mov.w	r0, #0
  40807c:	4770      	bx	lr
  40807e:	ea50 3001 	orrs.w	r0, r0, r1, lsl #12
  408082:	d105      	bne.n	408090 <__aeabi_d2iz+0x48>
  408084:	f011 4000 	ands.w	r0, r1, #2147483648	; 0x80000000
  408088:	bf08      	it	eq
  40808a:	f06f 4000 	mvneq.w	r0, #2147483648	; 0x80000000
  40808e:	4770      	bx	lr
  408090:	f04f 0000 	mov.w	r0, #0
  408094:	4770      	bx	lr
  408096:	bf00      	nop

00408098 <__aeabi_uldivmod>:
  408098:	b953      	cbnz	r3, 4080b0 <__aeabi_uldivmod+0x18>
  40809a:	b94a      	cbnz	r2, 4080b0 <__aeabi_uldivmod+0x18>
  40809c:	2900      	cmp	r1, #0
  40809e:	bf08      	it	eq
  4080a0:	2800      	cmpeq	r0, #0
  4080a2:	bf1c      	itt	ne
  4080a4:	f04f 31ff 	movne.w	r1, #4294967295
  4080a8:	f04f 30ff 	movne.w	r0, #4294967295
  4080ac:	f000 b97a 	b.w	4083a4 <__aeabi_idiv0>
  4080b0:	f1ad 0c08 	sub.w	ip, sp, #8
  4080b4:	e96d ce04 	strd	ip, lr, [sp, #-16]!
  4080b8:	f000 f806 	bl	4080c8 <__udivmoddi4>
  4080bc:	f8dd e004 	ldr.w	lr, [sp, #4]
  4080c0:	e9dd 2302 	ldrd	r2, r3, [sp, #8]
  4080c4:	b004      	add	sp, #16
  4080c6:	4770      	bx	lr

004080c8 <__udivmoddi4>:
  4080c8:	e92d 47f0 	stmdb	sp!, {r4, r5, r6, r7, r8, r9, sl, lr}
  4080cc:	468c      	mov	ip, r1
  4080ce:	460d      	mov	r5, r1
  4080d0:	4604      	mov	r4, r0
  4080d2:	9e08      	ldr	r6, [sp, #32]
  4080d4:	2b00      	cmp	r3, #0
  4080d6:	d151      	bne.n	40817c <__udivmoddi4+0xb4>
  4080d8:	428a      	cmp	r2, r1
  4080da:	4617      	mov	r7, r2
  4080dc:	d96d      	bls.n	4081ba <__udivmoddi4+0xf2>
  4080de:	fab2 fe82 	clz	lr, r2
  4080e2:	f1be 0f00 	cmp.w	lr, #0
  4080e6:	d00b      	beq.n	408100 <__udivmoddi4+0x38>
  4080e8:	f1ce 0c20 	rsb	ip, lr, #32
  4080ec:	fa01 f50e 	lsl.w	r5, r1, lr
  4080f0:	fa20 fc0c 	lsr.w	ip, r0, ip
  4080f4:	fa02 f70e 	lsl.w	r7, r2, lr
  4080f8:	ea4c 0c05 	orr.w	ip, ip, r5
  4080fc:	fa00 f40e 	lsl.w	r4, r0, lr
  408100:	ea4f 4a17 	mov.w	sl, r7, lsr #16
  408104:	0c25      	lsrs	r5, r4, #16
  408106:	fbbc f8fa 	udiv	r8, ip, sl
  40810a:	fa1f f987 	uxth.w	r9, r7
  40810e:	fb0a cc18 	mls	ip, sl, r8, ip
  408112:	ea45 450c 	orr.w	r5, r5, ip, lsl #16
  408116:	fb08 f309 	mul.w	r3, r8, r9
  40811a:	42ab      	cmp	r3, r5
  40811c:	d90a      	bls.n	408134 <__udivmoddi4+0x6c>
  40811e:	19ed      	adds	r5, r5, r7
  408120:	f108 32ff 	add.w	r2, r8, #4294967295
  408124:	f080 8123 	bcs.w	40836e <__udivmoddi4+0x2a6>
  408128:	42ab      	cmp	r3, r5
  40812a:	f240 8120 	bls.w	40836e <__udivmoddi4+0x2a6>
  40812e:	f1a8 0802 	sub.w	r8, r8, #2
  408132:	443d      	add	r5, r7
  408134:	1aed      	subs	r5, r5, r3
  408136:	b2a4      	uxth	r4, r4
  408138:	fbb5 f0fa 	udiv	r0, r5, sl
  40813c:	fb0a 5510 	mls	r5, sl, r0, r5
  408140:	ea44 4405 	orr.w	r4, r4, r5, lsl #16
  408144:	fb00 f909 	mul.w	r9, r0, r9
  408148:	45a1      	cmp	r9, r4
  40814a:	d909      	bls.n	408160 <__udivmoddi4+0x98>
  40814c:	19e4      	adds	r4, r4, r7
  40814e:	f100 33ff 	add.w	r3, r0, #4294967295
  408152:	f080 810a 	bcs.w	40836a <__udivmoddi4+0x2a2>
  408156:	45a1      	cmp	r9, r4
  408158:	f240 8107 	bls.w	40836a <__udivmoddi4+0x2a2>
  40815c:	3802      	subs	r0, #2
  40815e:	443c      	add	r4, r7
  408160:	eba4 0409 	sub.w	r4, r4, r9
  408164:	ea40 4008 	orr.w	r0, r0, r8, lsl #16
  408168:	2100      	movs	r1, #0
  40816a:	2e00      	cmp	r6, #0
  40816c:	d061      	beq.n	408232 <__udivmoddi4+0x16a>
  40816e:	fa24 f40e 	lsr.w	r4, r4, lr
  408172:	2300      	movs	r3, #0
  408174:	6034      	str	r4, [r6, #0]
  408176:	6073      	str	r3, [r6, #4]
  408178:	e8bd 87f0 	ldmia.w	sp!, {r4, r5, r6, r7, r8, r9, sl, pc}
  40817c:	428b      	cmp	r3, r1
  40817e:	d907      	bls.n	408190 <__udivmoddi4+0xc8>
  408180:	2e00      	cmp	r6, #0
  408182:	d054      	beq.n	40822e <__udivmoddi4+0x166>
  408184:	2100      	movs	r1, #0
  408186:	e886 0021 	stmia.w	r6, {r0, r5}
  40818a:	4608      	mov	r0, r1
  40818c:	e8bd 87f0 	ldmia.w	sp!, {r4, r5, r6, r7, r8, r9, sl, pc}
  408190:	fab3 f183 	clz	r1, r3
  408194:	2900      	cmp	r1, #0
  408196:	f040 808e 	bne.w	4082b6 <__udivmoddi4+0x1ee>
  40819a:	42ab      	cmp	r3, r5
  40819c:	d302      	bcc.n	4081a4 <__udivmoddi4+0xdc>
  40819e:	4282      	cmp	r2, r0
  4081a0:	f200 80fa 	bhi.w	408398 <__udivmoddi4+0x2d0>
  4081a4:	1a84      	subs	r4, r0, r2
  4081a6:	eb65 0503 	sbc.w	r5, r5, r3
  4081aa:	2001      	movs	r0, #1
  4081ac:	46ac      	mov	ip, r5
  4081ae:	2e00      	cmp	r6, #0
  4081b0:	d03f      	beq.n	408232 <__udivmoddi4+0x16a>
  4081b2:	e886 1010 	stmia.w	r6, {r4, ip}
  4081b6:	e8bd 87f0 	ldmia.w	sp!, {r4, r5, r6, r7, r8, r9, sl, pc}
  4081ba:	b912      	cbnz	r2, 4081c2 <__udivmoddi4+0xfa>
  4081bc:	2701      	movs	r7, #1
  4081be:	fbb7 f7f2 	udiv	r7, r7, r2
  4081c2:	fab7 fe87 	clz	lr, r7
  4081c6:	f1be 0f00 	cmp.w	lr, #0
  4081ca:	d134      	bne.n	408236 <__udivmoddi4+0x16e>
  4081cc:	1beb      	subs	r3, r5, r7
  4081ce:	0c3a      	lsrs	r2, r7, #16
  4081d0:	fa1f fc87 	uxth.w	ip, r7
  4081d4:	2101      	movs	r1, #1
  4081d6:	fbb3 f8f2 	udiv	r8, r3, r2
  4081da:	0c25      	lsrs	r5, r4, #16
  4081dc:	fb02 3318 	mls	r3, r2, r8, r3
  4081e0:	ea45 4503 	orr.w	r5, r5, r3, lsl #16
  4081e4:	fb0c f308 	mul.w	r3, ip, r8
  4081e8:	42ab      	cmp	r3, r5
  4081ea:	d907      	bls.n	4081fc <__udivmoddi4+0x134>
  4081ec:	19ed      	adds	r5, r5, r7
  4081ee:	f108 30ff 	add.w	r0, r8, #4294967295
  4081f2:	d202      	bcs.n	4081fa <__udivmoddi4+0x132>
  4081f4:	42ab      	cmp	r3, r5
  4081f6:	f200 80d1 	bhi.w	40839c <__udivmoddi4+0x2d4>
  4081fa:	4680      	mov	r8, r0
  4081fc:	1aed      	subs	r5, r5, r3
  4081fe:	b2a3      	uxth	r3, r4
  408200:	fbb5 f0f2 	udiv	r0, r5, r2
  408204:	fb02 5510 	mls	r5, r2, r0, r5
  408208:	ea43 4405 	orr.w	r4, r3, r5, lsl #16
  40820c:	fb0c fc00 	mul.w	ip, ip, r0
  408210:	45a4      	cmp	ip, r4
  408212:	d907      	bls.n	408224 <__udivmoddi4+0x15c>
  408214:	19e4      	adds	r4, r4, r7
  408216:	f100 33ff 	add.w	r3, r0, #4294967295
  40821a:	d202      	bcs.n	408222 <__udivmoddi4+0x15a>
  40821c:	45a4      	cmp	ip, r4
  40821e:	f200 80b8 	bhi.w	408392 <__udivmoddi4+0x2ca>
  408222:	4618      	mov	r0, r3
  408224:	eba4 040c 	sub.w	r4, r4, ip
  408228:	ea40 4008 	orr.w	r0, r0, r8, lsl #16
  40822c:	e79d      	b.n	40816a <__udivmoddi4+0xa2>
  40822e:	4631      	mov	r1, r6
  408230:	4630      	mov	r0, r6
  408232:	e8bd 87f0 	ldmia.w	sp!, {r4, r5, r6, r7, r8, r9, sl, pc}
  408236:	f1ce 0420 	rsb	r4, lr, #32
  40823a:	fa05 f30e 	lsl.w	r3, r5, lr
  40823e:	fa07 f70e 	lsl.w	r7, r7, lr
  408242:	fa20 f804 	lsr.w	r8, r0, r4
  408246:	0c3a      	lsrs	r2, r7, #16
  408248:	fa25 f404 	lsr.w	r4, r5, r4
  40824c:	ea48 0803 	orr.w	r8, r8, r3
  408250:	fbb4 f1f2 	udiv	r1, r4, r2
  408254:	ea4f 4518 	mov.w	r5, r8, lsr #16
  408258:	fb02 4411 	mls	r4, r2, r1, r4
  40825c:	fa1f fc87 	uxth.w	ip, r7
  408260:	ea45 4504 	orr.w	r5, r5, r4, lsl #16
  408264:	fb01 f30c 	mul.w	r3, r1, ip
  408268:	42ab      	cmp	r3, r5
  40826a:	fa00 f40e 	lsl.w	r4, r0, lr
  40826e:	d909      	bls.n	408284 <__udivmoddi4+0x1bc>
  408270:	19ed      	adds	r5, r5, r7
  408272:	f101 30ff 	add.w	r0, r1, #4294967295
  408276:	f080 808a 	bcs.w	40838e <__udivmoddi4+0x2c6>
  40827a:	42ab      	cmp	r3, r5
  40827c:	f240 8087 	bls.w	40838e <__udivmoddi4+0x2c6>
  408280:	3902      	subs	r1, #2
  408282:	443d      	add	r5, r7
  408284:	1aeb      	subs	r3, r5, r3
  408286:	fa1f f588 	uxth.w	r5, r8
  40828a:	fbb3 f0f2 	udiv	r0, r3, r2
  40828e:	fb02 3310 	mls	r3, r2, r0, r3
  408292:	ea45 4503 	orr.w	r5, r5, r3, lsl #16
  408296:	fb00 f30c 	mul.w	r3, r0, ip
  40829a:	42ab      	cmp	r3, r5
  40829c:	d907      	bls.n	4082ae <__udivmoddi4+0x1e6>
  40829e:	19ed      	adds	r5, r5, r7
  4082a0:	f100 38ff 	add.w	r8, r0, #4294967295
  4082a4:	d26f      	bcs.n	408386 <__udivmoddi4+0x2be>
  4082a6:	42ab      	cmp	r3, r5
  4082a8:	d96d      	bls.n	408386 <__udivmoddi4+0x2be>
  4082aa:	3802      	subs	r0, #2
  4082ac:	443d      	add	r5, r7
  4082ae:	1aeb      	subs	r3, r5, r3
  4082b0:	ea40 4101 	orr.w	r1, r0, r1, lsl #16
  4082b4:	e78f      	b.n	4081d6 <__udivmoddi4+0x10e>
  4082b6:	f1c1 0720 	rsb	r7, r1, #32
  4082ba:	fa22 f807 	lsr.w	r8, r2, r7
  4082be:	408b      	lsls	r3, r1
  4082c0:	fa05 f401 	lsl.w	r4, r5, r1
  4082c4:	ea48 0303 	orr.w	r3, r8, r3
  4082c8:	fa20 fe07 	lsr.w	lr, r0, r7
  4082cc:	ea4f 4c13 	mov.w	ip, r3, lsr #16
  4082d0:	40fd      	lsrs	r5, r7
  4082d2:	ea4e 0e04 	orr.w	lr, lr, r4
  4082d6:	fbb5 f9fc 	udiv	r9, r5, ip
  4082da:	ea4f 441e 	mov.w	r4, lr, lsr #16
  4082de:	fb0c 5519 	mls	r5, ip, r9, r5
  4082e2:	fa1f f883 	uxth.w	r8, r3
  4082e6:	ea44 4505 	orr.w	r5, r4, r5, lsl #16
  4082ea:	fb09 f408 	mul.w	r4, r9, r8
  4082ee:	42ac      	cmp	r4, r5
  4082f0:	fa02 f201 	lsl.w	r2, r2, r1
  4082f4:	fa00 fa01 	lsl.w	sl, r0, r1
  4082f8:	d908      	bls.n	40830c <__udivmoddi4+0x244>
  4082fa:	18ed      	adds	r5, r5, r3
  4082fc:	f109 30ff 	add.w	r0, r9, #4294967295
  408300:	d243      	bcs.n	40838a <__udivmoddi4+0x2c2>
  408302:	42ac      	cmp	r4, r5
  408304:	d941      	bls.n	40838a <__udivmoddi4+0x2c2>
  408306:	f1a9 0902 	sub.w	r9, r9, #2
  40830a:	441d      	add	r5, r3
  40830c:	1b2d      	subs	r5, r5, r4
  40830e:	fa1f fe8e 	uxth.w	lr, lr
  408312:	fbb5 f0fc 	udiv	r0, r5, ip
  408316:	fb0c 5510 	mls	r5, ip, r0, r5
  40831a:	ea4e 4405 	orr.w	r4, lr, r5, lsl #16
  40831e:	fb00 f808 	mul.w	r8, r0, r8
  408322:	45a0      	cmp	r8, r4
  408324:	d907      	bls.n	408336 <__udivmoddi4+0x26e>
  408326:	18e4      	adds	r4, r4, r3
  408328:	f100 35ff 	add.w	r5, r0, #4294967295
  40832c:	d229      	bcs.n	408382 <__udivmoddi4+0x2ba>
  40832e:	45a0      	cmp	r8, r4
  408330:	d927      	bls.n	408382 <__udivmoddi4+0x2ba>
  408332:	3802      	subs	r0, #2
  408334:	441c      	add	r4, r3
  408336:	ea40 4009 	orr.w	r0, r0, r9, lsl #16
  40833a:	eba4 0408 	sub.w	r4, r4, r8
  40833e:	fba0 8902 	umull	r8, r9, r0, r2
  408342:	454c      	cmp	r4, r9
  408344:	46c6      	mov	lr, r8
  408346:	464d      	mov	r5, r9
  408348:	d315      	bcc.n	408376 <__udivmoddi4+0x2ae>
  40834a:	d012      	beq.n	408372 <__udivmoddi4+0x2aa>
  40834c:	b156      	cbz	r6, 408364 <__udivmoddi4+0x29c>
  40834e:	ebba 030e 	subs.w	r3, sl, lr
  408352:	eb64 0405 	sbc.w	r4, r4, r5
  408356:	fa04 f707 	lsl.w	r7, r4, r7
  40835a:	40cb      	lsrs	r3, r1
  40835c:	431f      	orrs	r7, r3
  40835e:	40cc      	lsrs	r4, r1
  408360:	6037      	str	r7, [r6, #0]
  408362:	6074      	str	r4, [r6, #4]
  408364:	2100      	movs	r1, #0
  408366:	e8bd 87f0 	ldmia.w	sp!, {r4, r5, r6, r7, r8, r9, sl, pc}
  40836a:	4618      	mov	r0, r3
  40836c:	e6f8      	b.n	408160 <__udivmoddi4+0x98>
  40836e:	4690      	mov	r8, r2
  408370:	e6e0      	b.n	408134 <__udivmoddi4+0x6c>
  408372:	45c2      	cmp	sl, r8
  408374:	d2ea      	bcs.n	40834c <__udivmoddi4+0x284>
  408376:	ebb8 0e02 	subs.w	lr, r8, r2
  40837a:	eb69 0503 	sbc.w	r5, r9, r3
  40837e:	3801      	subs	r0, #1
  408380:	e7e4      	b.n	40834c <__udivmoddi4+0x284>
  408382:	4628      	mov	r0, r5
  408384:	e7d7      	b.n	408336 <__udivmoddi4+0x26e>
  408386:	4640      	mov	r0, r8
  408388:	e791      	b.n	4082ae <__udivmoddi4+0x1e6>
  40838a:	4681      	mov	r9, r0
  40838c:	e7be      	b.n	40830c <__udivmoddi4+0x244>
  40838e:	4601      	mov	r1, r0
  408390:	e778      	b.n	408284 <__udivmoddi4+0x1bc>
  408392:	3802      	subs	r0, #2
  408394:	443c      	add	r4, r7
  408396:	e745      	b.n	408224 <__udivmoddi4+0x15c>
  408398:	4608      	mov	r0, r1
  40839a:	e708      	b.n	4081ae <__udivmoddi4+0xe6>
  40839c:	f1a8 0802 	sub.w	r8, r8, #2
  4083a0:	443d      	add	r5, r7
  4083a2:	e72b      	b.n	4081fc <__udivmoddi4+0x134>

004083a4 <__aeabi_idiv0>:
  4083a4:	4770      	bx	lr
  4083a6:	bf00      	nop

004083a8 <p_uc_charset10x14>:
	...
  4083c4:	ccff ccff 0000 0000 0000 0000 0000 0000     ................
  4083d4:	00f0 00f0 0000 0000 00f0 00f0 0000 0000     ................
  4083e4:	c00c c00c fcff fcff c00c c00c fcff fcff     ................
  4083f4:	c00c c00c 600c 701e 303f 3033 fcff fcff     .....`.p?030....
  408404:	3033 f033 e039 c018 0060 0cf0 3cf0 f060     303.9...`....<`.
  408414:	c003 000f 183c 3cf0 3cc0 1800 f03c f87f     ....<..<.<..<...
  408424:	1cc3 8cc7 cccf ecdc 7878 3030 fc00 cc00     ........xx00....
  408434:	0000 0000 0000 0044 00ec 00f8 0070 0000     ......D.....p...
	...
  40844c:	c00f f03f 7878 1860 0cc0 0cc0 0000 0000     ..?.xx`.........
  40845c:	0000 0000 0cc0 0cc0 1860 7878 f03f c00f     ........`.xx?...
  40846c:	0000 0000 600c e00e c007 8003 f83f f83f     .....`......?.?.
  40847c:	8003 c007 e00e 600c 0003 0003 0003 0003     .......`........
  40848c:	f03f f03f 0003 0003 0003 0003 4400 ec00     ?.?..........D..
  40849c:	f800 7000 0000 0000 0000 0000 0000 0000     ...p............
  4084ac:	0003 0003 0003 0003 0003 0003 0003 0003     ................
  4084bc:	0003 0003 1800 3c00 3c00 1800 0000 0000     .......<.<......
	...
  4084d4:	0000 0c00 3c00 f000 c003 000f 003c 00f0     .....<......<...
  4084e4:	00c0 0000 f03f f87f fce0 ccc1 8cc3 0cc7     ....?...........
  4084f4:	0cce 1cfc f87f f03f 0000 0000 0c30 0c70     ......?.....0.p.
  408504:	fcff fcff 0c00 0c00 0000 0000 0c30 1c70     ............0.p.
  408514:	3ce0 7cc0 ecc0 ccc1 8cc3 0ce7 0c7e 0c3c     .<.|........~.<.
  408524:	3030 3870 1ce0 0cc0 0cc0 0cc3 0cc3 1ce3     00p8............
  408534:	f87f f03c c003 c007 c00e c01c c038 c070     ..<.........8.p.
  408544:	fcff fcff c000 c000 30fc 38fc 1ccc 0ccc     .........0.8....
  408554:	0ccc 0ccc 0ccc 1cce f8c7 f0c3 f03f f87f     ............?...
  408564:	1ce3 0cc3 0cc3 0cc3 0cc3 9ce3 f871 f030     ............q.0.
  408574:	00c0 00c0 00c0 00c0 fcc3 fcc7 00ce 00dc     ................
  408584:	00f8 00f0 f03c f87f 9ce7 0cc3 0cc3 0cc3     ....<...........
  408594:	0cc3 9ce7 f87f f03c 003c 007e 0ce7 0cc3     ......<.<.~.....
  4085a4:	1cc3 38c3 70c3 e0e7 c07f 803f 0000 0000     ...8.p....?.....
  4085b4:	0000 6018 f03c f03c 6018 0000 0000 0000     ...`<.<..`......
  4085c4:	0000 0000 0000 4418 ec3c f83c 7018 0000     .......D<.<..p..
  4085d4:	0000 0000 0000 0003 8007 c00f e01c 7038     ..............8p
  4085e4:	3870 1ce0 0cc0 0000 c00c c00c c00c c00c     p8..............
  4085f4:	c00c c00c c00c c00c c00c c00c 0000 0cc0     ................
  408604:	1ce0 3870 7038 e01c c00f 8007 0003 0000     ..p88p..........
  408614:	0030 0070 00e0 00c0 ecc1 ecc3 00c3 00e6     0.p.............
  408624:	007e 003c f030 f871 9ce3 0cc3 fcc3 fcc3     ~.<.0.q.........
  408634:	0cc0 1ce0 f87f f03f fc3f fc7f c0e0 c0c0     ......?.?.......
  408644:	c0c0 c0c0 c0c0 c0e0 fc7f fc3f fcff fcff     ..........?.....
  408654:	0cc3 0cc3 0cc3 0cc3 0cc3 9ce7 f87f f03c     ..............<.
  408664:	f03f f87f 1ce0 0cc0 0cc0 0cc0 0cc0 1ce0     ?...............
  408674:	3870 3030 fcff fcff 0cc0 0cc0 0cc0 0cc0     p800............
  408684:	0cc0 1ce0 f87f f03f fcff fcff 0cc3 0cc3     ......?.........
  408694:	0cc3 0cc3 0cc3 0cc3 0cc0 0cc0 fcff fcff     ................
  4086a4:	00c3 00c3 00c3 00c3 00c3 00c3 00c0 00c0     ................
  4086b4:	f03f f87f 1ce0 0cc0 0cc0 0cc3 0cc3 1ce3     ?...............
  4086c4:	f873 f033 fcff fcff 0003 0003 0003 0003     s.3.............
  4086d4:	0003 0003 fcff fcff 0000 0000 0cc0 0cc0     ................
  4086e4:	fcff fcff 0cc0 0cc0 0000 0000 3000 3800     .............0.8
  4086f4:	1cc0 0cc0 0cc0 1cc0 f8ff f0ff 00c0 00c0     ................
  408704:	fcff fcff 8007 8007 c00f e01c 7038 3870     ............8pp8
  408714:	1ce0 0cc0 fcff fcff 0c00 0c00 0c00 0c00     ................
  408724:	0c00 0c00 0c00 0c00 fcff fcff 0070 0038     ............p.8.
  408734:	001f 001f 0038 0070 fcff fcff fcff fcff     ....8.p.........
  408744:	001c 000e 0007 8003 c001 e000 fcff fcff     ................
  408754:	f03f f87f 1ce0 0cc0 0cc0 0cc0 0cc0 1ce0     ?...............
  408764:	f87f f03f fcff fcff 00c3 00c3 00c3 00c3     ..?.............
  408774:	00c3 00e7 007e 003c f03f f87f 1ce0 0cc0     ....~.<.?.......
  408784:	ccc0 ecc0 7cc0 38e0 fc7f ec3f fcff fcff     .....|.8..?.....
  408794:	00c3 80c3 80c3 c0c3 c0c3 70e7 3c7e 1c3c     ...........p~<<.
  4087a4:	183c 1c7e 0ce7 0cc3 0cc3 0cc3 0cc3 9cc3     <.~.............
  4087b4:	f8e1 f060 00c0 00c0 00c0 00c0 fcff fcff     ..`.............
  4087c4:	00c0 00c0 00c0 00c0 f0ff f8ff 1c00 0c00     ................
  4087d4:	0c00 0c00 0c00 1c00 f8ff f0ff c0ff e0ff     ................
  4087e4:	7000 3800 1c00 1c00 3800 7000 e0ff c0ff     .p.8.....8.p....
  4087f4:	f0ff f8ff 1c00 3c00 f800 f800 3c00 1c00     .......<.....<..
  408804:	f8ff f0ff 3cf0 7cf8 e01c c00f 8007 8007     .....<.|........
  408814:	c00f e01c 7cf8 3cf0 00fc 00fe 0007 8003     .....|.<........
  408824:	fc01 fc01 8003 0007 00fe 00fc 3cc0 7cc0     .............<.|
  408834:	ecc0 ccc1 8cc3 0cc7 0cce 0cdc 0cf8 0cf0     ................
  408844:	0000 0000 fcff fcff 0cc0 0cc0 0cc0 0000     ................
  408854:	0000 0000 0030 0030 000c 000c 0003 0003     ....0.0.........
  408864:	c000 c000 3000 3000 0000 0000 0cc0 0cc0     .....0.0........
  408874:	0cc0 fcff fcff 0000 0000 0000 000c 001c     ................
  408884:	0038 0070 00e0 00e0 0070 0038 001c 000c     8.p.....p.8.....
  408894:	0c00 0c00 0c00 0c00 0c00 0c00 0c00 0c00     ................
  4088a4:	0c00 0c00 0000 0000 00c0 00e0 0070 0038     ............p.8.
  4088b4:	0018 0000 0000 0000 3000 7806 fc0e cc0c     .........0.x....
  4088c4:	cc0c cc0c cc0c cc0e fc07 f803 fcff fcff     ................
  4088d4:	0c03 0c03 0c03 0c03 0c03 9c03 f801 f000     ................
  4088e4:	f003 f807 1c0e 0c0c 0c0c 0c0c 0c0c 1c0e     ................
  4088f4:	3807 3003 f000 f801 9c03 0c03 0c03 0c03     .8.0............
  408904:	0c03 0c03 fcff fcff f003 f807 dc0e cc0c     ................
  408914:	cc0c cc0c cc0c dc0e d807 9003 0000 0003     ................
  408924:	fc3f fc7f 00e3 00e3 0070 0030 0000 0000     ?.......p.0.....
  408934:	1803 9c07 cc0f cc0c cc0c cc0c cc0c dc0c     ................
  408944:	f80f f007 fcff fcff 0003 0003 0003 0003     ................
  408954:	8003 fc01 fc00 0000 0000 0000 0000 0000     ................
  408964:	fc1b fc1b 0000 0000 0000 0000 0000 3000     ...............0
  408974:	3800 1c00 0c00 0c00 1c00 f8cf f0cf 0000     .8..............
  408984:	0000 fcff fcff e000 e001 f003 3807 1c0e     .............8..
  408994:	0c0c 0000 0000 0000 0cc0 0cc0 fcff fcff     ................
  4089a4:	0c00 0c00 0000 0000 fc0f fc0f 000e 0007     ................
  4089b4:	c003 c003 0007 000e fc0f fc0f fc0f fc0f     ................
  4089c4:	0003 0007 000e 000c 000c 000e fc07 fc03     ................
  4089d4:	f003 f807 1c0e 0c0c 0c0c 0c0c 0c0c 1c0e     ................
  4089e4:	f807 f003 fc0f fc0f c00c c00c c00c c00c     ................
  4089f4:	c00c c00f 8007 0003 0003 8007 c00f c00c     ................
  408a04:	c00c c00c c00c c00c fc0f fc0f fc0f fc0f     ................
  408a14:	8003 0007 000e 000c 000c 000e 0007 0003     ................
  408a24:	1803 9c07 cc0f cc0c cc0c cc0c cc0c fc0c     ................
  408a34:	780e 3006 0000 000c 000c f0ff f8ff 1c0c     .x.0............
  408a44:	1c0c 380c 300c 0000 f00f f80f 1c00 0c00     ...8.0..........
  408a54:	0c00 0c00 0c00 1c00 f80f f00f c00f e00f     ................
  408a64:	7000 3800 1c00 1c00 3800 7000 e00f c00f     .p.8.....8.p....
  408a74:	f00f f80f 1c00 1c00 f800 f800 1c00 1c00     ................
  408a84:	f80f f00f 0c0c 1c0e 3807 f003 e001 e001     .........8......
  408a94:	f003 3807 1c0e 0c0c 000c 000e 0c07 9c03     ...8............
  408aa4:	f801 f001 8003 0007 000e 000c 0c0c 1c0c     ................
  408ab4:	3c0c 7c0c ec0c cc0d 8c0f 0c0f 0c0e 0c0c     .<.|............
  408ac4:	0000 0003 8007 f03f f87c 1ce0 0cc0 0cc0     ......?.|.......
  408ad4:	0cc0 0000 0c03 0c03 fc3f fc7f 0ce3 0cc3     ........?.......
  408ae4:	0cc0 0ce0 0c70 0c30 0000 0cc0 0cc0 0cc0     ....p.0.........
  408af4:	1ce0 f87c f03f 8007 0003 0000 00c0 00c0     ..|.?...........
  408b04:	00c0 00c0 00c0 00c0 00c0 00c0 00c0 00c0     ................
  408b14:	fcff fcff fcff fcff fcff fcff fcff fcff     ................
  408b24:	fcff fcff                                   ....

00408b28 <LED_DESCRIPTOR>:
  408b28:	0013 0000 0000 0000 0014 0000 0000 0000     ................
  408b38:	0054 0000 0001 0000 7544 7974 4320 6379     T.......Duty Cyc
  408b48:	656c 203a 6425 2525 000a 0000 6554 706d     le: %d%%....Temp
  408b58:	7265 7461 7275 3a61 2520 0a64 0000 0000     eratura: %d.....
  408b68:	6d55 6469 6461 3a65 0a20 0000 6d55 6469     Umidade: ...Umid
  408b78:	6461 2065 5328 6c6f 296f 203a 6925 2525     ade (Solo): %i%%
  408b88:	000a 0000 7453 6e61 2d64 7942 203a 6425     ....Stand-By: %d
  408b98:	0a73 0000 754c 696d 6f6e 6973 6164 6564     s...Luminosidade
  408ba8:	203a 6425 000a 0000 4f42 424d 2041 494c     : %d....BOMBA LI
  408bb8:	4147 4144 0a21 0000 5250 5345 4e45 4143     GADA!...PRESENCA
  408bc8:	4420 5445 4345 4154 4144 0a21 0000 0000      DETECTADA!.....
  408bd8:	6425 2525 0000 0000 6425 0000 6425 0073     %d%%....%d..%ds.
  408be8:	4e4f 0000 464f 0046 4559 0053 4f4e 0020     ON..OFF.YES.NO .
  408bf8:	4420 7475 2079 4320 6379 656c 203a 0000      Duty  Cycle: ..
  408c08:	5420 6d65 6570 6172 7574 6572 203a 0000      Temperature: ..
  408c18:	2020 2020 7548 696d 6964 7974 203a 0000         Humidity: ..
  408c28:	2020 2020 4720 202e 7548 2e6d 203a 0000          G. Hum.: ..
  408c38:	2020 2020 7453 6e61 2d64 7942 203a 0000         Stand-By: ..
  408c48:	754c 696d 6f6e 6973 6164 6564 203a 0000     Luminosidade: ..
  408c58:	2020 7453 2e73 4220 6d6f 6162 203a 0000       Sts. Bomba: ..
  408c68:	2020 2020 7250 7365 6e65 6563 203a 0000         Presence: ..

00408c78 <_global_impure_ptr>:
  408c78:	0020 2000 4e49 0046 6e69 0066 414e 004e      .. INF.inf.NAN.
  408c88:	616e 006e 3130 3332 3534 3736 3938 4241     nan.0123456789AB
  408c98:	4443 4645 0000 0000 3130 3332 3534 3736     CDEF....01234567
  408ca8:	3938 6261 6463 6665 0000 0000 6e28 6c75     89abcdef....(nul
  408cb8:	296c 0000 0030 0000                         l)..0...

00408cc0 <blanks.7223>:
  408cc0:	2020 2020 2020 2020 2020 2020 2020 2020                     

00408cd0 <zeroes.7224>:
  408cd0:	3030 3030 3030 3030 3030 3030 3030 3030     0000000000000000

00408ce0 <blanks.7217>:
  408ce0:	2020 2020 2020 2020 2020 2020 2020 2020                     

00408cf0 <zeroes.7218>:
  408cf0:	3030 3030 3030 3030 3030 3030 3030 3030     0000000000000000
  408d00:	6e49 6966 696e 7974 0000 0000 614e 004e     Infinity....NaN.
  408d10:	0043 0000 4f50 4953 0058 0000 002e 0000     C...POSIX.......

00408d20 <__mprec_bigtens>:
  408d20:	8000 37e0 c379 4341 6e17 b505 b8b5 4693     ...7y.AC.n.....F
  408d30:	f9f5 e93f 4f03 4d38 1d32 f930 7748 5a82     ..?..O8M2.0.Hw.Z
  408d40:	bf3c 7f73 4fdd 7515                         <.s..O.u

00408d48 <__mprec_tens>:
  408d48:	0000 0000 0000 3ff0 0000 0000 0000 4024     .......?......$@
  408d58:	0000 0000 0000 4059 0000 0000 4000 408f     ......Y@.....@.@
  408d68:	0000 0000 8800 40c3 0000 0000 6a00 40f8     .......@.....j.@
  408d78:	0000 0000 8480 412e 0000 0000 12d0 4163     .......A......cA
  408d88:	0000 0000 d784 4197 0000 0000 cd65 41cd     .......A....e..A
  408d98:	0000 2000 a05f 4202 0000 e800 4876 4237     ... _..B....vH7B
  408da8:	0000 a200 1a94 426d 0000 e540 309c 42a2     ......mB..@..0.B
  408db8:	0000 1e90 bcc4 42d6 0000 2634 6bf5 430c     .......B..4&.k.C
  408dc8:	8000 37e0 c379 4341 a000 85d8 3457 4376     ...7y.AC....W4vC
  408dd8:	c800 674e c16d 43ab 3d00 6091 58e4 43e1     ..Ngm..C.=.`.X.C
  408de8:	8c40 78b5 af1d 4415 ef50 d6e2 1ae4 444b     @..x...DP.....KD
  408df8:	d592 064d f0cf 4480 4af6 c7e1 2d02 44b5     ..M....D.J...-.D
  408e08:	9db4 79d9 7843 44ea                         ...yCx.D

00408e10 <p05.6055>:
  408e10:	0005 0000 0019 0000 007d 0000               ........}...

00408e1c <_ctype_>:
  408e1c:	2000 2020 2020 2020 2020 2828 2828 2028     .         ((((( 
  408e2c:	2020 2020 2020 2020 2020 2020 2020 2020                     
  408e3c:	8820 1010 1010 1010 1010 1010 1010 1010      ...............
  408e4c:	0410 0404 0404 0404 0404 1004 1010 1010     ................
  408e5c:	1010 4141 4141 4141 0101 0101 0101 0101     ..AAAAAA........
  408e6c:	0101 0101 0101 0101 0101 0101 1010 1010     ................
  408e7c:	1010 4242 4242 4242 0202 0202 0202 0202     ..BBBBBB........
  408e8c:	0202 0202 0202 0202 0202 0202 1010 1010     ................
  408e9c:	0020 0000 0000 0000 0000 0000 0000 0000      ...............
	...

00408f20 <_init>:
  408f20:	b5f8      	push	{r3, r4, r5, r6, r7, lr}
  408f22:	bf00      	nop
  408f24:	bcf8      	pop	{r3, r4, r5, r6, r7}
  408f26:	bc08      	pop	{r3}
  408f28:	469e      	mov	lr, r3
  408f2a:	4770      	bx	lr

00408f2c <__init_array_start>:
  408f2c:	00404615 	.word	0x00404615

00408f30 <__frame_dummy_init_array_entry>:
  408f30:	004000f1                                ..@.

00408f34 <_fini>:
  408f34:	b5f8      	push	{r3, r4, r5, r6, r7, lr}
  408f36:	bf00      	nop
  408f38:	bcf8      	pop	{r3, r4, r5, r6, r7}
  408f3a:	bc08      	pop	{r3}
  408f3c:	469e      	mov	lr, r3
  408f3e:	4770      	bx	lr

00408f40 <__fini_array_start>:
  408f40:	004000cd 	.word	0x004000cd
